---
triple:          'arm64-apple-darwin'
binary-path:     '/Users/humengqing/Documents/Code/VSCode/IWU/JsonRepos/Test/main'
relocations:
  - { offset: 0x77, size: 0x8, addend: 0x0, symName: __ZNSt3__114in_place_indexILm0EEE, symObjAddr: 0x3D7EC, symBinAddr: 0x10004167C, symSize: 0x0 }
  - { offset: 0xBC, size: 0x8, addend: 0x0, symName: __ZNSt3__114in_place_indexILm1EEE, symObjAddr: 0x3D7ED, symBinAddr: 0x10004167D, symSize: 0x0 }
  - { offset: 0x101, size: 0x8, addend: 0x0, symName: __ZNSt3__114in_place_indexILm2EEE, symObjAddr: 0x3D7EE, symBinAddr: 0x10004167E, symSize: 0x0 }
  - { offset: 0x146, size: 0x8, addend: 0x0, symName: __ZNSt3__114in_place_indexILm3EEE, symObjAddr: 0x3D7EF, symBinAddr: 0x10004167F, symSize: 0x0 }
  - { offset: 0x18B, size: 0x8, addend: 0x0, symName: __ZNSt3__114in_place_indexILm4EEE, symObjAddr: 0x3D7F0, symBinAddr: 0x100041680, symSize: 0x0 }
  - { offset: 0x1D0, size: 0x8, addend: 0x0, symName: __ZNSt3__114in_place_indexILm5EEE, symObjAddr: 0x3D7F1, symBinAddr: 0x100041681, symSize: 0x0 }
  - { offset: 0x215, size: 0x8, addend: 0x0, symName: __ZNSt3__114in_place_indexILm6EEE, symObjAddr: 0x3D7F2, symBinAddr: 0x100041682, symSize: 0x0 }
  - { offset: 0x270, size: 0x8, addend: 0x0, symName: __ZNSt3__18in_placeE, symObjAddr: 0x3D7F3, symBinAddr: 0x100041683, symSize: 0x0 }
  - { offset: 0x2A0, size: 0x8, addend: 0x0, symName: __ZNSt3__119piecewise_constructE, symObjAddr: 0x3D95C, symBinAddr: 0x1000417EC, symSize: 0x0 }
  - { offset: 0x1CA80, size: 0x8, addend: 0x0, symName: __ZNSt3__124__put_character_sequenceB8ne180100IcNS_11char_traitsIcEEEERNS_13basic_ostreamIT_T0_EES7_PKS4_m, symObjAddr: 0xD38C, symBinAddr: 0x10000FBA4, symSize: 0x1EC }
  - { offset: 0x217E9, size: 0x8, addend: 0x0, symName: __ZNSt3__17advanceB8ne180100INS_21__tree_const_iteratorINS_12__value_typeINS_12basic_stringIcNS_11char_traitsIcEENS_9allocatorIcEEEEN8nlohmann16json_abi_v3_11_210basic_jsonINS_3mapENS_6vectorES8_bxydS6_NSA_14adl_serializerENSD_IhNS6_IhEEEEEEEEPNS_11__tree_nodeISI_PvEElEEllvEEvRT_T0_, symObjAddr: 0x24724, symBinAddr: 0x100026F3C, symSize: 0x38 }
  - { offset: 0x22332, size: 0x8, addend: 0x0, symName: __ZNSt3__17advanceB8ne180100INS_20__map_const_iteratorINS_21__tree_const_iteratorINS_12__value_typeINS_12basic_stringIcNS_11char_traitsIcEENS_9allocatorIcEEEEN8nlohmann16json_abi_v3_11_210basic_jsonINS_3mapENS_6vectorES9_bxydS7_NSB_14adl_serializerENSE_IhNS7_IhEEEEEEEEPNS_11__tree_nodeISJ_PvEElEEEEllvEEvRT_T0_, symObjAddr: 0x35348, symBinAddr: 0x100037B60, symSize: 0x38 }
  - { offset: 0x223C3, size: 0x8, addend: 0x0, symName: __ZNSt3__17advanceB8ne180100INS_14__map_iteratorINS_15__tree_iteratorINS_12__value_typeINS_12basic_stringIcNS_11char_traitsIcEENS_9allocatorIcEEEEN8nlohmann16json_abi_v3_11_210basic_jsonINS_3mapENS_6vectorES9_bxydS7_NSB_14adl_serializerENSE_IhNS7_IhEEEEEEEEPNS_11__tree_nodeISJ_PvEElEEEEiivEEvRT_T0_, symObjAddr: 0x387F0, symBinAddr: 0x10003B008, symSize: 0x40 }
  - { offset: 0x22454, size: 0x8, addend: 0x0, symName: __ZNSt3__17advanceB8ne180100INS_11__wrap_iterIPN8nlohmann16json_abi_v3_11_210basic_jsonINS_3mapENS_6vectorENS_12basic_stringIcNS_11char_traitsIcEENS_9allocatorIcEEEEbxydSA_NS3_14adl_serializerENS6_IhNSA_IhEEEEEEEEiivEEvRT_T0_, symObjAddr: 0x38830, symBinAddr: 0x10003B048, symSize: 0x40 }
  - { offset: 0x239A4, size: 0x8, addend: 0x0, symName: __ZNSt3__1lsB8ne180100INS_11char_traitsIcEEEERNS_13basic_ostreamIcT_EES6_PKc, symObjAddr: 0x1388, symBinAddr: 0x100003BA0, symSize: 0x48 }
  - { offset: 0x239EA, size: 0x8, addend: 0x0, symName: __ZNSt3__1lsB8ne180100IcNS_11char_traitsIcEENS_9allocatorIcEEEERNS_13basic_ostreamIT_T0_EES9_RKNS_12basic_stringIS6_S7_T1_EE, symObjAddr: 0x13D0, symBinAddr: 0x100003BE8, symSize: 0x4C }
  - { offset: 0x23A4D, size: 0x8, addend: 0x0, symName: __ZNSt3__111make_sharedB8ne180100I8TreeNodeJRA9_KcEvEENS_10shared_ptrIT_EEDpOT0_, symObjAddr: 0x2C04, symBinAddr: 0x10000541C, symSize: 0x40 }
  - { offset: 0x23A90, size: 0x8, addend: 0x0, symName: __ZNSt3__115allocate_sharedB8ne180100I8TreeNodeNS_9allocatorIS1_EEJRA9_KcEvEENS_10shared_ptrIT_EERKT0_DpOT1_, symObjAddr: 0x2C44, symBinAddr: 0x10000545C, symSize: 0x98 }
  - { offset: 0x23E08, size: 0x8, addend: 0x0, symName: __ZNSt3__117__libcpp_allocateB8ne180100Emm, symObjAddr: 0x306C, symBinAddr: 0x100005884, symSize: 0x60 }
  - { offset: 0x23E64, size: 0x8, addend: 0x0, symName: __ZNSt3__124__is_overaligned_for_newB8ne180100Em, symObjAddr: 0x30EC, symBinAddr: 0x100005904, symSize: 0x20 }
  - { offset: 0x23E92, size: 0x8, addend: 0x0, symName: __ZNSt3__121__libcpp_operator_newB8ne180100IJmSt11align_val_tEEEPvDpT_, symObjAddr: 0x310C, symBinAddr: 0x100005924, symSize: 0x2C }
  - { offset: 0x23EDF, size: 0x8, addend: 0x0, symName: __ZNSt3__121__libcpp_operator_newB8ne180100IJmEEEPvDpT_, symObjAddr: 0x3138, symBinAddr: 0x100005950, symSize: 0x24 }
  - { offset: 0x24057, size: 0x8, addend: 0x0, symName: __ZNSt3__18__invokeB8ne180100IZNS_16__variant_detail6__dtorINS1_8__traitsIJijxyfdNS_12basic_stringIcNS_11char_traitsIcEENS_9allocatorIcEEEEEEELNS1_6_TraitE1EE9__destroyB8ne180100EvEUlRT_E_JRNS1_5__altILm0EiEEEEEDTclclsr3stdE7declvalISD_EEspclsr3stdE7declvalIT0_EEEEOSD_DpOSJ_, symObjAddr: 0x3F04, symBinAddr: 0x10000671C, symSize: 0x2C }
  - { offset: 0x240A5, size: 0x8, addend: 0x0, symName: __ZNSt3__18__invokeB8ne180100IZNS_16__variant_detail6__dtorINS1_8__traitsIJijxyfdNS_12basic_stringIcNS_11char_traitsIcEENS_9allocatorIcEEEEEEELNS1_6_TraitE1EE9__destroyB8ne180100EvEUlRT_E_JRNS1_5__altILm1EjEEEEEDTclclsr3stdE7declvalISD_EEspclsr3stdE7declvalIT0_EEEEOSD_DpOSJ_, symObjAddr: 0x3F7C, symBinAddr: 0x100006794, symSize: 0x2C }
  - { offset: 0x240F3, size: 0x8, addend: 0x0, symName: __ZNSt3__18__invokeB8ne180100IZNS_16__variant_detail6__dtorINS1_8__traitsIJijxyfdNS_12basic_stringIcNS_11char_traitsIcEENS_9allocatorIcEEEEEEELNS1_6_TraitE1EE9__destroyB8ne180100EvEUlRT_E_JRNS1_5__altILm2ExEEEEEDTclclsr3stdE7declvalISD_EEspclsr3stdE7declvalIT0_EEEEOSD_DpOSJ_, symObjAddr: 0x4018, symBinAddr: 0x100006830, symSize: 0x2C }
  - { offset: 0x24141, size: 0x8, addend: 0x0, symName: __ZNSt3__18__invokeB8ne180100IZNS_16__variant_detail6__dtorINS1_8__traitsIJijxyfdNS_12basic_stringIcNS_11char_traitsIcEENS_9allocatorIcEEEEEEELNS1_6_TraitE1EE9__destroyB8ne180100EvEUlRT_E_JRNS1_5__altILm3EyEEEEEDTclclsr3stdE7declvalISD_EEspclsr3stdE7declvalIT0_EEEEOSD_DpOSJ_, symObjAddr: 0x40D8, symBinAddr: 0x1000068F0, symSize: 0x2C }
  - { offset: 0x2418F, size: 0x8, addend: 0x0, symName: __ZNSt3__18__invokeB8ne180100IZNS_16__variant_detail6__dtorINS1_8__traitsIJijxyfdNS_12basic_stringIcNS_11char_traitsIcEENS_9allocatorIcEEEEEEELNS1_6_TraitE1EE9__destroyB8ne180100EvEUlRT_E_JRNS1_5__altILm4EfEEEEEDTclclsr3stdE7declvalISD_EEspclsr3stdE7declvalIT0_EEEEOSD_DpOSJ_, symObjAddr: 0x41BC, symBinAddr: 0x1000069D4, symSize: 0x2C }
  - { offset: 0x241DD, size: 0x8, addend: 0x0, symName: __ZNSt3__18__invokeB8ne180100IZNS_16__variant_detail6__dtorINS1_8__traitsIJijxyfdNS_12basic_stringIcNS_11char_traitsIcEENS_9allocatorIcEEEEEEELNS1_6_TraitE1EE9__destroyB8ne180100EvEUlRT_E_JRNS1_5__altILm5EdEEEEEDTclclsr3stdE7declvalISD_EEspclsr3stdE7declvalIT0_EEEEOSD_DpOSJ_, symObjAddr: 0x42C4, symBinAddr: 0x100006ADC, symSize: 0x2C }
  - { offset: 0x2422B, size: 0x8, addend: 0x0, symName: __ZNSt3__18__invokeB8ne180100IZNS_16__variant_detail6__dtorINS1_8__traitsIJijxyfdNS_12basic_stringIcNS_11char_traitsIcEENS_9allocatorIcEEEEEEELNS1_6_TraitE1EE9__destroyB8ne180100EvEUlRT_E_JRNS1_5__altILm6ES9_EEEEEDTclclsr3stdE7declvalISD_EEspclsr3stdE7declvalIT0_EEEEOSD_DpOSJ_, symObjAddr: 0x43F0, symBinAddr: 0x100006C08, symSize: 0x2C }
  - { offset: 0x242BF, size: 0x8, addend: 0x0, symName: __ZNSt3__18__invokeB8ne180100IZNS_16__variant_detail6__ctorINS1_8__traitsIJijxyfdNS_12basic_stringIcNS_11char_traitsIcEENS_9allocatorIcEEEEEEEE19__generic_constructB8ne180100IRKNS1_18__copy_constructorISA_LNS1_6_TraitE1EEEEEvRSB_OT_EUlRSJ_OT0_E_JRNS1_5__altILm0EiEERKSQ_EEEDTclclsr3stdE7declvalISJ_EEspclsr3stdE7declvalIT0_EEEESK_DpOSU_, symObjAddr: 0x4844, symBinAddr: 0x10000705C, symSize: 0x34 }
  - { offset: 0x24321, size: 0x8, addend: 0x0, symName: __ZNSt3__18__invokeB8ne180100IZNS_16__variant_detail6__ctorINS1_8__traitsIJijxyfdNS_12basic_stringIcNS_11char_traitsIcEENS_9allocatorIcEEEEEEEE19__generic_constructB8ne180100IRKNS1_18__copy_constructorISA_LNS1_6_TraitE1EEEEEvRSB_OT_EUlRSJ_OT0_E_JRNS1_5__altILm1EjEERKSQ_EEEDTclclsr3stdE7declvalISJ_EEspclsr3stdE7declvalIT0_EEEESK_DpOSU_, symObjAddr: 0x4968, symBinAddr: 0x100007180, symSize: 0x34 }
  - { offset: 0x24383, size: 0x8, addend: 0x0, symName: __ZNSt3__18__invokeB8ne180100IZNS_16__variant_detail6__ctorINS1_8__traitsIJijxyfdNS_12basic_stringIcNS_11char_traitsIcEENS_9allocatorIcEEEEEEEE19__generic_constructB8ne180100IRKNS1_18__copy_constructorISA_LNS1_6_TraitE1EEEEEvRSB_OT_EUlRSJ_OT0_E_JRNS1_5__altILm2ExEERKSQ_EEEDTclclsr3stdE7declvalISJ_EEspclsr3stdE7declvalIT0_EEEESK_DpOSU_, symObjAddr: 0x4AB0, symBinAddr: 0x1000072C8, symSize: 0x34 }
  - { offset: 0x243E5, size: 0x8, addend: 0x0, symName: __ZNSt3__18__invokeB8ne180100IZNS_16__variant_detail6__ctorINS1_8__traitsIJijxyfdNS_12basic_stringIcNS_11char_traitsIcEENS_9allocatorIcEEEEEEEE19__generic_constructB8ne180100IRKNS1_18__copy_constructorISA_LNS1_6_TraitE1EEEEEvRSB_OT_EUlRSJ_OT0_E_JRNS1_5__altILm3EyEERKSQ_EEEDTclclsr3stdE7declvalISJ_EEspclsr3stdE7declvalIT0_EEEESK_DpOSU_, symObjAddr: 0x4C1C, symBinAddr: 0x100007434, symSize: 0x34 }
  - { offset: 0x24447, size: 0x8, addend: 0x0, symName: __ZNSt3__18__invokeB8ne180100IZNS_16__variant_detail6__ctorINS1_8__traitsIJijxyfdNS_12basic_stringIcNS_11char_traitsIcEENS_9allocatorIcEEEEEEEE19__generic_constructB8ne180100IRKNS1_18__copy_constructorISA_LNS1_6_TraitE1EEEEEvRSB_OT_EUlRSJ_OT0_E_JRNS1_5__altILm4EfEERKSQ_EEEDTclclsr3stdE7declvalISJ_EEspclsr3stdE7declvalIT0_EEEESK_DpOSU_, symObjAddr: 0x4DAC, symBinAddr: 0x1000075C4, symSize: 0x34 }
  - { offset: 0x244A9, size: 0x8, addend: 0x0, symName: __ZNSt3__18__invokeB8ne180100IZNS_16__variant_detail6__ctorINS1_8__traitsIJijxyfdNS_12basic_stringIcNS_11char_traitsIcEENS_9allocatorIcEEEEEEEE19__generic_constructB8ne180100IRKNS1_18__copy_constructorISA_LNS1_6_TraitE1EEEEEvRSB_OT_EUlRSJ_OT0_E_JRNS1_5__altILm5EdEERKSQ_EEEDTclclsr3stdE7declvalISJ_EEspclsr3stdE7declvalIT0_EEEESK_DpOSU_, symObjAddr: 0x4F60, symBinAddr: 0x100007778, symSize: 0x34 }
  - { offset: 0x2450B, size: 0x8, addend: 0x0, symName: __ZNSt3__18__invokeB8ne180100IZNS_16__variant_detail6__ctorINS1_8__traitsIJijxyfdNS_12basic_stringIcNS_11char_traitsIcEENS_9allocatorIcEEEEEEEE19__generic_constructB8ne180100IRKNS1_18__copy_constructorISA_LNS1_6_TraitE1EEEEEvRSB_OT_EUlRSJ_OT0_E_JRNS1_5__altILm6ES9_EERKSQ_EEEDTclclsr3stdE7declvalISJ_EEspclsr3stdE7declvalIT0_EEEESK_DpOSU_, symObjAddr: 0x5138, symBinAddr: 0x100007950, symSize: 0x34 }
  - { offset: 0x2456D, size: 0x8, addend: 0x0, symName: __ZNSt3__112__to_addressB8ne180100INS_10shared_ptrI8TreeNodeEEEEPT_S5_, symObjAddr: 0x5978, symBinAddr: 0x100008190, symSize: 0x14 }
  - { offset: 0x245A3, size: 0x8, addend: 0x0, symName: __ZNSt3__119__libcpp_deallocateB8ne180100EPvmm, symObjAddr: 0x59F4, symBinAddr: 0x10000820C, symSize: 0x60 }
  - { offset: 0x2460A, size: 0x8, addend: 0x0, symName: __ZNSt3__127__do_deallocate_handle_sizeB8ne180100IJSt11align_val_tEEEvPvmDpT_, symObjAddr: 0x5A54, symBinAddr: 0x10000826C, symSize: 0x30 }
  - { offset: 0x2465E, size: 0x8, addend: 0x0, symName: __ZNSt3__127__do_deallocate_handle_sizeB8ne180100IJEEEvPvmDpT_, symObjAddr: 0x5A84, symBinAddr: 0x10000829C, symSize: 0x28 }
  - { offset: 0x2469D, size: 0x8, addend: 0x0, symName: __ZNSt3__124__libcpp_operator_deleteB8ne180100IJPvSt11align_val_tEEEvDpT_, symObjAddr: 0x5AAC, symBinAddr: 0x1000082C4, symSize: 0x2C }
  - { offset: 0x246E7, size: 0x8, addend: 0x0, symName: __ZNSt3__124__libcpp_operator_deleteB8ne180100IJPvEEEvDpT_, symObjAddr: 0x5AD8, symBinAddr: 0x1000082F0, symSize: 0x24 }
  - { offset: 0x24750, size: 0x8, addend: 0x0, symName: __ZNSt3__121__libcpp_relaxed_loadB8ne180100IlEET_PKS1_, symObjAddr: 0x5F48, symBinAddr: 0x100008760, symSize: 0x20 }
  - { offset: 0x24786, size: 0x8, addend: 0x0, symName: __ZNSt3__134__libcpp_atomic_refcount_incrementB8ne180100IlEET_RS1_, symObjAddr: 0x6024, symBinAddr: 0x10000883C, symSize: 0x30 }
  - { offset: 0x247BC, size: 0x8, addend: 0x0, symName: __ZNSt3__14swapB8ne180100IP8TreeNodeEENS_9enable_ifIXaasr21is_move_constructibleIT_EE5valuesr18is_move_assignableIS4_EE5valueEvE4typeERS4_S7_, symObjAddr: 0x6164, symBinAddr: 0x10000897C, symSize: 0x3C }
  - { offset: 0x2480E, size: 0x8, addend: 0x0, symName: __ZNSt3__14swapB8ne180100IPNS_19__shared_weak_countEEENS_9enable_ifIXaasr21is_move_constructibleIT_EE5valuesr18is_move_assignableIS4_EE5valueEvE4typeERS4_S7_, symObjAddr: 0x61A0, symBinAddr: 0x1000089B8, symSize: 0x3C }
  - { offset: 0x24860, size: 0x8, addend: 0x0, symName: __ZNSt3__120__throw_bad_weak_ptrB8ne180100Ev, symObjAddr: 0x6574, symBinAddr: 0x100008D8C, symSize: 0x38 }
  - { offset: 0x248FF, size: 0x8, addend: 0x0, symName: __ZNSt3__13maxB8ne180100ImEERKT_S3_S3_, symObjAddr: 0x6CBC, symBinAddr: 0x1000094D4, symSize: 0x2C }
  - { offset: 0x24943, size: 0x8, addend: 0x0, symName: __ZNSt3__13minB8ne180100ImEERKT_S3_S3_, symObjAddr: 0x6CE8, symBinAddr: 0x100009500, symSize: 0x2C }
  - { offset: 0x24B71, size: 0x8, addend: 0x0, symName: __ZNSt3__13minB8ne180100ImNS_6__lessIvvEEEERKT_S5_S5_T0_, symObjAddr: 0x6D74, symBinAddr: 0x10000958C, symSize: 0x54 }
  - { offset: 0x24C11, size: 0x8, addend: 0x0, symName: __ZNSt3__120__throw_length_errorB8ne180100EPKc, symObjAddr: 0x6E50, symBinAddr: 0x100009668, symSize: 0x64 }
  - { offset: 0x24C3A, size: 0x8, addend: 0x0, symName: __ZNSt3__13maxB8ne180100ImNS_6__lessIvvEEEERKT_S5_S5_T0_, symObjAddr: 0x6F2C, symBinAddr: 0x100009744, symSize: 0x54 }
  - { offset: 0x24C95, size: 0x8, addend: 0x0, symName: __ZNSt3__119__allocate_at_leastB8ne180100INS_9allocatorINS_10shared_ptrI8TreeNodeEEEEEENS_19__allocation_resultINS_16allocator_traitsIT_E7pointerEEERS8_m, symObjAddr: 0x7090, symBinAddr: 0x1000098A8, symSize: 0x40 }
  - { offset: 0x24CD8, size: 0x8, addend: 0x0, symName: __ZNSt3__142__uninitialized_allocator_move_if_noexceptB8ne180100INS_9allocatorINS_10shared_ptrI8TreeNodeEEEENS_16reverse_iteratorIPS4_EES8_S8_EET2_RT_T0_T1_S9_, symObjAddr: 0x7244, symBinAddr: 0x100009A5C, symSize: 0x12C }
  - { offset: 0x24D79, size: 0x8, addend: 0x0, symName: __ZNSt3__14swapB8ne180100IPNS_10shared_ptrI8TreeNodeEEEENS_9enable_ifIXaasr21is_move_constructibleIT_EE5valuesr18is_move_assignableIS6_EE5valueEvE4typeERS6_S9_, symObjAddr: 0x73BC, symBinAddr: 0x100009BD4, symSize: 0x3C }
  - { offset: 0x24DCB, size: 0x8, addend: 0x0, symName: __ZNSt3__122__make_exception_guardB8ne180100INS_29_AllocatorDestroyRangeReverseINS_9allocatorINS_10shared_ptrI8TreeNodeEEEENS_16reverse_iteratorIPS5_EEEEEENS_28__exception_guard_exceptionsIT_EESC_, symObjAddr: 0x740C, symBinAddr: 0x100009C24, symSize: 0x4C }
  - { offset: 0x24E02, size: 0x8, addend: 0x0, symName: __ZNSt3__1neB8ne180100IPNS_10shared_ptrI8TreeNodeEES4_EEbRKNS_16reverse_iteratorIT_EERKNS5_IT0_EE, symObjAddr: 0x749C, symBinAddr: 0x100009CB4, symSize: 0x48 }
  - { offset: 0x24E4F, size: 0x8, addend: 0x0, symName: __ZNSt3__112__to_addressB8ne180100INS_16reverse_iteratorIPNS_10shared_ptrI8TreeNodeEEEEvEEu7__decayIDTclsr19__to_address_helperIT_EE6__callclsr3stdE7declvalIRKS7_EEEEES9_, symObjAddr: 0x7518, symBinAddr: 0x100009D30, symSize: 0x24 }
  - { offset: 0x24EB0, size: 0x8, addend: 0x0, symName: __ZNSt3__119__allocator_destroyB8ne180100INS_9allocatorINS_10shared_ptrI8TreeNodeEEEENS_16reverse_iteratorINS6_IPS4_EEEES9_EEvRT_T0_T1_, symObjAddr: 0x786C, symBinAddr: 0x10000A084, symSize: 0x70 }
  - { offset: 0x24F16, size: 0x8, addend: 0x0, symName: __ZNSt3__1neB8ne180100INS_16reverse_iteratorIPNS_10shared_ptrI8TreeNodeEEEES6_EEbRKNS1_IT_EERKNS1_IT0_EE, symObjAddr: 0x7918, symBinAddr: 0x10000A130, symSize: 0x60 }
  - { offset: 0x24F63, size: 0x8, addend: 0x0, symName: __ZNSt3__112__to_addressB8ne180100INS_16reverse_iteratorINS1_IPNS_10shared_ptrI8TreeNodeEEEEEEvEEu7__decayIDTclsr19__to_address_helperIT_EE6__callclsr3stdE7declvalIRKS8_EEEEESA_, symObjAddr: 0x7978, symBinAddr: 0x10000A190, symSize: 0x24 }
  - { offset: 0x24FC3, size: 0x8, addend: 0x0, symName: __ZNSt3__111make_sharedB8ne180100I8TreeNodeJRKNS_12basic_stringIcNS_11char_traitsIcEENS_9allocatorIcEEEERKN3tmw12ValueVariantEEvEENS_10shared_ptrIT_EEDpOT0_, symObjAddr: 0x7CE0, symBinAddr: 0x10000A4F8, symSize: 0x48 }
  - { offset: 0x2501A, size: 0x8, addend: 0x0, symName: __ZNSt3__115allocate_sharedB8ne180100I8TreeNodeNS_9allocatorIS1_EEJRKNS_12basic_stringIcNS_11char_traitsIcEENS2_IcEEEERKN3tmw12ValueVariantEEvEENS_10shared_ptrIT_EERKT0_DpOT1_, symObjAddr: 0x7D28, symBinAddr: 0x10000A540, symSize: 0xA0 }
  - { offset: 0x252B2, size: 0x8, addend: 0x0, symName: __ZNSt3__1eqB8ne180100INS_9allocatorIcEEEEbRKNS_12basic_stringIcNS_11char_traitsIcEET_EES9_, symObjAddr: 0x8448, symBinAddr: 0x10000AC60, symSize: 0x148 }
  - { offset: 0x25326, size: 0x8, addend: 0x0, symName: __ZNSt3__1neB8ne180100IPKNS_10shared_ptrI8TreeNodeEEEEbRKNS_11__wrap_iterIT_EESA_, symObjAddr: 0x8608, symBinAddr: 0x10000AE20, symSize: 0x34 }
  - { offset: 0x25707, size: 0x8, addend: 0x0, symName: __ZNSt3__14swapB8ne180100IPPNS_10shared_ptrI8TreeNodeEEEENS_9enable_ifIXaasr21is_move_constructibleIT_EE5valuesr18is_move_assignableIS7_EE5valueEvE4typeERS7_SA_, symObjAddr: 0x9EFC, symBinAddr: 0x10000C714, symSize: 0x3C }
  - { offset: 0x25759, size: 0x8, addend: 0x0, symName: __ZNSt3__14moveB8ne180100IPPNS_10shared_ptrI8TreeNodeEES5_EET0_T_S7_S6_, symObjAddr: 0xA02C, symBinAddr: 0x10000C844, symSize: 0x40 }
  - { offset: 0x257B4, size: 0x8, addend: 0x0, symName: __ZNSt3__112__to_addressB8ne180100IPNS_10shared_ptrI8TreeNodeEEEEPT_S6_, symObjAddr: 0xA134, symBinAddr: 0x10000C94C, symSize: 0x14 }
  - { offset: 0x257EA, size: 0x8, addend: 0x0, symName: __ZNSt3__16__moveB8ne180100INS_17_ClassicAlgPolicyEPPNS_10shared_ptrI8TreeNodeEES6_S6_EENS_4pairIT0_T2_EES8_T1_S9_, symObjAddr: 0xA148, symBinAddr: 0x10000C960, symSize: 0x44 }
  - { offset: 0x25857, size: 0x8, addend: 0x0, symName: __ZNSt3__123__dispatch_copy_or_moveB8ne180100INS_17_ClassicAlgPolicyENS_11__move_loopIS1_EENS_14__move_trivialEPPNS_10shared_ptrI8TreeNodeEES9_S9_EENS_4pairIT2_T4_EESB_T3_SC_, symObjAddr: 0xA18C, symBinAddr: 0x10000C9A4, symSize: 0x44 }
  - { offset: 0x258D6, size: 0x8, addend: 0x0, symName: __ZNSt3__121__unwrap_and_dispatchB8ne180100INS_10__overloadINS_11__move_loopINS_17_ClassicAlgPolicyEEENS_14__move_trivialEEEPPNS_10shared_ptrI8TreeNodeEESB_SB_Li0EEENS_4pairIT0_T2_EESD_T1_SE_, symObjAddr: 0xA1D0, symBinAddr: 0x10000C9E8, symSize: 0xB4 }
  - { offset: 0x25965, size: 0x8, addend: 0x0, symName: __ZNSt3__114__unwrap_rangeB8ne180100IPPNS_10shared_ptrI8TreeNodeEES5_EENS_4pairIT0_S7_EET_S9_, symObjAddr: 0xA284, symBinAddr: 0x10000CA9C, symSize: 0x60 }
  - { offset: 0x25B2A, size: 0x8, addend: 0x0, symName: __ZNSt3__113__unwrap_iterB8ne180100IPPNS_10shared_ptrI8TreeNodeEENS_18__unwrap_iter_implIS5_Lb1EEELi0EEEDTclsrT0_8__unwrapclsr3stdE7declvalIT_EEEES9_, symObjAddr: 0xA32C, symBinAddr: 0x10000CB44, symSize: 0x24 }
  - { offset: 0x25B6E, size: 0x8, addend: 0x0, symName: __ZNSt3__19make_pairB8ne180100IPPNS_10shared_ptrI8TreeNodeEES5_EENS_4pairINS_18__unwrap_ref_decayIT_E4typeENS7_IT0_E4typeEEEOS8_OSB_, symObjAddr: 0xA350, symBinAddr: 0x10000CB68, symSize: 0x38 }
  - { offset: 0x25BBE, size: 0x8, addend: 0x0, symName: __ZNSt3__114__rewrap_rangeB8ne180100IPPNS_10shared_ptrI8TreeNodeEES5_EET_S6_T0_, symObjAddr: 0xA388, symBinAddr: 0x10000CBA0, symSize: 0x2C }
  - { offset: 0x25C0B, size: 0x8, addend: 0x0, symName: __ZNSt3__113__rewrap_iterB8ne180100IPPNS_10shared_ptrI8TreeNodeEES5_NS_18__unwrap_iter_implIS5_Lb1EEEEET_S8_T0_, symObjAddr: 0xA3B4, symBinAddr: 0x10000CBCC, symSize: 0x3C }
  - { offset: 0x25C61, size: 0x8, addend: 0x0, symName: __ZNSt3__119__copy_trivial_implB8ne180100IPNS_10shared_ptrI8TreeNodeEES4_EENS_4pairIPT_PT0_EES7_S7_S9_, symObjAddr: 0xA3F0, symBinAddr: 0x10000CC08, symSize: 0x80 }
  - { offset: 0x25CCA, size: 0x8, addend: 0x0, symName: __ZNSt3__119__constexpr_memmoveB8ne180100IPNS_10shared_ptrI8TreeNodeEES4_Li0EEEPT_S6_PT0_NS_15__element_countE, symObjAddr: 0xA470, symBinAddr: 0x10000CC88, symSize: 0x64 }
  - { offset: 0x25D38, size: 0x8, addend: 0x0, symName: __ZNSt3__19make_pairB8ne180100IRPPNS_10shared_ptrI8TreeNodeEES5_EENS_4pairINS_18__unwrap_ref_decayIT_E4typeENS8_IT0_E4typeEEEOS9_OSC_, symObjAddr: 0xA4D4, symBinAddr: 0x10000CCEC, symSize: 0x38 }
  - { offset: 0x25DDB, size: 0x8, addend: 0x0, symName: __ZNSt3__18distanceB8ne180100INS_13move_iteratorIPPNS_10shared_ptrI8TreeNodeEEEEEENS_15iterator_traitsIT_E15difference_typeES9_S9_, symObjAddr: 0xA73C, symBinAddr: 0x10000CF54, symSize: 0x3C }
  - { offset: 0x25E1F, size: 0x8, addend: 0x0, symName: __ZNSt3__110__distanceB8ne180100INS_13move_iteratorIPPNS_10shared_ptrI8TreeNodeEEEEEENS_15iterator_traitsIT_E15difference_typeES9_S9_NS_26random_access_iterator_tagE, symObjAddr: 0xA940, symBinAddr: 0x10000D158, symSize: 0x30 }
  - { offset: 0x25E6D, size: 0x8, addend: 0x0, symName: __ZNSt3__1miB8ne180100IPPNS_10shared_ptrI8TreeNodeEES5_EEDTmicldtfp_4baseEcldtfp0_4baseEERKNS_13move_iteratorIT_EERKNS7_IT0_EE, symObjAddr: 0xA970, symBinAddr: 0x10000D188, symSize: 0x48 }
  - { offset: 0x25EBD, size: 0x8, addend: 0x0, symName: __ZNSt3__113move_backwardB8ne180100IPPNS_10shared_ptrI8TreeNodeEES5_EET0_T_S7_S6_, symObjAddr: 0xAA78, symBinAddr: 0x10000D290, symSize: 0x40 }
  - { offset: 0x25F18, size: 0x8, addend: 0x0, symName: __ZNSt3__115__move_backwardB8ne180100INS_17_ClassicAlgPolicyEPPNS_10shared_ptrI8TreeNodeEES6_S6_EENS_4pairIT0_T2_EES8_T1_S9_, symObjAddr: 0xAAB8, symBinAddr: 0x10000D2D0, symSize: 0x44 }
  - { offset: 0x25F85, size: 0x8, addend: 0x0, symName: __ZNSt3__123__dispatch_copy_or_moveB8ne180100INS_17_ClassicAlgPolicyENS_20__move_backward_loopIS1_EENS_23__move_backward_trivialEPPNS_10shared_ptrI8TreeNodeEES9_S9_EENS_4pairIT2_T4_EESB_T3_SC_, symObjAddr: 0xAAFC, symBinAddr: 0x10000D314, symSize: 0x44 }
  - { offset: 0x26004, size: 0x8, addend: 0x0, symName: __ZNSt3__121__unwrap_and_dispatchB8ne180100INS_10__overloadINS_20__move_backward_loopINS_17_ClassicAlgPolicyEEENS_23__move_backward_trivialEEEPPNS_10shared_ptrI8TreeNodeEESB_SB_Li0EEENS_4pairIT0_T2_EESD_T1_SE_, symObjAddr: 0xAB40, symBinAddr: 0x10000D358, symSize: 0xB4 }
  - { offset: 0x260D9, size: 0x8, addend: 0x0, symName: __ZNSt3__128__copy_backward_trivial_implB8ne180100IPNS_10shared_ptrI8TreeNodeEES4_EENS_4pairIPT_PT0_EES7_S7_S9_, symObjAddr: 0xAC3C, symBinAddr: 0x10000D454, symSize: 0x90 }
  - { offset: 0x26141, size: 0x8, addend: 0x0, symName: __ZNSt3__19make_pairB8ne180100IRPPNS_10shared_ptrI8TreeNodeEES6_EENS_4pairINS_18__unwrap_ref_decayIT_E4typeENS8_IT0_E4typeEEEOS9_OSC_, symObjAddr: 0xACCC, symBinAddr: 0x10000D4E4, symSize: 0x38 }
  - { offset: 0x26191, size: 0x8, addend: 0x0, symName: __ZNSt3__119__allocate_at_leastB8ne180100INS_9allocatorIPNS_10shared_ptrI8TreeNodeEEEEEENS_19__allocation_resultINS_16allocator_traitsIT_E7pointerEEERS9_m, symObjAddr: 0xAEBC, symBinAddr: 0x10000D6D4, symSize: 0x40 }
  - { offset: 0x261D5, size: 0x8, addend: 0x0, symName: __ZNSt3__112__to_addressB8ne180100IKcEEPT_S3_, symObjAddr: 0xBA58, symBinAddr: 0x10000E270, symSize: 0x14 }
  - { offset: 0x2623E, size: 0x8, addend: 0x0, symName: __ZNSt3__1eqB8ne180100IPKNS_10shared_ptrI8TreeNodeEEEEbRKNS_11__wrap_iterIT_EESA_, symObjAddr: 0xBBA8, symBinAddr: 0x10000E3C0, symSize: 0x48 }
  - { offset: 0x26281, size: 0x8, addend: 0x0, symName: __ZNSt3__1neB8ne180100ERKNS_16__deque_iteratorINS_10shared_ptrI8TreeNodeEEPS3_RS3_PS4_lLl256EEES9_, symObjAddr: 0xBF78, symBinAddr: 0x10000E790, symSize: 0x34 }
  - { offset: 0x262BF, size: 0x8, addend: 0x0, symName: __ZNSt3__1eqB8ne180100ERKNS_16__deque_iteratorINS_10shared_ptrI8TreeNodeEEPS3_RS3_PS4_lLl256EEES9_, symObjAddr: 0xC01C, symBinAddr: 0x10000E834, symSize: 0x30 }
  - { offset: 0x262FD, size: 0x8, addend: 0x0, symName: __ZNSt3__1neB8ne180100IPKNS_12basic_stringIcNS_11char_traitsIcEENS_9allocatorIcEEEEEEbRKNS_11__wrap_iterIT_EESD_, symObjAddr: 0xC23C, symBinAddr: 0x10000EA54, symSize: 0x34 }
  - { offset: 0x26341, size: 0x8, addend: 0x0, symName: __ZNSt3__1eqB8ne180100IPKNS_12basic_stringIcNS_11char_traitsIcEENS_9allocatorIcEEEEEEbRKNS_11__wrap_iterIT_EESD_, symObjAddr: 0xC37C, symBinAddr: 0x10000EB94, symSize: 0x48 }
  - { offset: 0x26384, size: 0x8, addend: 0x0, symName: __ZNSt3__15visitB8ne180100IRZNK3tmw12ValueVariant9ExtractAsINS_12basic_stringIcNS_11char_traitsIcEENS_9allocatorIcEEEELi0EEET_vEUlRKSA_E_JRKNS_7variantIJijxyfdS9_EEEEvEEDcOSA_DpOT0_, symObjAddr: 0xC450, symBinAddr: 0x10000EC68, symSize: 0x40 }
  - { offset: 0x263E0, size: 0x8, addend: 0x0, symName: __ZNSt3__120__throw_if_valuelessB8ne180100IJRKNS_7variantIJijxyfdNS_12basic_stringIcNS_11char_traitsIcEENS_9allocatorIcEEEEEEEEEEvDpOT_, symObjAddr: 0xC490, symBinAddr: 0x10000ECA8, symSize: 0x44 }
  - { offset: 0x26425, size: 0x8, addend: 0x0, symName: __ZNSt3__112__as_variantB8ne180100IJijxyfdNS_12basic_stringIcNS_11char_traitsIcEENS_9allocatorIcEEEEEEERKNS_7variantIJDpT_EEESC_, symObjAddr: 0xC51C, symBinAddr: 0x10000ED34, symSize: 0x14 }
  - { offset: 0x2647D, size: 0x8, addend: 0x0, symName: __ZNSt3__126__throw_bad_variant_accessB8ne180100Ev, symObjAddr: 0xC558, symBinAddr: 0x10000ED70, symSize: 0x38 }
  - { offset: 0x264DD, size: 0x8, addend: 0x0, symName: __ZNSt3__18__invokeB8ne180100INS_16__variant_detail12__visitation9__variant15__value_visitorIRZNK3tmw12ValueVariant9ExtractAsINS_12basic_stringIcNS_11char_traitsIcEENS_9allocatorIcEEEELi0EEET_vEUlRKSE_E_EEJRKNS1_5__altILm0EiEEEEEDTclclsr3stdE7declvalISE_EEspclsr3stdE7declvalIT0_EEEEOSE_DpOSO_, symObjAddr: 0xC95C, symBinAddr: 0x10000F174, symSize: 0x34 }
  - { offset: 0x2652E, size: 0x8, addend: 0x0, symName: __ZNSt3__18__invokeB8ne180100IRZNK3tmw12ValueVariant9ExtractAsINS_12basic_stringIcNS_11char_traitsIcEENS_9allocatorIcEEEELi0EEET_vEUlRKSA_E_JRKiEEEDTclclsr3stdE7declvalISA_EEspclsr3stdE7declvalIT0_EEEEOSA_DpOSH_, symObjAddr: 0xC9DC, symBinAddr: 0x10000F1F4, symSize: 0x34 }
  - { offset: 0x2657F, size: 0x8, addend: 0x0, symName: __ZNSt3__18__invokeB8ne180100INS_16__variant_detail12__visitation9__variant15__value_visitorIRZNK3tmw12ValueVariant9ExtractAsINS_12basic_stringIcNS_11char_traitsIcEENS_9allocatorIcEEEELi0EEET_vEUlRKSE_E_EEJRKNS1_5__altILm1EjEEEEEDTclclsr3stdE7declvalISE_EEspclsr3stdE7declvalIT0_EEEEOSE_DpOSO_, symObjAddr: 0xCA44, symBinAddr: 0x10000F25C, symSize: 0x34 }
  - { offset: 0x265D0, size: 0x8, addend: 0x0, symName: __ZNSt3__18__invokeB8ne180100IRZNK3tmw12ValueVariant9ExtractAsINS_12basic_stringIcNS_11char_traitsIcEENS_9allocatorIcEEEELi0EEET_vEUlRKSA_E_JRKjEEEDTclclsr3stdE7declvalISA_EEspclsr3stdE7declvalIT0_EEEEOSA_DpOSH_, symObjAddr: 0xCAC4, symBinAddr: 0x10000F2DC, symSize: 0x34 }
  - { offset: 0x26621, size: 0x8, addend: 0x0, symName: __ZNSt3__18__invokeB8ne180100INS_16__variant_detail12__visitation9__variant15__value_visitorIRZNK3tmw12ValueVariant9ExtractAsINS_12basic_stringIcNS_11char_traitsIcEENS_9allocatorIcEEEELi0EEET_vEUlRKSE_E_EEJRKNS1_5__altILm2ExEEEEEDTclclsr3stdE7declvalISE_EEspclsr3stdE7declvalIT0_EEEEOSE_DpOSO_, symObjAddr: 0xCB2C, symBinAddr: 0x10000F344, symSize: 0x34 }
  - { offset: 0x26672, size: 0x8, addend: 0x0, symName: __ZNSt3__18__invokeB8ne180100IRZNK3tmw12ValueVariant9ExtractAsINS_12basic_stringIcNS_11char_traitsIcEENS_9allocatorIcEEEELi0EEET_vEUlRKSA_E_JRKxEEEDTclclsr3stdE7declvalISA_EEspclsr3stdE7declvalIT0_EEEEOSA_DpOSH_, symObjAddr: 0xCBAC, symBinAddr: 0x10000F3C4, symSize: 0x34 }
  - { offset: 0x266C3, size: 0x8, addend: 0x0, symName: __ZNSt3__18__invokeB8ne180100INS_16__variant_detail12__visitation9__variant15__value_visitorIRZNK3tmw12ValueVariant9ExtractAsINS_12basic_stringIcNS_11char_traitsIcEENS_9allocatorIcEEEELi0EEET_vEUlRKSE_E_EEJRKNS1_5__altILm3EyEEEEEDTclclsr3stdE7declvalISE_EEspclsr3stdE7declvalIT0_EEEEOSE_DpOSO_, symObjAddr: 0xCC14, symBinAddr: 0x10000F42C, symSize: 0x34 }
  - { offset: 0x26714, size: 0x8, addend: 0x0, symName: __ZNSt3__18__invokeB8ne180100IRZNK3tmw12ValueVariant9ExtractAsINS_12basic_stringIcNS_11char_traitsIcEENS_9allocatorIcEEEELi0EEET_vEUlRKSA_E_JRKyEEEDTclclsr3stdE7declvalISA_EEspclsr3stdE7declvalIT0_EEEEOSA_DpOSH_, symObjAddr: 0xCC94, symBinAddr: 0x10000F4AC, symSize: 0x34 }
  - { offset: 0x26765, size: 0x8, addend: 0x0, symName: __ZNSt3__18__invokeB8ne180100INS_16__variant_detail12__visitation9__variant15__value_visitorIRZNK3tmw12ValueVariant9ExtractAsINS_12basic_stringIcNS_11char_traitsIcEENS_9allocatorIcEEEELi0EEET_vEUlRKSE_E_EEJRKNS1_5__altILm4EfEEEEEDTclclsr3stdE7declvalISE_EEspclsr3stdE7declvalIT0_EEEEOSE_DpOSO_, symObjAddr: 0xCCFC, symBinAddr: 0x10000F514, symSize: 0x34 }
  - { offset: 0x267B6, size: 0x8, addend: 0x0, symName: __ZNSt3__18__invokeB8ne180100IRZNK3tmw12ValueVariant9ExtractAsINS_12basic_stringIcNS_11char_traitsIcEENS_9allocatorIcEEEELi0EEET_vEUlRKSA_E_JRKfEEEDTclclsr3stdE7declvalISA_EEspclsr3stdE7declvalIT0_EEEEOSA_DpOSH_, symObjAddr: 0xCD7C, symBinAddr: 0x10000F594, symSize: 0x34 }
  - { offset: 0x26807, size: 0x8, addend: 0x0, symName: __ZNSt3__18__invokeB8ne180100INS_16__variant_detail12__visitation9__variant15__value_visitorIRZNK3tmw12ValueVariant9ExtractAsINS_12basic_stringIcNS_11char_traitsIcEENS_9allocatorIcEEEELi0EEET_vEUlRKSE_E_EEJRKNS1_5__altILm5EdEEEEEDTclclsr3stdE7declvalISE_EEspclsr3stdE7declvalIT0_EEEEOSE_DpOSO_, symObjAddr: 0xCDE4, symBinAddr: 0x10000F5FC, symSize: 0x34 }
  - { offset: 0x26858, size: 0x8, addend: 0x0, symName: __ZNSt3__18__invokeB8ne180100IRZNK3tmw12ValueVariant9ExtractAsINS_12basic_stringIcNS_11char_traitsIcEENS_9allocatorIcEEEELi0EEET_vEUlRKSA_E_JRKdEEEDTclclsr3stdE7declvalISA_EEspclsr3stdE7declvalIT0_EEEEOSA_DpOSH_, symObjAddr: 0xCE64, symBinAddr: 0x10000F67C, symSize: 0x34 }
  - { offset: 0x268A9, size: 0x8, addend: 0x0, symName: __ZNSt3__18__invokeB8ne180100INS_16__variant_detail12__visitation9__variant15__value_visitorIRZNK3tmw12ValueVariant9ExtractAsINS_12basic_stringIcNS_11char_traitsIcEENS_9allocatorIcEEEELi0EEET_vEUlRKSE_E_EEJRKNS1_5__altILm6ESD_EEEEEDTclclsr3stdE7declvalISE_EEspclsr3stdE7declvalIT0_EEEEOSE_DpOSO_, symObjAddr: 0xCECC, symBinAddr: 0x10000F6E4, symSize: 0x34 }
  - { offset: 0x268FA, size: 0x8, addend: 0x0, symName: __ZNSt3__18__invokeB8ne180100IRZNK3tmw12ValueVariant9ExtractAsINS_12basic_stringIcNS_11char_traitsIcEENS_9allocatorIcEEEELi0EEET_vEUlRKSA_E_JRKS9_EEEDTclclsr3stdE7declvalISA_EEspclsr3stdE7declvalIT0_EEEEOSA_DpOSH_, symObjAddr: 0xCF4C, symBinAddr: 0x10000F764, symSize: 0x34 }
  - { offset: 0x2694C, size: 0x8, addend: 0x0, symName: __ZNSt3__118__constexpr_strlenB8ne180100EPKc, symObjAddr: 0xD22C, symBinAddr: 0x10000FA44, symSize: 0x24 }
  - { offset: 0x26979, size: 0x8, addend: 0x0, symName: __ZNSt3__134__libcpp_atomic_refcount_decrementB8ne180100IlEET_RS1_, symObjAddr: 0xD35C, symBinAddr: 0x10000FB74, symSize: 0x30 }
  - { offset: 0x269AE, size: 0x8, addend: 0x0, symName: __ZNSt3__116__pad_and_outputB8ne180100IcNS_11char_traitsIcEEEENS_19ostreambuf_iteratorIT_T0_EES6_PKS4_S8_S8_RNS_8ios_baseES4_, symObjAddr: 0xD594, symBinAddr: 0x10000FDAC, symSize: 0x240 }
  - { offset: 0x26A7E, size: 0x8, addend: 0x0, symName: __ZNSt3__112__to_addressB8ne180100IcEEPT_S2_, symObjAddr: 0xDA04, symBinAddr: 0x10001021C, symSize: 0x14 }
  - { offset: 0x26AE7, size: 0x8, addend: 0x0, symName: __ZNSt3__19use_facetB8ne180100INS_5ctypeIcEEEERKT_RKNS_6localeE, symObjAddr: 0xDC4C, symBinAddr: 0x100010464, symSize: 0x2C }
  - { offset: 0x26FB5, size: 0x8, addend: 0x0, symName: __ZNSt3__14moveB8ne180100INS_11__wrap_iterIPN8nlohmann16json_abi_v3_11_210basic_jsonINS_3mapENS_6vectorENS_12basic_stringIcNS_11char_traitsIcEENS_9allocatorIcEEEEbxydSA_NS3_14adl_serializerENS6_IhNSA_IhEEEEEEEENS_20back_insert_iteratorINS6_ISG_NSA_ISG_EEEEEEEET0_T_SO_SN_, symObjAddr: 0xE4E8, symBinAddr: 0x100010D00, symSize: 0x60 }
  - { offset: 0x27010, size: 0x8, addend: 0x0, symName: __ZNSt3__113back_inserterB8ne180100INS_6vectorIN8nlohmann16json_abi_v3_11_210basic_jsonINS_3mapES1_NS_12basic_stringIcNS_11char_traitsIcEENS_9allocatorIcEEEEbxydS9_NS3_14adl_serializerENS1_IhNS9_IhEEEEEENS9_ISF_EEEEEENS_20back_insert_iteratorIT_EERSJ_, symObjAddr: 0xE5A8, symBinAddr: 0x100010DC0, symSize: 0x2C }
  - { offset: 0x27045, size: 0x8, addend: 0x0, symName: __ZNSt3__1neB8ne180100ERKNS_14__map_iteratorINS_15__tree_iteratorINS_12__value_typeINS_12basic_stringIcNS_11char_traitsIcEENS_9allocatorIcEEEEN8nlohmann16json_abi_v3_11_210basic_jsonINS_3mapENS_6vectorES8_bxydS6_NSA_14adl_serializerENSD_IhNS6_IhEEEEEEEEPNS_11__tree_nodeISI_PvEElEEEESQ_, symObjAddr: 0xE66C, symBinAddr: 0x100010E84, symSize: 0x30 }
  - { offset: 0x27860, size: 0x8, addend: 0x0, symName: __ZNSt3__119__allocate_at_leastB8ne180100INS_9allocatorIN8nlohmann16json_abi_v3_11_210basic_jsonINS_3mapENS_6vectorENS_12basic_stringIcNS_11char_traitsIcEENS1_IcEEEEbxydS1_NS3_14adl_serializerENS6_IhNS1_IhEEEEEEEEEENS_19__allocation_resultINS_16allocator_traitsIT_E7pointerEEERSJ_m, symObjAddr: 0xF124, symBinAddr: 0x10001193C, symSize: 0x40 }
  - { offset: 0x278A3, size: 0x8, addend: 0x0, symName: __ZNSt3__142__uninitialized_allocator_move_if_noexceptB8ne180100INS_9allocatorIN8nlohmann16json_abi_v3_11_210basic_jsonINS_3mapENS_6vectorENS_12basic_stringIcNS_11char_traitsIcEENS1_IcEEEEbxydS1_NS3_14adl_serializerENS6_IhNS1_IhEEEEEEEENS_16reverse_iteratorIPSF_EESJ_SJ_EET2_RT_T0_T1_SK_, symObjAddr: 0xF2FC, symBinAddr: 0x100011B14, symSize: 0x12C }
  - { offset: 0x27944, size: 0x8, addend: 0x0, symName: __ZNSt3__14swapB8ne180100IPN8nlohmann16json_abi_v3_11_210basic_jsonINS_3mapENS_6vectorENS_12basic_stringIcNS_11char_traitsIcEENS_9allocatorIcEEEEbxydS9_NS2_14adl_serializerENS5_IhNS9_IhEEEEEEEENS_9enable_ifIXaasr21is_move_constructibleIT_EE5valuesr18is_move_assignableISI_EE5valueEvE4typeERSI_SL_, symObjAddr: 0xF474, symBinAddr: 0x100011C8C, symSize: 0x3C }
  - { offset: 0x27996, size: 0x8, addend: 0x0, symName: __ZNSt3__122__make_exception_guardB8ne180100INS_29_AllocatorDestroyRangeReverseINS_9allocatorIN8nlohmann16json_abi_v3_11_210basic_jsonINS_3mapENS_6vectorENS_12basic_stringIcNS_11char_traitsIcEENS2_IcEEEEbxydS2_NS4_14adl_serializerENS7_IhNS2_IhEEEEEEEENS_16reverse_iteratorIPSG_EEEEEENS_28__exception_guard_exceptionsIT_EESN_, symObjAddr: 0xF4EC, symBinAddr: 0x100011D04, symSize: 0x4C }
  - { offset: 0x279CD, size: 0x8, addend: 0x0, symName: __ZNSt3__1neB8ne180100IPN8nlohmann16json_abi_v3_11_210basic_jsonINS_3mapENS_6vectorENS_12basic_stringIcNS_11char_traitsIcEENS_9allocatorIcEEEEbxydS9_NS2_14adl_serializerENS5_IhNS9_IhEEEEEESG_EEbRKNS_16reverse_iteratorIT_EERKNSH_IT0_EE, symObjAddr: 0xF57C, symBinAddr: 0x100011D94, symSize: 0x48 }
  - { offset: 0x27A1A, size: 0x8, addend: 0x0, symName: __ZNSt3__112__to_addressB8ne180100INS_16reverse_iteratorIPN8nlohmann16json_abi_v3_11_210basic_jsonINS_3mapENS_6vectorENS_12basic_stringIcNS_11char_traitsIcEENS_9allocatorIcEEEEbxydSA_NS3_14adl_serializerENS6_IhNSA_IhEEEEEEEEvEEu7__decayIDTclsr19__to_address_helperIT_EE6__callclsr3stdE7declvalIRKSJ_EEEEESL_, symObjAddr: 0xF5F8, symBinAddr: 0x100011E10, symSize: 0x24 }
  - { offset: 0x27A7B, size: 0x8, addend: 0x0, symName: __ZNSt3__112__to_addressB8ne180100IN8nlohmann16json_abi_v3_11_210basic_jsonINS_3mapENS_6vectorENS_12basic_stringIcNS_11char_traitsIcEENS_9allocatorIcEEEEbxydS9_NS2_14adl_serializerENS5_IhNS9_IhEEEEEEEEPT_SH_, symObjAddr: 0xF7B0, symBinAddr: 0x100011FC8, symSize: 0x14 }
  - { offset: 0x27AB1, size: 0x8, addend: 0x0, symName: __ZNSt3__119__allocator_destroyB8ne180100INS_9allocatorIN8nlohmann16json_abi_v3_11_210basic_jsonINS_3mapENS_6vectorENS_12basic_stringIcNS_11char_traitsIcEENS1_IcEEEEbxydS1_NS3_14adl_serializerENS6_IhNS1_IhEEEEEEEENS_16reverse_iteratorINSH_IPSF_EEEESK_EEvRT_T0_T1_, symObjAddr: 0xF8EC, symBinAddr: 0x100012104, symSize: 0x70 }
  - { offset: 0x27B17, size: 0x8, addend: 0x0, symName: __ZNSt3__1neB8ne180100INS_16reverse_iteratorIPN8nlohmann16json_abi_v3_11_210basic_jsonINS_3mapENS_6vectorENS_12basic_stringIcNS_11char_traitsIcEENS_9allocatorIcEEEEbxydSA_NS3_14adl_serializerENS6_IhNSA_IhEEEEEEEESI_EEbRKNS1_IT_EERKNS1_IT0_EE, symObjAddr: 0xF998, symBinAddr: 0x1000121B0, symSize: 0x60 }
  - { offset: 0x27B64, size: 0x8, addend: 0x0, symName: __ZNSt3__112__to_addressB8ne180100INS_16reverse_iteratorINS1_IPN8nlohmann16json_abi_v3_11_210basic_jsonINS_3mapENS_6vectorENS_12basic_stringIcNS_11char_traitsIcEENS_9allocatorIcEEEEbxydSA_NS3_14adl_serializerENS6_IhNSA_IhEEEEEEEEEEvEEu7__decayIDTclsr19__to_address_helperIT_EE6__callclsr3stdE7declvalIRKSK_EEEEESM_, symObjAddr: 0xFA24, symBinAddr: 0x10001223C, symSize: 0x24 }
  - { offset: 0x27BC5, size: 0x8, addend: 0x0, symName: __ZNSt3__16__moveB8ne180100INS_17_ClassicAlgPolicyENS_11__wrap_iterIPN8nlohmann16json_abi_v3_11_210basic_jsonINS_3mapENS_6vectorENS_12basic_stringIcNS_11char_traitsIcEENS_9allocatorIcEEEEbxydSB_NS4_14adl_serializerENS7_IhNSB_IhEEEEEEEESJ_NS_20back_insert_iteratorINS7_ISH_NSB_ISH_EEEEEEEENS_4pairIT0_T2_EESP_T1_SQ_, symObjAddr: 0xFE4C, symBinAddr: 0x100012664, symSize: 0x5C }
  - { offset: 0x27C32, size: 0x8, addend: 0x0, symName: __ZNSt3__123__dispatch_copy_or_moveB8ne180100INS_17_ClassicAlgPolicyENS_11__move_loopIS1_EENS_14__move_trivialENS_11__wrap_iterIPN8nlohmann16json_abi_v3_11_210basic_jsonINS_3mapENS_6vectorENS_12basic_stringIcNS_11char_traitsIcEENS_9allocatorIcEEEEbxydSE_NS7_14adl_serializerENSA_IhNSE_IhEEEEEEEESM_NS_20back_insert_iteratorINSA_ISK_NSE_ISK_EEEEEEEENS_4pairIT2_T4_EESS_T3_ST_, symObjAddr: 0xFEA8, symBinAddr: 0x1000126C0, symSize: 0x5C }
  - { offset: 0x27CB1, size: 0x8, addend: 0x0, symName: __ZNSt3__121__unwrap_and_dispatchB8ne180100INS_10__overloadINS_11__move_loopINS_17_ClassicAlgPolicyEEENS_14__move_trivialEEENS_11__wrap_iterIPN8nlohmann16json_abi_v3_11_210basic_jsonINS_3mapENS_6vectorENS_12basic_stringIcNS_11char_traitsIcEENS_9allocatorIcEEEEbxydSG_NS9_14adl_serializerENSC_IhNSG_IhEEEEEEEESO_NS_20back_insert_iteratorINSC_ISM_NSG_ISM_EEEEEELi0EEENS_4pairIT0_T2_EESU_T1_SV_, symObjAddr: 0xFF04, symBinAddr: 0x10001271C, symSize: 0xE8 }
  - { offset: 0x27D41, size: 0x8, addend: 0x0, symName: __ZNSt3__114__unwrap_rangeB8ne180100INS_11__wrap_iterIPN8nlohmann16json_abi_v3_11_210basic_jsonINS_3mapENS_6vectorENS_12basic_stringIcNS_11char_traitsIcEENS_9allocatorIcEEEEbxydSA_NS3_14adl_serializerENS6_IhNSA_IhEEEEEEEESH_EENS_4pairIT0_SK_EET_SM_, symObjAddr: 0xFFEC, symBinAddr: 0x100012804, symSize: 0x70 }
  - { offset: 0x27F7A, size: 0x8, addend: 0x0, symName: __ZNSt3__113__unwrap_iterB8ne180100INS_20back_insert_iteratorINS_6vectorIN8nlohmann16json_abi_v3_11_210basic_jsonINS_3mapES2_NS_12basic_stringIcNS_11char_traitsIcEENS_9allocatorIcEEEEbxydSA_NS4_14adl_serializerENS2_IhNSA_IhEEEEEENSA_ISG_EEEEEENS_18__unwrap_iter_implISJ_Lb0EEELi0EEEDTclsrT0_8__unwrapclsr3stdE7declvalIT_EEEESN_, symObjAddr: 0x100F4, symBinAddr: 0x10001290C, symSize: 0x34 }
  - { offset: 0x27FBE, size: 0x8, addend: 0x0, symName: __ZNSt3__19make_pairB8ne180100INS_11__wrap_iterIPN8nlohmann16json_abi_v3_11_210basic_jsonINS_3mapENS_6vectorENS_12basic_stringIcNS_11char_traitsIcEENS_9allocatorIcEEEEbxydSA_NS3_14adl_serializerENS6_IhNSA_IhEEEEEEEENS_20back_insert_iteratorINS6_ISG_NSA_ISG_EEEEEEEENS_4pairINS_18__unwrap_ref_decayIT_E4typeENSO_IT0_E4typeEEEOSP_OSS_, symObjAddr: 0x10128, symBinAddr: 0x100012940, symSize: 0x38 }
  - { offset: 0x2800E, size: 0x8, addend: 0x0, symName: __ZNSt3__114__rewrap_rangeB8ne180100INS_11__wrap_iterIPN8nlohmann16json_abi_v3_11_210basic_jsonINS_3mapENS_6vectorENS_12basic_stringIcNS_11char_traitsIcEENS_9allocatorIcEEEEbxydSA_NS3_14adl_serializerENS6_IhNSA_IhEEEEEEEESH_EET_SJ_T0_, symObjAddr: 0x10160, symBinAddr: 0x100012978, symSize: 0x3C }
  - { offset: 0x2805B, size: 0x8, addend: 0x0, symName: __ZNSt3__113__rewrap_iterB8ne180100INS_20back_insert_iteratorINS_6vectorIN8nlohmann16json_abi_v3_11_210basic_jsonINS_3mapES2_NS_12basic_stringIcNS_11char_traitsIcEENS_9allocatorIcEEEEbxydSA_NS4_14adl_serializerENS2_IhNSA_IhEEEEEENSA_ISG_EEEEEESJ_NS_18__unwrap_iter_implISJ_Lb0EEEEET_SM_T0_, symObjAddr: 0x1019C, symBinAddr: 0x1000129B4, symSize: 0x54 }
  - { offset: 0x280B0, size: 0x8, addend: 0x0, symName: __ZNSt3__19make_pairB8ne180100IPN8nlohmann16json_abi_v3_11_210basic_jsonINS_3mapENS_6vectorENS_12basic_stringIcNS_11char_traitsIcEENS_9allocatorIcEEEEbxydS9_NS2_14adl_serializerENS5_IhNS9_IhEEEEEESG_EENS_4pairINS_18__unwrap_ref_decayIT_E4typeENSI_IT0_E4typeEEEOSJ_OSM_, symObjAddr: 0x101F0, symBinAddr: 0x100012A08, symSize: 0x38 }
  - { offset: 0x28100, size: 0x8, addend: 0x0, symName: __ZNSt3__113__unwrap_iterB8ne180100INS_11__wrap_iterIPN8nlohmann16json_abi_v3_11_210basic_jsonINS_3mapENS_6vectorENS_12basic_stringIcNS_11char_traitsIcEENS_9allocatorIcEEEEbxydSA_NS3_14adl_serializerENS6_IhNSA_IhEEEEEEEENS_18__unwrap_iter_implISI_Lb1EEELi0EEEDTclsrT0_8__unwrapclsr3stdE7declvalIT_EEEESM_, symObjAddr: 0x10228, symBinAddr: 0x100012A40, symSize: 0x2C }
  - { offset: 0x2826C, size: 0x8, addend: 0x0, symName: __ZNSt3__112__to_addressB8ne180100INS_11__wrap_iterIPN8nlohmann16json_abi_v3_11_210basic_jsonINS_3mapENS_6vectorENS_12basic_stringIcNS_11char_traitsIcEENS_9allocatorIcEEEEbxydSA_NS3_14adl_serializerENS6_IhNSA_IhEEEEEEEEvEEu7__decayIDTclsr19__to_address_helperIT_EE6__callclsr3stdE7declvalIRKSJ_EEEEESL_, symObjAddr: 0x102EC, symBinAddr: 0x100012B04, symSize: 0x24 }
  - { offset: 0x28432, size: 0x8, addend: 0x0, symName: __ZNSt3__19make_pairB8ne180100IPN8nlohmann16json_abi_v3_11_210basic_jsonINS_3mapENS_6vectorENS_12basic_stringIcNS_11char_traitsIcEENS_9allocatorIcEEEEbxydS9_NS2_14adl_serializerENS5_IhNS9_IhEEEEEENS_20back_insert_iteratorINS5_ISF_NS9_ISF_EEEEEEEENS_4pairINS_18__unwrap_ref_decayIT_E4typeENSM_IT0_E4typeEEEOSN_OSQ_, symObjAddr: 0x1040C, symBinAddr: 0x100012C24, symSize: 0x38 }
  - { offset: 0x2859E, size: 0x8, addend: 0x0, symName: __ZNSt3__113__rewrap_iterB8ne180100INS_11__wrap_iterIPN8nlohmann16json_abi_v3_11_210basic_jsonINS_3mapENS_6vectorENS_12basic_stringIcNS_11char_traitsIcEENS_9allocatorIcEEEEbxydSA_NS3_14adl_serializerENS6_IhNSA_IhEEEEEEEESH_NS_18__unwrap_iter_implISI_Lb1EEEEET_SL_T0_, symObjAddr: 0x10544, symBinAddr: 0x100012D5C, symSize: 0x4C }
  - { offset: 0x28626, size: 0x8, addend: 0x0, symName: __ZNSt3__1neB8ne180100ERKNS_15__tree_iteratorINS_12__value_typeINS_12basic_stringIcNS_11char_traitsIcEENS_9allocatorIcEEEEN8nlohmann16json_abi_v3_11_210basic_jsonINS_3mapENS_6vectorES7_bxydS5_NS9_14adl_serializerENSC_IhNS5_IhEEEEEEEEPNS_11__tree_nodeISH_PvEElEESO_, symObjAddr: 0x10930, symBinAddr: 0x100013148, symSize: 0x34 }
  - { offset: 0x28664, size: 0x8, addend: 0x0, symName: __ZNSt3__1eqB8ne180100ERKNS_15__tree_iteratorINS_12__value_typeINS_12basic_stringIcNS_11char_traitsIcEENS_9allocatorIcEEEEN8nlohmann16json_abi_v3_11_210basic_jsonINS_3mapENS_6vectorES7_bxydS5_NS9_14adl_serializerENSC_IhNS5_IhEEEEEEEEPNS_11__tree_nodeISH_PvEElEESO_, symObjAddr: 0x10964, symBinAddr: 0x10001317C, symSize: 0x30 }
  - { offset: 0x286D4, size: 0x8, addend: 0x0, symName: __ZNSt3__17launderB8ne180100INS_4pairIKNS_12basic_stringIcNS_11char_traitsIcEENS_9allocatorIcEEEEN8nlohmann16json_abi_v3_11_210basic_jsonINS_3mapENS_6vectorES7_bxydS5_NSA_14adl_serializerENSD_IhNS5_IhEEEEEEEEEEPT_SK_, symObjAddr: 0x10A10, symBinAddr: 0x100013228, symSize: 0x24 }
  - { offset: 0x2870C, size: 0x8, addend: 0x0, symName: __ZNSt3__19__launderB8ne180100INS_4pairIKNS_12basic_stringIcNS_11char_traitsIcEENS_9allocatorIcEEEEN8nlohmann16json_abi_v3_11_210basic_jsonINS_3mapENS_6vectorES7_bxydS5_NSA_14adl_serializerENSD_IhNS5_IhEEEEEEEEEEPT_SK_, symObjAddr: 0x10A34, symBinAddr: 0x10001324C, symSize: 0x14 }
  - { offset: 0x28744, size: 0x8, addend: 0x0, symName: __ZNSt3__116__tree_next_iterB8ne180100IPNS_15__tree_end_nodeIPNS_16__tree_node_baseIPvEEEES5_EET_T0_, symObjAddr: 0x10D78, symBinAddr: 0x100013590, symSize: 0x90 }
  - { offset: 0x28783, size: 0x8, addend: 0x0, symName: __ZNSt3__110__tree_minB8ne180100IPNS_16__tree_node_baseIPvEEEET_S5_, symObjAddr: 0x10E08, symBinAddr: 0x100013620, symSize: 0x40 }
  - { offset: 0x287B9, size: 0x8, addend: 0x0, symName: __ZNSt3__120__tree_is_left_childB8ne180100IPNS_16__tree_node_baseIPvEEEEbT_, symObjAddr: 0x10E48, symBinAddr: 0x100013660, symSize: 0x2C }
  - { offset: 0x287EE, size: 0x8, addend: 0x0, symName: __ZNSt3__112__destroy_atB8ne180100INS_4pairIKNS_12basic_stringIcNS_11char_traitsIcEENS_9allocatorIcEEEEN8nlohmann16json_abi_v3_11_210basic_jsonINS_3mapENS_6vectorES7_bxydS5_NSA_14adl_serializerENSD_IhNS5_IhEEEEEEEELi0EEEvPT_, symObjAddr: 0x1128C, symBinAddr: 0x100013AA4, symSize: 0x24 }
  - { offset: 0x28826, size: 0x8, addend: 0x0, symName: __ZNSt3__112__to_addressB8ne180100IhEEPT_S2_, symObjAddr: 0x11B34, symBinAddr: 0x10001434C, symSize: 0x14 }
  - { offset: 0x2885C, size: 0x8, addend: 0x0, symName: __ZNSt3__112__to_addressB8ne180100INS_12basic_stringIcNS_11char_traitsIcEENS_9allocatorIcEEEEEEPT_S8_, symObjAddr: 0x11ECC, symBinAddr: 0x1000146E4, symSize: 0x14 }
  - { offset: 0x28C88, size: 0x8, addend: 0x0, symName: __ZNSt3__1neB8ne180100INS_3mapINS_12basic_stringIcNS_11char_traitsIcEENS_9allocatorIcEEEEN8nlohmann16json_abi_v3_11_210basic_jsonIS1_NS_6vectorES7_bxydS5_NS9_14adl_serializerENSB_IhNS5_IhEEEEEENS_4lessIvEENS5_INS_4pairIKS7_SF_EEEEEEZNSF_6createISM_JEEEPT_DpOT0_EUlPSM_E_EEbRKNS_10unique_ptrISO_T0_EEDn, symObjAddr: 0x129B0, symBinAddr: 0x1000151C8, symSize: 0x2C }
  - { offset: 0x290CB, size: 0x8, addend: 0x0, symName: __ZNSt3__1neB8ne180100INS_6vectorIN8nlohmann16json_abi_v3_11_210basic_jsonINS_3mapES1_NS_12basic_stringIcNS_11char_traitsIcEENS_9allocatorIcEEEEbxydS9_NS3_14adl_serializerENS1_IhNS9_IhEEEEEENS9_ISF_EEEEZNSF_6createISH_JEEEPT_DpOT0_EUlPSH_E_EEbRKNS_10unique_ptrISJ_T0_EEDn, symObjAddr: 0x131D0, symBinAddr: 0x1000159E8, symSize: 0x2C }
  - { offset: 0x2945A, size: 0x8, addend: 0x0, symName: __ZNSt3__1neB8ne180100INS_12basic_stringIcNS_11char_traitsIcEENS_9allocatorIcEEEEZN8nlohmann16json_abi_v3_11_210basic_jsonINS_3mapENS_6vectorES6_bxydS4_NS8_14adl_serializerENSB_IhNS4_IhEEEEE6createIS6_JRA1_KcEEEPT_DpOT0_EUlPS6_E_EEbRKNS_10unique_ptrISK_T0_EEDn, symObjAddr: 0x136C8, symBinAddr: 0x100015EE0, symSize: 0x2C }
  - { offset: 0x2989D, size: 0x8, addend: 0x0, symName: __ZNSt3__1neB8ne180100IN8nlohmann16json_abi_v3_11_227byte_container_with_subtypeINS_6vectorIhNS_9allocatorIhEEEEEEZNS2_10basic_jsonINS_3mapES4_NS_12basic_stringIcNS_11char_traitsIcEENS5_IcEEEEbxydS5_NS2_14adl_serializerES7_E6createIS8_JEEEPT_DpOT0_EUlPS8_E_EEbRKNS_10unique_ptrISJ_T0_EEDn, symObjAddr: 0x13BAC, symBinAddr: 0x1000163C4, symSize: 0x2C }
  - { offset: 0x29E78, size: 0x8, addend: 0x0, symName: __ZNSt3__119__allocate_at_leastB8ne180100INS_9allocatorIcEEEENS_19__allocation_resultINS_16allocator_traitsIT_E7pointerEEERS5_m, symObjAddr: 0x18808, symBinAddr: 0x10001B020, symSize: 0x40 }
  - { offset: 0x29EBB, size: 0x8, addend: 0x0, symName: __ZNSt3__142__uninitialized_allocator_move_if_noexceptB8ne180100INS_9allocatorIcEENS_16reverse_iteratorIPcEES5_cvEET1_RT_T0_S9_S6_, symObjAddr: 0x189CC, symBinAddr: 0x10001B1E4, symSize: 0x78 }
  - { offset: 0x29F3A, size: 0x8, addend: 0x0, symName: __ZNSt3__14swapB8ne180100IPcEENS_9enable_ifIXaasr21is_move_constructibleIT_EE5valuesr18is_move_assignableIS3_EE5valueEvE4typeERS3_S6_, symObjAddr: 0x18A90, symBinAddr: 0x10001B2A8, symSize: 0x3C }
  - { offset: 0x29F8C, size: 0x8, addend: 0x0, symName: __ZNSt3__14moveB8ne180100INS_16reverse_iteratorIPcEES3_EET0_T_S5_S4_, symObjAddr: 0x18AE0, symBinAddr: 0x10001B2F8, symSize: 0x78 }
  - { offset: 0x29FE7, size: 0x8, addend: 0x0, symName: __ZNSt3__16__moveB8ne180100INS_17_ClassicAlgPolicyENS_16reverse_iteratorIPcEES4_S4_EENS_4pairIT0_T2_EES6_T1_S7_, symObjAddr: 0x18B58, symBinAddr: 0x10001B370, symSize: 0x64 }
  - { offset: 0x2A054, size: 0x8, addend: 0x0, symName: __ZNSt3__123__dispatch_copy_or_moveB8ne180100INS_17_ClassicAlgPolicyENS_11__move_loopIS1_EENS_14__move_trivialENS_16reverse_iteratorIPcEES7_S7_EENS_4pairIT2_T4_EES9_T3_SA_, symObjAddr: 0x18BBC, symBinAddr: 0x10001B3D4, symSize: 0x64 }
  - { offset: 0x2A0D3, size: 0x8, addend: 0x0, symName: __ZNSt3__121__unwrap_and_dispatchB8ne180100INS_10__overloadINS_11__move_loopINS_17_ClassicAlgPolicyEEENS_14__move_trivialEEENS_16reverse_iteratorIPcEES9_S9_Li0EEENS_4pairIT0_T2_EESB_T1_SC_, symObjAddr: 0x18C20, symBinAddr: 0x10001B438, symSize: 0x12C }
  - { offset: 0x2A164, size: 0x8, addend: 0x0, symName: __ZNSt3__114__unwrap_rangeB8ne180100INS_16reverse_iteratorIPcEES3_EENS_4pairIT0_S5_EET_S7_, symObjAddr: 0x18D4C, symBinAddr: 0x10001B564, symSize: 0x84 }
  - { offset: 0x2A285, size: 0x8, addend: 0x0, symName: __ZNSt3__113__unwrap_iterB8ne180100INS_16reverse_iteratorIPcEENS_18__unwrap_iter_implIS3_Lb0EEELi0EEEDTclsrT0_8__unwrapclsr3stdE7declvalIT_EEEES7_, symObjAddr: 0x18E70, symBinAddr: 0x10001B688, symSize: 0x44 }
  - { offset: 0x2A2C9, size: 0x8, addend: 0x0, symName: __ZNSt3__19make_pairB8ne180100INS_16reverse_iteratorIPcEES3_EENS_4pairINS_18__unwrap_ref_decayIT_E4typeENS5_IT0_E4typeEEEOS6_OS9_, symObjAddr: 0x18EB4, symBinAddr: 0x10001B6CC, symSize: 0x38 }
  - { offset: 0x2A319, size: 0x8, addend: 0x0, symName: __ZNSt3__114__rewrap_rangeB8ne180100INS_16reverse_iteratorIPcEES3_EET_S4_T0_, symObjAddr: 0x18EEC, symBinAddr: 0x10001B704, symSize: 0x5C }
  - { offset: 0x2A366, size: 0x8, addend: 0x0, symName: __ZNSt3__113__rewrap_iterB8ne180100INS_16reverse_iteratorIPcEES3_NS_18__unwrap_iter_implIS3_Lb0EEEEET_S6_T0_, symObjAddr: 0x18F48, symBinAddr: 0x10001B760, symSize: 0x74 }
  - { offset: 0x2A3BC, size: 0x8, addend: 0x0, symName: __ZNSt3__1neB8ne180100IPcS1_EEbRKNS_16reverse_iteratorIT_EERKNS2_IT0_EE, symObjAddr: 0x18FBC, symBinAddr: 0x10001B7D4, symSize: 0x48 }
  - { offset: 0x2A648, size: 0x8, addend: 0x0, symName: __ZNSt3__119__allocate_at_leastB8ne180100INS_9allocatorImEEEENS_19__allocation_resultINS_16allocator_traitsIT_E7pointerEEERS5_m, symObjAddr: 0x1E030, symBinAddr: 0x100020848, symSize: 0x40 }
  - { offset: 0x2A68C, size: 0x8, addend: 0x0, symName: __ZNSt3__16__copyB8ne180100INS_17_ClassicAlgPolicyENS_14__bit_iteratorINS_6vectorIbNS_9allocatorIbEEEELb0ELm0EEES7_S7_EENS_4pairIT0_T2_EES9_T1_SA_, symObjAddr: 0x1E198, symBinAddr: 0x1000209B0, symSize: 0x88 }
  - { offset: 0x2A6FC, size: 0x8, addend: 0x0, symName: __ZNSt3__123__dispatch_copy_or_moveB8ne180100INS_17_ClassicAlgPolicyENS_11__copy_loopIS1_EENS_14__copy_trivialENS_14__bit_iteratorINS_6vectorIbNS_9allocatorIbEEEELb0ELm0EEESA_SA_EENS_4pairIT2_T4_EESC_T3_SD_, symObjAddr: 0x1E2B8, symBinAddr: 0x100020AD0, symSize: 0x88 }
  - { offset: 0x2A77E, size: 0x8, addend: 0x0, symName: __ZNSt3__121__unwrap_and_dispatchB8ne180100INS_10__overloadINS_11__copy_loopINS_17_ClassicAlgPolicyEEENS_14__copy_trivialEEENS_14__bit_iteratorINS_6vectorIbNS_9allocatorIbEEEELb0ELm0EEESC_SC_Li0EEENS_4pairIT0_T2_EESE_T1_SF_, symObjAddr: 0x1E340, symBinAddr: 0x100020B58, symSize: 0x15C }
  - { offset: 0x2A812, size: 0x8, addend: 0x0, symName: __ZNSt3__114__unwrap_rangeB8ne180100INS_14__bit_iteratorINS_6vectorIbNS_9allocatorIbEEEELb0ELm0EEES6_EENS_4pairIT0_S8_EET_SA_, symObjAddr: 0x1E49C, symBinAddr: 0x100020CB4, symSize: 0x8C }
  - { offset: 0x2A987, size: 0x8, addend: 0x0, symName: __ZNSt3__113__unwrap_iterB8ne180100INS_14__bit_iteratorINS_6vectorIbNS_9allocatorIbEEEELb0ELm0EEENS_18__unwrap_iter_implIS6_Lb0EEELi0EEEDTclsrT0_8__unwrapclsr3stdE7declvalIT_EEEESA_, symObjAddr: 0x1E5E0, symBinAddr: 0x100020DF8, symSize: 0x44 }
  - { offset: 0x2A9CC, size: 0x8, addend: 0x0, symName: __ZNSt3__19make_pairB8ne180100INS_14__bit_iteratorINS_6vectorIbNS_9allocatorIbEEEELb0ELm0EEES6_EENS_4pairINS_18__unwrap_ref_decayIT_E4typeENS8_IT0_E4typeEEEOS9_OSC_, symObjAddr: 0x1E624, symBinAddr: 0x100020E3C, symSize: 0x40 }
  - { offset: 0x2AA1C, size: 0x8, addend: 0x0, symName: __ZNSt3__114__rewrap_rangeB8ne180100INS_14__bit_iteratorINS_6vectorIbNS_9allocatorIbEEEELb0ELm0EEES6_EET_S7_T0_, symObjAddr: 0x1E664, symBinAddr: 0x100020E7C, symSize: 0x6C }
  - { offset: 0x2AA6B, size: 0x8, addend: 0x0, symName: __ZNSt3__113__rewrap_iterB8ne180100INS_14__bit_iteratorINS_6vectorIbNS_9allocatorIbEEEELb0ELm0EEES6_NS_18__unwrap_iter_implIS6_Lb0EEEEET_S9_T0_, symObjAddr: 0x1E6D0, symBinAddr: 0x100020EE8, symSize: 0x74 }
  - { offset: 0x2AAC2, size: 0x8, addend: 0x0, symName: __ZNSt3__1neB8ne180100ERKNS_14__bit_iteratorINS_6vectorIbNS_9allocatorIbEEEELb0ELm0EEES7_, symObjAddr: 0x1E744, symBinAddr: 0x100020F5C, symSize: 0x34 }
  - { offset: 0x2AB00, size: 0x8, addend: 0x0, symName: __ZNSt3__1eqB8ne180100ERKNS_14__bit_iteratorINS_6vectorIbNS_9allocatorIbEEEELb0ELm0EEES7_, symObjAddr: 0x1E858, symBinAddr: 0x100021070, symSize: 0x64 }
  - { offset: 0x2AB86, size: 0x8, addend: 0x0, symName: __ZNSt3__14swapB8ne180100IPmEENS_9enable_ifIXaasr21is_move_constructibleIT_EE5valuesr18is_move_assignableIS3_EE5valueEvE4typeERS3_S6_, symObjAddr: 0x1EAE0, symBinAddr: 0x1000212F8, symSize: 0x3C }
  - { offset: 0x2ABD8, size: 0x8, addend: 0x0, symName: __ZNSt3__14swapB8ne180100ImEENS_9enable_ifIXaasr21is_move_constructibleIT_EE5valuesr18is_move_assignableIS2_EE5valueEvE4typeERS2_S5_, symObjAddr: 0x1EB1C, symBinAddr: 0x100021334, symSize: 0x3C }
  - { offset: 0x2AC2A, size: 0x8, addend: 0x0, symName: __ZNSt3__116__swap_allocatorB8ne180100INS_9allocatorImEEEEvRT_S4_NS_17integral_constantIbLb0EEE, symObjAddr: 0x1EB58, symBinAddr: 0x100021370, symSize: 0x14 }
  - { offset: 0x2AC6F, size: 0x8, addend: 0x0, symName: __ZNSt3__112__to_addressB8ne180100IPN8nlohmann16json_abi_v3_11_210basic_jsonINS_3mapENS_6vectorENS_12basic_stringIcNS_11char_traitsIcEENS_9allocatorIcEEEEbxydS9_NS2_14adl_serializerENS5_IhNS9_IhEEEEEEEEPT_SI_, symObjAddr: 0x1F024, symBinAddr: 0x10002183C, symSize: 0x14 }
  - { offset: 0x2ACAA, size: 0x8, addend: 0x0, symName: __ZNSt3__16__math8isfiniteB8ne180100IdLi0EEEbT_, symObjAddr: 0x1FB6C, symBinAddr: 0x100022384, symSize: 0x24 }
  - { offset: 0x2ACE6, size: 0x8, addend: 0x0, symName: __ZNSt3__16__math7signbitB8ne180100IdLi0EEEbT_, symObjAddr: 0x35C58, symBinAddr: 0x100038470, symSize: 0x24 }
  - { offset: 0x2AE99, size: 0x8, addend: 0x0, symName: __ZNSt3__125__throw_bad_function_callB8ne180100Ev, symObjAddr: 0x209B4, symBinAddr: 0x1000231CC, symSize: 0x38 }
  - { offset: 0x2AF1A, size: 0x8, addend: 0x0, symName: __ZNSt3__119__allocate_at_leastB8ne180100INS_9allocatorIPN8nlohmann16json_abi_v3_11_210basic_jsonINS_3mapENS_6vectorENS_12basic_stringIcNS_11char_traitsIcEENS1_IcEEEEbxydS1_NS3_14adl_serializerENS6_IhNS1_IhEEEEEEEEEENS_19__allocation_resultINS_16allocator_traitsIT_E7pointerEEERSK_m, symObjAddr: 0x21530, symBinAddr: 0x100023D48, symSize: 0x40 }
  - { offset: 0x2AF5D, size: 0x8, addend: 0x0, symName: __ZNSt3__142__uninitialized_allocator_move_if_noexceptB8ne180100INS_9allocatorIPN8nlohmann16json_abi_v3_11_210basic_jsonINS_3mapENS_6vectorENS_12basic_stringIcNS_11char_traitsIcEENS1_IcEEEEbxydS1_NS3_14adl_serializerENS6_IhNS1_IhEEEEEEEENS_16reverse_iteratorIPSG_EESK_SG_vEET1_RT_T0_SO_SL_, symObjAddr: 0x216E4, symBinAddr: 0x100023EFC, symSize: 0x78 }
  - { offset: 0x2AFDC, size: 0x8, addend: 0x0, symName: __ZNSt3__14swapB8ne180100IPPN8nlohmann16json_abi_v3_11_210basic_jsonINS_3mapENS_6vectorENS_12basic_stringIcNS_11char_traitsIcEENS_9allocatorIcEEEEbxydS9_NS2_14adl_serializerENS5_IhNS9_IhEEEEEEEENS_9enable_ifIXaasr21is_move_constructibleIT_EE5valuesr18is_move_assignableISJ_EE5valueEvE4typeERSJ_SM_, symObjAddr: 0x217A8, symBinAddr: 0x100023FC0, symSize: 0x3C }
  - { offset: 0x2B02E, size: 0x8, addend: 0x0, symName: __ZNSt3__14moveB8ne180100INS_16reverse_iteratorIPPN8nlohmann16json_abi_v3_11_210basic_jsonINS_3mapENS_6vectorENS_12basic_stringIcNS_11char_traitsIcEENS_9allocatorIcEEEEbxydSA_NS3_14adl_serializerENS6_IhNSA_IhEEEEEEEESJ_EET0_T_SL_SK_, symObjAddr: 0x217F8, symBinAddr: 0x100024010, symSize: 0x78 }
  - { offset: 0x2B089, size: 0x8, addend: 0x0, symName: __ZNSt3__16__moveB8ne180100INS_17_ClassicAlgPolicyENS_16reverse_iteratorIPPN8nlohmann16json_abi_v3_11_210basic_jsonINS_3mapENS_6vectorENS_12basic_stringIcNS_11char_traitsIcEENS_9allocatorIcEEEEbxydSB_NS4_14adl_serializerENS7_IhNSB_IhEEEEEEEESK_SK_EENS_4pairIT0_T2_EESM_T1_SN_, symObjAddr: 0x21870, symBinAddr: 0x100024088, symSize: 0x64 }
  - { offset: 0x2B0F6, size: 0x8, addend: 0x0, symName: __ZNSt3__123__dispatch_copy_or_moveB8ne180100INS_17_ClassicAlgPolicyENS_11__move_loopIS1_EENS_14__move_trivialENS_16reverse_iteratorIPPN8nlohmann16json_abi_v3_11_210basic_jsonINS_3mapENS_6vectorENS_12basic_stringIcNS_11char_traitsIcEENS_9allocatorIcEEEEbxydSE_NS7_14adl_serializerENSA_IhNSE_IhEEEEEEEESN_SN_EENS_4pairIT2_T4_EESP_T3_SQ_, symObjAddr: 0x218D4, symBinAddr: 0x1000240EC, symSize: 0x64 }
  - { offset: 0x2B175, size: 0x8, addend: 0x0, symName: __ZNSt3__121__unwrap_and_dispatchB8ne180100INS_10__overloadINS_11__move_loopINS_17_ClassicAlgPolicyEEENS_14__move_trivialEEENS_16reverse_iteratorIPPN8nlohmann16json_abi_v3_11_210basic_jsonINS_3mapENS_6vectorENS_12basic_stringIcNS_11char_traitsIcEENS_9allocatorIcEEEEbxydSG_NS9_14adl_serializerENSC_IhNSG_IhEEEEEEEESP_SP_Li0EEENS_4pairIT0_T2_EESR_T1_SS_, symObjAddr: 0x21938, symBinAddr: 0x100024150, symSize: 0x12C }
  - { offset: 0x2B206, size: 0x8, addend: 0x0, symName: __ZNSt3__114__unwrap_rangeB8ne180100INS_16reverse_iteratorIPPN8nlohmann16json_abi_v3_11_210basic_jsonINS_3mapENS_6vectorENS_12basic_stringIcNS_11char_traitsIcEENS_9allocatorIcEEEEbxydSA_NS3_14adl_serializerENS6_IhNSA_IhEEEEEEEESJ_EENS_4pairIT0_SL_EET_SN_, symObjAddr: 0x21A64, symBinAddr: 0x10002427C, symSize: 0x84 }
  - { offset: 0x2B327, size: 0x8, addend: 0x0, symName: __ZNSt3__113__unwrap_iterB8ne180100INS_16reverse_iteratorIPPN8nlohmann16json_abi_v3_11_210basic_jsonINS_3mapENS_6vectorENS_12basic_stringIcNS_11char_traitsIcEENS_9allocatorIcEEEEbxydSA_NS3_14adl_serializerENS6_IhNSA_IhEEEEEEEENS_18__unwrap_iter_implISJ_Lb0EEELi0EEEDTclsrT0_8__unwrapclsr3stdE7declvalIT_EEEESN_, symObjAddr: 0x21B88, symBinAddr: 0x1000243A0, symSize: 0x44 }
  - { offset: 0x2B36B, size: 0x8, addend: 0x0, symName: __ZNSt3__19make_pairB8ne180100INS_16reverse_iteratorIPPN8nlohmann16json_abi_v3_11_210basic_jsonINS_3mapENS_6vectorENS_12basic_stringIcNS_11char_traitsIcEENS_9allocatorIcEEEEbxydSA_NS3_14adl_serializerENS6_IhNSA_IhEEEEEEEESJ_EENS_4pairINS_18__unwrap_ref_decayIT_E4typeENSL_IT0_E4typeEEEOSM_OSP_, symObjAddr: 0x21BCC, symBinAddr: 0x1000243E4, symSize: 0x38 }
  - { offset: 0x2B3BB, size: 0x8, addend: 0x0, symName: __ZNSt3__114__rewrap_rangeB8ne180100INS_16reverse_iteratorIPPN8nlohmann16json_abi_v3_11_210basic_jsonINS_3mapENS_6vectorENS_12basic_stringIcNS_11char_traitsIcEENS_9allocatorIcEEEEbxydSA_NS3_14adl_serializerENS6_IhNSA_IhEEEEEEEESJ_EET_SK_T0_, symObjAddr: 0x21C04, symBinAddr: 0x10002441C, symSize: 0x5C }
  - { offset: 0x2B408, size: 0x8, addend: 0x0, symName: __ZNSt3__113__rewrap_iterB8ne180100INS_16reverse_iteratorIPPN8nlohmann16json_abi_v3_11_210basic_jsonINS_3mapENS_6vectorENS_12basic_stringIcNS_11char_traitsIcEENS_9allocatorIcEEEEbxydSA_NS3_14adl_serializerENS6_IhNSA_IhEEEEEEEESJ_NS_18__unwrap_iter_implISJ_Lb0EEEEET_SM_T0_, symObjAddr: 0x21C60, symBinAddr: 0x100024478, symSize: 0x74 }
  - { offset: 0x2B45E, size: 0x8, addend: 0x0, symName: __ZNSt3__1neB8ne180100IPPN8nlohmann16json_abi_v3_11_210basic_jsonINS_3mapENS_6vectorENS_12basic_stringIcNS_11char_traitsIcEENS_9allocatorIcEEEEbxydS9_NS2_14adl_serializerENS5_IhNS9_IhEEEEEESH_EEbRKNS_16reverse_iteratorIT_EERKNSI_IT0_EE, symObjAddr: 0x21CD4, symBinAddr: 0x1000244EC, symSize: 0x48 }
  - { offset: 0x2B835, size: 0x8, addend: 0x0, symName: __ZNSt3__1neB8ne180100INS_3mapINS_12basic_stringIcNS_11char_traitsIcEENS_9allocatorIcEEEEN8nlohmann16json_abi_v3_11_210basic_jsonIS1_NS_6vectorES7_bxydS5_NS9_14adl_serializerENSB_IhNS5_IhEEEEEENS_4lessIvEENS5_INS_4pairIKS7_SF_EEEEEEZNSF_6createISM_JRKSM_EEEPT_DpOT0_EUlPSM_E_EEbRKNS_10unique_ptrISQ_T0_EEDn, symObjAddr: 0x23124, symBinAddr: 0x10002593C, symSize: 0x2C }
  - { offset: 0x2B881, size: 0x8, addend: 0x0, symName: __ZNSt3__1neB8ne180100ERKNS_20__map_const_iteratorINS_21__tree_const_iteratorINS_12__value_typeINS_12basic_stringIcNS_11char_traitsIcEENS_9allocatorIcEEEEN8nlohmann16json_abi_v3_11_210basic_jsonINS_3mapENS_6vectorES8_bxydS6_NSA_14adl_serializerENSD_IhNS6_IhEEEEEEEEPNS_11__tree_nodeISI_PvEElEEEESQ_, symObjAddr: 0x236C4, symBinAddr: 0x100025EDC, symSize: 0x30 }
  - { offset: 0x2B8BE, size: 0x8, addend: 0x0, symName: __ZNSt3__1neB8ne180100ERKNS_21__tree_const_iteratorINS_12__value_typeINS_12basic_stringIcNS_11char_traitsIcEENS_9allocatorIcEEEEN8nlohmann16json_abi_v3_11_210basic_jsonINS_3mapENS_6vectorES7_bxydS5_NS9_14adl_serializerENSC_IhNS5_IhEEEEEEEEPNS_11__tree_nodeISH_PvEElEESO_, symObjAddr: 0x237CC, symBinAddr: 0x100025FE4, symSize: 0x34 }
  - { offset: 0x2B8FC, size: 0x8, addend: 0x0, symName: __ZNSt3__1eqB8ne180100ERKNS_21__tree_const_iteratorINS_12__value_typeINS_12basic_stringIcNS_11char_traitsIcEENS_9allocatorIcEEEEN8nlohmann16json_abi_v3_11_210basic_jsonINS_3mapENS_6vectorES7_bxydS5_NS9_14adl_serializerENSC_IhNS5_IhEEEEEEEEPNS_11__tree_nodeISH_PvEElEESO_, symObjAddr: 0x23800, symBinAddr: 0x100026018, symSize: 0x30 }
  - { offset: 0x2B93A, size: 0x8, addend: 0x0, symName: __ZNSt3__14nextB8ne180100INS_21__tree_const_iteratorINS_12__value_typeINS_12basic_stringIcNS_11char_traitsIcEENS_9allocatorIcEEEEN8nlohmann16json_abi_v3_11_210basic_jsonINS_3mapENS_6vectorES8_bxydS6_NSA_14adl_serializerENSD_IhNS6_IhEEEEEEEEPNS_11__tree_nodeISI_PvEElEELi0EEET_SO_NS_15iterator_traitsISO_E15difference_typeE, symObjAddr: 0x24264, symBinAddr: 0x100026A7C, symSize: 0x3C }
  - { offset: 0x2B983, size: 0x8, addend: 0x0, symName: __ZNSt3__1ltB8ne180100IcNS_11char_traitsIcEENS_9allocatorIcEEEEbRKNS_12basic_stringIT_T0_T1_EESB_, symObjAddr: 0x24368, symBinAddr: 0x100026B80, symSize: 0x38 }
  - { offset: 0x2B9DB, size: 0x8, addend: 0x0, symName: __ZNSt3__17launderB8ne180100IKNS_4pairIKNS_12basic_stringIcNS_11char_traitsIcEENS_9allocatorIcEEEEN8nlohmann16json_abi_v3_11_210basic_jsonINS_3mapENS_6vectorES7_bxydS5_NSA_14adl_serializerENSD_IhNS5_IhEEEEEEEEEEPT_SL_, symObjAddr: 0x24600, symBinAddr: 0x100026E18, symSize: 0x24 }
  - { offset: 0x2BA13, size: 0x8, addend: 0x0, symName: __ZNSt3__19__launderB8ne180100IKNS_4pairIKNS_12basic_stringIcNS_11char_traitsIcEENS_9allocatorIcEEEEN8nlohmann16json_abi_v3_11_210basic_jsonINS_3mapENS_6vectorES7_bxydS5_NSA_14adl_serializerENSD_IhNS5_IhEEEEEEEEEEPT_SL_, symObjAddr: 0x24624, symBinAddr: 0x100026E3C, symSize: 0x14 }
  - { offset: 0x2BA4B, size: 0x8, addend: 0x0, symName: __ZNSt3__116__tree_prev_iterB8ne180100IPNS_16__tree_node_baseIPvEEPNS_15__tree_end_nodeIS4_EEEET_T0_, symObjAddr: 0x24638, symBinAddr: 0x100026E50, symSize: 0x88 }
  - { offset: 0x2BA98, size: 0x8, addend: 0x0, symName: __ZNSt3__110__tree_maxB8ne180100IPNS_16__tree_node_baseIPvEEEET_S5_, symObjAddr: 0x246C0, symBinAddr: 0x100026ED8, symSize: 0x40 }
  - { offset: 0x2BACE, size: 0x8, addend: 0x0, symName: __ZNSt3__121__convert_to_integralB8ne180100El, symObjAddr: 0x2475C, symBinAddr: 0x100026F74, symSize: 0x14 }
  - { offset: 0x2BAFA, size: 0x8, addend: 0x0, symName: __ZNSt3__19__advanceB8ne180100INS_21__tree_const_iteratorINS_12__value_typeINS_12basic_stringIcNS_11char_traitsIcEENS_9allocatorIcEEEEN8nlohmann16json_abi_v3_11_210basic_jsonINS_3mapENS_6vectorES8_bxydS6_NSA_14adl_serializerENSD_IhNS6_IhEEEEEEEEPNS_11__tree_nodeISI_PvEElEEEEvRT_NS_15iterator_traitsISO_E15difference_typeENS_26bidirectional_iterator_tagE, symObjAddr: 0x24770, symBinAddr: 0x100026F88, symSize: 0xA4 }
  - { offset: 0x2BB63, size: 0x8, addend: 0x0, symName: __ZNSt3__127__tree_balance_after_insertB8ne180100IPNS_16__tree_node_baseIPvEEEEvT_S5_, symObjAddr: 0x24C6C, symBinAddr: 0x100027484, symSize: 0x27C }
  - { offset: 0x2BBE1, size: 0x8, addend: 0x0, symName: __ZNSt3__118__tree_left_rotateB8ne180100IPNS_16__tree_node_baseIPvEEEEvT_, symObjAddr: 0x24EE8, symBinAddr: 0x100027700, symSize: 0xD8 }
  - { offset: 0x2BC21, size: 0x8, addend: 0x0, symName: __ZNSt3__119__tree_right_rotateB8ne180100IPNS_16__tree_node_baseIPvEEEEvT_, symObjAddr: 0x24FC0, symBinAddr: 0x1000277D8, symSize: 0xCC }
  - { offset: 0x2BFCE, size: 0x8, addend: 0x0, symName: __ZNSt3__1neB8ne180100INS_6vectorIN8nlohmann16json_abi_v3_11_210basic_jsonINS_3mapES1_NS_12basic_stringIcNS_11char_traitsIcEENS_9allocatorIcEEEEbxydS9_NS3_14adl_serializerENS1_IhNS9_IhEEEEEENS9_ISF_EEEEZNSF_6createISH_JRKSH_EEEPT_DpOT0_EUlPSH_E_EEbRKNS_10unique_ptrISL_T0_EEDn, symObjAddr: 0x25708, symBinAddr: 0x100027F20, symSize: 0x2C }
  - { offset: 0x2C01B, size: 0x8, addend: 0x0, symName: __ZNSt3__122__make_exception_guardB8ne180100INS_6vectorIN8nlohmann16json_abi_v3_11_210basic_jsonINS_3mapES1_NS_12basic_stringIcNS_11char_traitsIcEENS_9allocatorIcEEEEbxydS9_NS3_14adl_serializerENS1_IhNS9_IhEEEEEENS9_ISF_EEE16__destroy_vectorEEENS_28__exception_guard_exceptionsIT_EESK_, symObjAddr: 0x25AEC, symBinAddr: 0x100028304, symSize: 0x40 }
  - { offset: 0x2C050, size: 0x8, addend: 0x0, symName: __ZNSt3__130__uninitialized_allocator_copyB8ne180100INS_9allocatorIN8nlohmann16json_abi_v3_11_210basic_jsonINS_3mapENS_6vectorENS_12basic_stringIcNS_11char_traitsIcEENS1_IcEEEEbxydS1_NS3_14adl_serializerENS6_IhNS1_IhEEEEEEEEPSF_SH_SH_EET2_RT_T0_T1_SI_, symObjAddr: 0x25D04, symBinAddr: 0x10002851C, symSize: 0x80 }
  - { offset: 0x2C0EE, size: 0x8, addend: 0x0, symName: __ZNSt3__114__unwrap_rangeB8ne180100IPN8nlohmann16json_abi_v3_11_210basic_jsonINS_3mapENS_6vectorENS_12basic_stringIcNS_11char_traitsIcEENS_9allocatorIcEEEEbxydS9_NS2_14adl_serializerENS5_IhNS9_IhEEEEEESG_EENS_4pairIT0_SI_EET_SK_, symObjAddr: 0x25D84, symBinAddr: 0x10002859C, symSize: 0x60 }
  - { offset: 0x2C13A, size: 0x8, addend: 0x0, symName: __ZNSt3__135__uninitialized_allocator_copy_implB8ne180100INS_9allocatorIN8nlohmann16json_abi_v3_11_210basic_jsonINS_3mapENS_6vectorENS_12basic_stringIcNS_11char_traitsIcEENS1_IcEEEEbxydS1_NS3_14adl_serializerENS6_IhNS1_IhEEEEEEEEPSF_SH_SH_EET2_RT_T0_T1_SI_, symObjAddr: 0x25DE4, symBinAddr: 0x1000285FC, symSize: 0xF4 }
  - { offset: 0x2C1D9, size: 0x8, addend: 0x0, symName: __ZNSt3__113__unwrap_iterB8ne180100IPN8nlohmann16json_abi_v3_11_210basic_jsonINS_3mapENS_6vectorENS_12basic_stringIcNS_11char_traitsIcEENS_9allocatorIcEEEEbxydS9_NS2_14adl_serializerENS5_IhNS9_IhEEEEEENS_18__unwrap_iter_implISG_Lb1EEELi0EEEDTclsrT0_8__unwrapclsr3stdE7declvalIT_EEEESK_, symObjAddr: 0x25ED8, symBinAddr: 0x1000286F0, symSize: 0x24 }
  - { offset: 0x2C21E, size: 0x8, addend: 0x0, symName: __ZNSt3__113__rewrap_iterB8ne180100IPN8nlohmann16json_abi_v3_11_210basic_jsonINS_3mapENS_6vectorENS_12basic_stringIcNS_11char_traitsIcEENS_9allocatorIcEEEEbxydS9_NS2_14adl_serializerENS5_IhNS9_IhEEEEEESG_NS_18__unwrap_iter_implISG_Lb1EEEEET_SJ_T0_, symObjAddr: 0x25EFC, symBinAddr: 0x100028714, symSize: 0x3C }
  - { offset: 0x2C274, size: 0x8, addend: 0x0, symName: __ZNSt3__122__make_exception_guardB8ne180100INS_29_AllocatorDestroyRangeReverseINS_9allocatorIN8nlohmann16json_abi_v3_11_210basic_jsonINS_3mapENS_6vectorENS_12basic_stringIcNS_11char_traitsIcEENS2_IcEEEEbxydS2_NS4_14adl_serializerENS7_IhNS2_IhEEEEEEEEPSG_EEEENS_28__exception_guard_exceptionsIT_EESL_, symObjAddr: 0x25F38, symBinAddr: 0x100028750, symSize: 0x4C }
  - { offset: 0x2C2AB, size: 0x8, addend: 0x0, symName: __ZNSt3__119__allocator_destroyB8ne180100INS_9allocatorIN8nlohmann16json_abi_v3_11_210basic_jsonINS_3mapENS_6vectorENS_12basic_stringIcNS_11char_traitsIcEENS1_IcEEEEbxydS1_NS3_14adl_serializerENS6_IhNS1_IhEEEEEEEENS_16reverse_iteratorIPSF_EESJ_EEvRT_T0_T1_, symObjAddr: 0x261C8, symBinAddr: 0x1000289E0, symSize: 0x70 }
  - { offset: 0x2C699, size: 0x8, addend: 0x0, symName: __ZNSt3__1neB8ne180100INS_12basic_stringIcNS_11char_traitsIcEENS_9allocatorIcEEEEZN8nlohmann16json_abi_v3_11_210basic_jsonINS_3mapENS_6vectorES6_bxydS4_NS8_14adl_serializerENSB_IhNS4_IhEEEEE6createIS6_JRKS6_EEEPT_DpOT0_EUlPS6_E_EEbRKNS_10unique_ptrISJ_T0_EEDn, symObjAddr: 0x26658, symBinAddr: 0x100028E70, symSize: 0x2C }
  - { offset: 0x2CA1D, size: 0x8, addend: 0x0, symName: __ZNSt3__1neB8ne180100IN8nlohmann16json_abi_v3_11_227byte_container_with_subtypeINS_6vectorIhNS_9allocatorIhEEEEEEZNS2_10basic_jsonINS_3mapES4_NS_12basic_stringIcNS_11char_traitsIcEENS5_IcEEEEbxydS5_NS2_14adl_serializerES7_E6createIS8_JRKS8_EEEPT_DpOT0_EUlPS8_E_EEbRKNS_10unique_ptrISL_T0_EEDn, symObjAddr: 0x26C04, symBinAddr: 0x10002941C, symSize: 0x2C }
  - { offset: 0x2CA6A, size: 0x8, addend: 0x0, symName: __ZNSt3__122__make_exception_guardB8ne180100INS_6vectorIhNS_9allocatorIhEEE16__destroy_vectorEEENS_28__exception_guard_exceptionsIT_EES7_, symObjAddr: 0x270B0, symBinAddr: 0x1000298C8, symSize: 0x40 }
  - { offset: 0x2CAA0, size: 0x8, addend: 0x0, symName: __ZNSt3__119__allocate_at_leastB8ne180100INS_9allocatorIhEEEENS_19__allocation_resultINS_16allocator_traitsIT_E7pointerEEERS5_m, symObjAddr: 0x27344, symBinAddr: 0x100029B5C, symSize: 0x40 }
  - { offset: 0x2CAE3, size: 0x8, addend: 0x0, symName: __ZNSt3__130__uninitialized_allocator_copyB8ne180100INS_9allocatorIhEEPhS3_S3_EET2_RT_T0_T1_S4_, symObjAddr: 0x274C4, symBinAddr: 0x100029CDC, symSize: 0x80 }
  - { offset: 0x2CB81, size: 0x8, addend: 0x0, symName: __ZNSt3__114__unwrap_rangeB8ne180100IPhS1_EENS_4pairIT0_S3_EET_S5_, symObjAddr: 0x275B4, symBinAddr: 0x100029DCC, symSize: 0x60 }
  - { offset: 0x2CBCD, size: 0x8, addend: 0x0, symName: __ZNSt3__135__uninitialized_allocator_copy_implB8ne180100INS_9allocatorIhEEhhhLPv0EEEPT2_RT_PT0_S9_S5_, symObjAddr: 0x27614, symBinAddr: 0x100029E2C, symSize: 0x38 }
  - { offset: 0x2CC50, size: 0x8, addend: 0x0, symName: __ZNSt3__113__unwrap_iterB8ne180100IPhNS_18__unwrap_iter_implIS1_Lb1EEELi0EEEDTclsrT0_8__unwrapclsr3stdE7declvalIT_EEEES5_, symObjAddr: 0x2764C, symBinAddr: 0x100029E64, symSize: 0x24 }
  - { offset: 0x2CC95, size: 0x8, addend: 0x0, symName: __ZNSt3__113__rewrap_iterB8ne180100IPhS1_NS_18__unwrap_iter_implIS1_Lb1EEEEET_S4_T0_, symObjAddr: 0x27670, symBinAddr: 0x100029E88, symSize: 0x3C }
  - { offset: 0x2CCEA, size: 0x8, addend: 0x0, symName: __ZNSt3__19make_pairB8ne180100IPhS1_EENS_4pairINS_18__unwrap_ref_decayIT_E4typeENS3_IT0_E4typeEEEOS4_OS7_, symObjAddr: 0x276AC, symBinAddr: 0x100029EC4, symSize: 0x38 }
  - { offset: 0x2CE3D, size: 0x8, addend: 0x0, symName: __ZNSt3__14copyB8ne180100IPhS1_EET0_T_S3_S2_, symObjAddr: 0x27754, symBinAddr: 0x100029F6C, symSize: 0x40 }
  - { offset: 0x2CE98, size: 0x8, addend: 0x0, symName: __ZNSt3__16__copyB8ne180100INS_17_ClassicAlgPolicyEPhS2_S2_EENS_4pairIT0_T2_EES4_T1_S5_, symObjAddr: 0x27794, symBinAddr: 0x100029FAC, symSize: 0x44 }
  - { offset: 0x2CF05, size: 0x8, addend: 0x0, symName: __ZNSt3__123__dispatch_copy_or_moveB8ne180100INS_17_ClassicAlgPolicyENS_11__copy_loopIS1_EENS_14__copy_trivialEPhS5_S5_EENS_4pairIT2_T4_EES7_T3_S8_, symObjAddr: 0x277D8, symBinAddr: 0x100029FF0, symSize: 0x44 }
  - { offset: 0x2CF84, size: 0x8, addend: 0x0, symName: __ZNSt3__121__unwrap_and_dispatchB8ne180100INS_10__overloadINS_11__copy_loopINS_17_ClassicAlgPolicyEEENS_14__copy_trivialEEEPhS7_S7_Li0EEENS_4pairIT0_T2_EES9_T1_SA_, symObjAddr: 0x2781C, symBinAddr: 0x10002A034, symSize: 0xB4 }
  - { offset: 0x2D059, size: 0x8, addend: 0x0, symName: __ZNSt3__114__rewrap_rangeB8ne180100IPhS1_EET_S2_T0_, symObjAddr: 0x27918, symBinAddr: 0x10002A130, symSize: 0x2C }
  - { offset: 0x2D0A6, size: 0x8, addend: 0x0, symName: __ZNSt3__119__copy_trivial_implB8ne180100IhhEENS_4pairIPT_PT0_EES3_S3_S5_, symObjAddr: 0x27944, symBinAddr: 0x10002A15C, symSize: 0x78 }
  - { offset: 0x2D10F, size: 0x8, addend: 0x0, symName: __ZNSt3__119__constexpr_memmoveB8ne180100IhhLi0EEEPT_S2_PT0_NS_15__element_countE, symObjAddr: 0x279BC, symBinAddr: 0x10002A1D4, symSize: 0x64 }
  - { offset: 0x2D17D, size: 0x8, addend: 0x0, symName: __ZNSt3__19make_pairB8ne180100IRPhS1_EENS_4pairINS_18__unwrap_ref_decayIT_E4typeENS4_IT0_E4typeEEEOS5_OS8_, symObjAddr: 0x27A20, symBinAddr: 0x10002A238, symSize: 0x38 }
  - { offset: 0x2D220, size: 0x8, addend: 0x0, symName: __ZNSt3__1neB8ne180100IPN8nlohmann16json_abi_v3_11_210basic_jsonINS_3mapENS_6vectorENS_12basic_stringIcNS_11char_traitsIcEENS_9allocatorIcEEEEbxydS9_NS2_14adl_serializerENS5_IhNS9_IhEEEEEEEEbRKNS_11__wrap_iterIT_EESL_, symObjAddr: 0x27DC4, symBinAddr: 0x10002A5DC, symSize: 0x34 }
  - { offset: 0x2D297, size: 0x8, addend: 0x0, symName: __ZNSt3__1eqB8ne180100IPN8nlohmann16json_abi_v3_11_210basic_jsonINS_3mapENS_6vectorENS_12basic_stringIcNS_11char_traitsIcEENS_9allocatorIcEEEEbxydS9_NS2_14adl_serializerENS5_IhNS9_IhEEEEEEEEbRKNS_11__wrap_iterIT_EESL_, symObjAddr: 0x27FA4, symBinAddr: 0x10002A7BC, symSize: 0x48 }
  - { offset: 0x2D2DB, size: 0x8, addend: 0x0, symName: __ZNSt3__113__tree_removeB8ne180100IPNS_16__tree_node_baseIPvEEEEvT_S5_, symObjAddr: 0x286A8, symBinAddr: 0x10002AEC0, symSize: 0x6F0 }
  - { offset: 0x2D35A, size: 0x8, addend: 0x0, symName: __ZNSt3__111__tree_nextB8ne180100IPNS_16__tree_node_baseIPvEEEET_S5_, symObjAddr: 0x28D98, symBinAddr: 0x10002B5B0, symSize: 0x80 }
  - { offset: 0x2D390, size: 0x8, addend: 0x0, symName: __ZNSt3__1miB8ne180100IPKN8nlohmann16json_abi_v3_11_210basic_jsonINS_3mapENS_6vectorENS_12basic_stringIcNS_11char_traitsIcEENS_9allocatorIcEEEEbxydS9_NS2_14adl_serializerENS5_IhNS9_IhEEEEEESH_EEDTmicldtfp_4baseEcldtfp0_4baseEERKNS_11__wrap_iterIT_EERKNSJ_IT0_EE, symObjAddr: 0x28E18, symBinAddr: 0x10002B630, symSize: 0x48 }
  - { offset: 0x2D3DD, size: 0x8, addend: 0x0, symName: __ZNSt3__14moveB8ne180100IPN8nlohmann16json_abi_v3_11_210basic_jsonINS_3mapENS_6vectorENS_12basic_stringIcNS_11char_traitsIcEENS_9allocatorIcEEEEbxydS9_NS2_14adl_serializerENS5_IhNS9_IhEEEEEESG_EET0_T_SI_SH_, symObjAddr: 0x28E8C, symBinAddr: 0x10002B6A4, symSize: 0x40 }
  - { offset: 0x2D438, size: 0x8, addend: 0x0, symName: __ZNSt3__16__moveB8ne180100INS_17_ClassicAlgPolicyEPN8nlohmann16json_abi_v3_11_210basic_jsonINS_3mapENS_6vectorENS_12basic_stringIcNS_11char_traitsIcEENS_9allocatorIcEEEEbxydSA_NS3_14adl_serializerENS6_IhNSA_IhEEEEEESH_SH_EENS_4pairIT0_T2_EESJ_T1_SK_, symObjAddr: 0x28F98, symBinAddr: 0x10002B7B0, symSize: 0x44 }
  - { offset: 0x2D4A5, size: 0x8, addend: 0x0, symName: __ZNSt3__123__dispatch_copy_or_moveB8ne180100INS_17_ClassicAlgPolicyENS_11__move_loopIS1_EENS_14__move_trivialEPN8nlohmann16json_abi_v3_11_210basic_jsonINS_3mapENS_6vectorENS_12basic_stringIcNS_11char_traitsIcEENS_9allocatorIcEEEEbxydSD_NS6_14adl_serializerENS9_IhNSD_IhEEEEEESK_SK_EENS_4pairIT2_T4_EESM_T3_SN_, symObjAddr: 0x28FDC, symBinAddr: 0x10002B7F4, symSize: 0x44 }
  - { offset: 0x2D524, size: 0x8, addend: 0x0, symName: __ZNSt3__121__unwrap_and_dispatchB8ne180100INS_10__overloadINS_11__move_loopINS_17_ClassicAlgPolicyEEENS_14__move_trivialEEEPN8nlohmann16json_abi_v3_11_210basic_jsonINS_3mapENS_6vectorENS_12basic_stringIcNS_11char_traitsIcEENS_9allocatorIcEEEEbxydSF_NS8_14adl_serializerENSB_IhNSF_IhEEEEEESM_SM_Li0EEENS_4pairIT0_T2_EESO_T1_SP_, symObjAddr: 0x29020, symBinAddr: 0x10002B838, symSize: 0xB4 }
  - { offset: 0x2D5B3, size: 0x8, addend: 0x0, symName: __ZNSt3__114__rewrap_rangeB8ne180100IPN8nlohmann16json_abi_v3_11_210basic_jsonINS_3mapENS_6vectorENS_12basic_stringIcNS_11char_traitsIcEENS_9allocatorIcEEEEbxydS9_NS2_14adl_serializerENS5_IhNS9_IhEEEEEESG_EET_SH_T0_, symObjAddr: 0x2917C, symBinAddr: 0x10002B994, symSize: 0x2C }
  - { offset: 0x2D636, size: 0x8, addend: 0x0, symName: __ZNSt3__116forward_as_tupleB8ne180100IJRKNS_12basic_stringIcNS_11char_traitsIcEENS_9allocatorIcEEEEEEENS_5tupleIJDpOT_EEESC_, symObjAddr: 0x296B8, symBinAddr: 0x10002BED0, symSize: 0x2C }
  - { offset: 0x2D670, size: 0x8, addend: 0x0, symName: __ZNSt3__116forward_as_tupleB8ne180100IJEEENS_5tupleIJDpOT_EEES4_, symObjAddr: 0x296E4, symBinAddr: 0x10002BEFC, symSize: 0x4 }
  - { offset: 0x2D6A0, size: 0x8, addend: 0x0, symName: __ZNSt3__13getB8ne180100ILm0EJRKNS_12basic_stringIcNS_11char_traitsIcEENS_9allocatorIcEEEEEEERNS_13tuple_elementIXT_ENS_5tupleIJDpT0_EEEE4typeERSD_, symObjAddr: 0x29954, symBinAddr: 0x10002C16C, symSize: 0x24 }
  - { offset: 0x2D708, size: 0x8, addend: 0x0, symName: __ZNSt3__1neB8ne180100IPKcEEbRKNS_11__wrap_iterIT_EES7_, symObjAddr: 0x2C2A8, symBinAddr: 0x10002EAC0, symSize: 0x34 }
  - { offset: 0x2DA13, size: 0x8, addend: 0x0, symName: __ZNSt3__1eqB8ne180100IPKcEEbRKNS_11__wrap_iterIT_EES7_, symObjAddr: 0x2C3EC, symBinAddr: 0x10002EC04, symSize: 0x48 }
  - { offset: 0x2DA57, size: 0x8, addend: 0x0, symName: __ZNSt3__14swapB8ne180100IN8nlohmann16json_abi_v3_11_26detail7value_tEEENS_9enable_ifIXaasr21is_move_constructibleIT_EE5valuesr18is_move_assignableIS6_EE5valueEvE4typeERS6_S9_, symObjAddr: 0x2D214, symBinAddr: 0x10002FA2C, symSize: 0x3C }
  - { offset: 0x2DAA9, size: 0x8, addend: 0x0, symName: __ZNSt3__14swapB8ne180100IN8nlohmann16json_abi_v3_11_210basic_jsonINS_3mapENS_6vectorENS_12basic_stringIcNS_11char_traitsIcEENS_9allocatorIcEEEEbxydS9_NS2_14adl_serializerENS5_IhNS9_IhEEEEE10json_valueEEENS_9enable_ifIXaasr21is_move_constructibleIT_EE5valuesr18is_move_assignableISI_EE5valueEvE4typeERSI_SL_, symObjAddr: 0x2D250, symBinAddr: 0x10002FA68, symSize: 0x3C }
  - { offset: 0x2DAFA, size: 0x8, addend: 0x0, symName: __ZNSt3__1ltB8ne180100IcNS_11char_traitsIcEENS_9allocatorIcEEEEbRKNS_12basic_stringIT_T0_T1_EEPKS6_, symObjAddr: 0x30090, symBinAddr: 0x1000328A8, symSize: 0x38 }
  - { offset: 0x2DB52, size: 0x8, addend: 0x0, symName: __ZNSt3__1ltB8ne180100IcNS_11char_traitsIcEENS_9allocatorIcEEEEbPKT_RKNS_12basic_stringIS5_T0_T1_EE, symObjAddr: 0x300FC, symBinAddr: 0x100032914, symSize: 0x38 }
  - { offset: 0x2DBAA, size: 0x8, addend: 0x0, symName: __ZNSt3__111make_sharedB8ne180100IN8nlohmann16json_abi_v3_11_26detail21output_string_adapterIcNS_12basic_stringIcNS_11char_traitsIcEENS_9allocatorIcEEEEEEJRSA_EvEENS_10shared_ptrIT_EEDpOT0_, symObjAddr: 0x32224, symBinAddr: 0x100034A3C, symSize: 0x40 }
  - { offset: 0x2DE09, size: 0x8, addend: 0x0, symName: __ZNSt3__115allocate_sharedB8ne180100IN8nlohmann16json_abi_v3_11_26detail21output_string_adapterIcNS_12basic_stringIcNS_11char_traitsIcEENS_9allocatorIcEEEEEENS8_ISB_EEJRSA_EvEENS_10shared_ptrIT_EERKT0_DpOT1_, symObjAddr: 0x322C4, symBinAddr: 0x100034ADC, symSize: 0x98 }
  - { offset: 0x2E271, size: 0x8, addend: 0x0, symName: __ZNSt3__1eqB8ne180100ERKNS_20__map_const_iteratorINS_21__tree_const_iteratorINS_12__value_typeINS_12basic_stringIcNS_11char_traitsIcEENS_9allocatorIcEEEEN8nlohmann16json_abi_v3_11_210basic_jsonINS_3mapENS_6vectorES8_bxydS6_NSA_14adl_serializerENSD_IhNS6_IhEEEEEEEEPNS_11__tree_nodeISI_PvEElEEEESQ_, symObjAddr: 0x33F14, symBinAddr: 0x10003672C, symSize: 0x30 }
  - { offset: 0x2E2AF, size: 0x8, addend: 0x0, symName: __ZNSt3__14nextB8ne180100INS_20__map_const_iteratorINS_21__tree_const_iteratorINS_12__value_typeINS_12basic_stringIcNS_11char_traitsIcEENS_9allocatorIcEEEEN8nlohmann16json_abi_v3_11_210basic_jsonINS_3mapENS_6vectorES9_bxydS7_NSB_14adl_serializerENSE_IhNS7_IhEEEEEEEEPNS_11__tree_nodeISJ_PvEElEEEELi0EEET_SQ_NS_15iterator_traitsISQ_E15difference_typeE, symObjAddr: 0x33F44, symBinAddr: 0x10003675C, symSize: 0x3C }
  - { offset: 0x2E2F9, size: 0x8, addend: 0x0, symName: __ZNSt3__1neB8ne180100IPKN8nlohmann16json_abi_v3_11_210basic_jsonINS_3mapENS_6vectorENS_12basic_stringIcNS_11char_traitsIcEENS_9allocatorIcEEEEbxydS9_NS2_14adl_serializerENS5_IhNS9_IhEEEEEEEEbRKNS_11__wrap_iterIT_EESM_, symObjAddr: 0x33F80, symBinAddr: 0x100036798, symSize: 0x34 }
  - { offset: 0x2E33D, size: 0x8, addend: 0x0, symName: __ZNSt3__1neB8ne180100IPKhEEbRKNS_11__wrap_iterIT_EES7_, symObjAddr: 0x340A8, symBinAddr: 0x1000368C0, symSize: 0x34 }
  - { offset: 0x2E3B3, size: 0x8, addend: 0x0, symName: __ZNSt3__19__advanceB8ne180100INS_20__map_const_iteratorINS_21__tree_const_iteratorINS_12__value_typeINS_12basic_stringIcNS_11char_traitsIcEENS_9allocatorIcEEEEN8nlohmann16json_abi_v3_11_210basic_jsonINS_3mapENS_6vectorES9_bxydS7_NSB_14adl_serializerENSE_IhNS7_IhEEEEEEEEPNS_11__tree_nodeISJ_PvEElEEEEEEvRT_NS_15iterator_traitsISQ_E15difference_typeENS_26bidirectional_iterator_tagE, symObjAddr: 0x35380, symBinAddr: 0x100037B98, symSize: 0xA4 }
  - { offset: 0x2E3FE, size: 0x8, addend: 0x0, symName: __ZNSt3__1eqB8ne180100IPKN8nlohmann16json_abi_v3_11_210basic_jsonINS_3mapENS_6vectorENS_12basic_stringIcNS_11char_traitsIcEENS_9allocatorIcEEEEbxydS9_NS2_14adl_serializerENS5_IhNS9_IhEEEEEEEEbRKNS_11__wrap_iterIT_EESM_, symObjAddr: 0x35450, symBinAddr: 0x100037C68, symSize: 0x48 }
  - { offset: 0x2E442, size: 0x8, addend: 0x0, symName: __ZNSt3__1eqB8ne180100IPKhEEbRKNS_11__wrap_iterIT_EES7_, symObjAddr: 0x355E0, symBinAddr: 0x100037DF8, symSize: 0x48 }
  - { offset: 0x2E860, size: 0x8, addend: 0x0, symName: __ZNSt3__1eqB8ne180100ERKNS_14__map_iteratorINS_15__tree_iteratorINS_12__value_typeINS_12basic_stringIcNS_11char_traitsIcEENS_9allocatorIcEEEEN8nlohmann16json_abi_v3_11_210basic_jsonINS_3mapENS_6vectorES8_bxydS6_NSA_14adl_serializerENSD_IhNS6_IhEEEEEEEEPNS_11__tree_nodeISI_PvEElEEEESQ_, symObjAddr: 0x38798, symBinAddr: 0x10003AFB0, symSize: 0x30 }
  - { offset: 0x2E89E, size: 0x8, addend: 0x0, symName: __ZNSt3__121__convert_to_integralB8ne180100Ei, symObjAddr: 0x38890, symBinAddr: 0x10003B0A8, symSize: 0x14 }
  - { offset: 0x2E8CA, size: 0x8, addend: 0x0, symName: __ZNSt3__19__advanceB8ne180100INS_14__map_iteratorINS_15__tree_iteratorINS_12__value_typeINS_12basic_stringIcNS_11char_traitsIcEENS_9allocatorIcEEEEN8nlohmann16json_abi_v3_11_210basic_jsonINS_3mapENS_6vectorES9_bxydS7_NSB_14adl_serializerENSE_IhNS7_IhEEEEEEEEPNS_11__tree_nodeISJ_PvEElEEEEEEvRT_NS_15iterator_traitsISQ_E15difference_typeENS_26bidirectional_iterator_tagE, symObjAddr: 0x388A4, symBinAddr: 0x10003B0BC, symSize: 0xA4 }
  - { offset: 0x2E914, size: 0x8, addend: 0x0, symName: __ZNSt3__19__advanceB8ne180100INS_11__wrap_iterIPN8nlohmann16json_abi_v3_11_210basic_jsonINS_3mapENS_6vectorENS_12basic_stringIcNS_11char_traitsIcEENS_9allocatorIcEEEEbxydSA_NS3_14adl_serializerENS6_IhNSA_IhEEEEEEEEEEvRT_NS_15iterator_traitsISJ_E15difference_typeENS_26random_access_iterator_tagE, symObjAddr: 0x389AC, symBinAddr: 0x10003B1C4, symSize: 0x2C }
  - { offset: 0x2E95F, size: 0x8, addend: 0x0, symName: __ZNSt3__122__make_exception_guardB8ne180100INS_6vectorINS_12basic_stringIcNS_11char_traitsIcEENS_9allocatorIcEEEENS5_IS7_EEE16__destroy_vectorEEENS_28__exception_guard_exceptionsIT_EESC_, symObjAddr: 0x3929C, symBinAddr: 0x10003BAB4, symSize: 0x40 }
  - { offset: 0x2E995, size: 0x8, addend: 0x0, symName: __ZNSt3__119__allocate_at_leastB8ne180100INS_9allocatorINS_12basic_stringIcNS_11char_traitsIcEENS1_IcEEEEEEEENS_19__allocation_resultINS_16allocator_traitsIT_E7pointerEEERSA_m, symObjAddr: 0x39618, symBinAddr: 0x10003BE30, symSize: 0x40 }
  - { offset: 0x2E9D8, size: 0x8, addend: 0x0, symName: __ZNSt3__130__uninitialized_allocator_copyB8ne180100INS_9allocatorINS_12basic_stringIcNS_11char_traitsIcEENS1_IcEEEEEEPKS6_S9_PS6_EET2_RT_T0_T1_SB_, symObjAddr: 0x39754, symBinAddr: 0x10003BF6C, symSize: 0x80 }
  - { offset: 0x2EA76, size: 0x8, addend: 0x0, symName: __ZNSt3__114__unwrap_rangeB8ne180100IPKNS_12basic_stringIcNS_11char_traitsIcEENS_9allocatorIcEEEES8_EENS_4pairIT0_SA_EET_SC_, symObjAddr: 0x3984C, symBinAddr: 0x10003C064, symSize: 0x60 }
  - { offset: 0x2EAC2, size: 0x8, addend: 0x0, symName: __ZNSt3__135__uninitialized_allocator_copy_implB8ne180100INS_9allocatorINS_12basic_stringIcNS_11char_traitsIcEENS1_IcEEEEEEPKS6_S9_PS6_EET2_RT_T0_T1_SB_, symObjAddr: 0x398AC, symBinAddr: 0x10003C0C4, symSize: 0xF4 }
  - { offset: 0x2EB61, size: 0x8, addend: 0x0, symName: __ZNSt3__113__unwrap_iterB8ne180100IPNS_12basic_stringIcNS_11char_traitsIcEENS_9allocatorIcEEEENS_18__unwrap_iter_implIS7_Lb1EEELi0EEEDTclsrT0_8__unwrapclsr3stdE7declvalIT_EEEESB_, symObjAddr: 0x399A0, symBinAddr: 0x10003C1B8, symSize: 0x24 }
  - { offset: 0x2EBA6, size: 0x8, addend: 0x0, symName: __ZNSt3__113__rewrap_iterB8ne180100IPNS_12basic_stringIcNS_11char_traitsIcEENS_9allocatorIcEEEES7_NS_18__unwrap_iter_implIS7_Lb1EEEEET_SA_T0_, symObjAddr: 0x399C4, symBinAddr: 0x10003C1DC, symSize: 0x3C }
  - { offset: 0x2EBFB, size: 0x8, addend: 0x0, symName: __ZNSt3__19make_pairB8ne180100IPKNS_12basic_stringIcNS_11char_traitsIcEENS_9allocatorIcEEEES8_EENS_4pairINS_18__unwrap_ref_decayIT_E4typeENSA_IT0_E4typeEEEOSB_OSE_, symObjAddr: 0x39A00, symBinAddr: 0x10003C218, symSize: 0x38 }
  - { offset: 0x2EC4B, size: 0x8, addend: 0x0, symName: __ZNSt3__113__unwrap_iterB8ne180100IPKNS_12basic_stringIcNS_11char_traitsIcEENS_9allocatorIcEEEENS_18__unwrap_iter_implIS8_Lb1EEELi0EEEDTclsrT0_8__unwrapclsr3stdE7declvalIT_EEEESC_, symObjAddr: 0x39A38, symBinAddr: 0x10003C250, symSize: 0x24 }
  - { offset: 0x2EDB7, size: 0x8, addend: 0x0, symName: __ZNSt3__112__to_addressB8ne180100IKNS_12basic_stringIcNS_11char_traitsIcEENS_9allocatorIcEEEEEEPT_S9_, symObjAddr: 0x39AF0, symBinAddr: 0x10003C308, symSize: 0x14 }
  - { offset: 0x2EDED, size: 0x8, addend: 0x0, symName: __ZNSt3__122__make_exception_guardB8ne180100INS_29_AllocatorDestroyRangeReverseINS_9allocatorINS_12basic_stringIcNS_11char_traitsIcEENS2_IcEEEEEEPS7_EEEENS_28__exception_guard_exceptionsIT_EESC_, symObjAddr: 0x39B04, symBinAddr: 0x10003C31C, symSize: 0x4C }
  - { offset: 0x2EE24, size: 0x8, addend: 0x0, symName: __ZNSt3__119__allocator_destroyB8ne180100INS_9allocatorINS_12basic_stringIcNS_11char_traitsIcEENS1_IcEEEEEENS_16reverse_iteratorIPS6_EESA_EEvRT_T0_T1_, symObjAddr: 0x39D30, symBinAddr: 0x10003C548, symSize: 0x70 }
  - { offset: 0x2EE88, size: 0x8, addend: 0x0, symName: __ZNSt3__1neB8ne180100IPNS_12basic_stringIcNS_11char_traitsIcEENS_9allocatorIcEEEES7_EEbRKNS_16reverse_iteratorIT_EERKNS8_IT0_EE, symObjAddr: 0x39DD4, symBinAddr: 0x10003C5EC, symSize: 0x48 }
  - { offset: 0x2EED5, size: 0x8, addend: 0x0, symName: __ZNSt3__112__to_addressB8ne180100INS_16reverse_iteratorIPNS_12basic_stringIcNS_11char_traitsIcEENS_9allocatorIcEEEEEEvEEu7__decayIDTclsr19__to_address_helperIT_EE6__callclsr3stdE7declvalIRKSA_EEEEESC_, symObjAddr: 0x39E1C, symBinAddr: 0x10003C634, symSize: 0x24 }
  - { offset: 0x308A5, size: 0x8, addend: 0x0, symName: __ZSt28__throw_bad_array_new_lengthB8ne180100v, symObjAddr: 0x3038, symBinAddr: 0x100005850, symSize: 0x34 }
  - { offset: 0x30AD2, size: 0x8, addend: 0x0, symName: __ZN8nlohmann16json_abi_v3_11_26detail12static_constINS1_10to_json_fnEE5valueE, symObjAddr: 0x3D95B, symBinAddr: 0x1000417EB, symSize: 0x0 }
  - { offset: 0x31F03, size: 0x8, addend: 0x0, symName: __ZN8nlohmann16json_abi_v3_11_26detail9dtoa_impl36get_cached_power_for_binary_exponentEi, symObjAddr: 0x36710, symBinAddr: 0x100038F28, symSize: 0x22C }
  - { offset: 0x31F2F, size: 0x8, addend: 0x0, symName: __ZZN8nlohmann16json_abi_v3_11_26detail9dtoa_impl36get_cached_power_for_binary_exponentEiE13kCachedPowers, symObjAddr: 0x3DEE0, symBinAddr: 0x100041D70, symSize: 0x0 }
  - { offset: 0x32001, size: 0x8, addend: 0x0, symName: __ZN8nlohmann16json_abi_v3_11_26detail9dtoa_impl6grisu2IdEEvPcRiS5_T_, symObjAddr: 0x35C7C, symBinAddr: 0x100038494, symSize: 0xEC }
  - { offset: 0x32071, size: 0x8, addend: 0x0, symName: __ZN8nlohmann16json_abi_v3_11_26detail9dtoa_impl13format_bufferEPciiii, symObjAddr: 0x35D68, symBinAddr: 0x100038580, symSize: 0x374 }
  - { offset: 0x320F9, size: 0x8, addend: 0x0, symName: __ZN8nlohmann16json_abi_v3_11_26detail9dtoa_impl18compute_boundariesIdEENS2_10boundariesET_, symObjAddr: 0x360DC, symBinAddr: 0x1000388F4, symSize: 0x24C }
  - { offset: 0x32208, size: 0x8, addend: 0x0, symName: __ZN8nlohmann16json_abi_v3_11_26detail9dtoa_impl6grisu2EPcRiS4_NS2_5diyfpES5_S5_, symObjAddr: 0x36328, symBinAddr: 0x100038B40, symSize: 0x1C0 }
  - { offset: 0x322F1, size: 0x8, addend: 0x0, symName: __ZN8nlohmann16json_abi_v3_11_26detail9dtoa_impl16reinterpret_bitsIydEET_T0_, symObjAddr: 0x364E8, symBinAddr: 0x100038D00, symSize: 0x1C }
  - { offset: 0x323F3, size: 0x8, addend: 0x0, symName: __ZN8nlohmann16json_abi_v3_11_26detail9dtoa_impl16grisu2_digit_genEPcRiS4_NS2_5diyfpES5_S5_, symObjAddr: 0x36A7C, symBinAddr: 0x100039294, symSize: 0x4A4 }
  - { offset: 0x32595, size: 0x8, addend: 0x0, symName: __ZN8nlohmann16json_abi_v3_11_26detail9dtoa_impl18find_largest_pow10EjRj, symObjAddr: 0x3703C, symBinAddr: 0x100039854, symSize: 0x1F8 }
  - { offset: 0x325D3, size: 0x8, addend: 0x0, symName: __ZN8nlohmann16json_abi_v3_11_26detail9dtoa_impl12grisu2_roundEPciyyyy, symObjAddr: 0x37234, symBinAddr: 0x100039A4C, symSize: 0x24C }
  - { offset: 0x32648, size: 0x8, addend: 0x0, symName: __ZN8nlohmann16json_abi_v3_11_26detail9dtoa_impl15append_exponentEPci, symObjAddr: 0x3749C, symBinAddr: 0x100039CB4, symSize: 0x220 }
  - { offset: 0x32D1B, size: 0x8, addend: 0x0, symName: __ZN8nlohmann16json_abi_v3_11_26detail3getILm0ENS1_9iter_implINS0_10basic_jsonINSt3__13mapENS5_6vectorENS5_12basic_stringIcNS5_11char_traitsIcEENS5_9allocatorIcEEEEbxydSB_NS0_14adl_serializerENS7_IhNSB_IhEEEEEEEELi0EEEDTcldtfp_3keyEERKNS1_21iteration_proxy_valueIT0_EE, symObjAddr: 0x189C, symBinAddr: 0x1000040B4, symSize: 0x24 }
  - { offset: 0x32D62, size: 0x8, addend: 0x0, symName: __ZN8nlohmann16json_abi_v3_11_26detail3getILm1ENS1_9iter_implINS0_10basic_jsonINSt3__13mapENS5_6vectorENS5_12basic_stringIcNS5_11char_traitsIcEENS5_9allocatorIcEEEEbxydSB_NS0_14adl_serializerENS7_IhNSB_IhEEEEEEEELi0EEEDTcldtfp_5valueEERKNS1_21iteration_proxy_valueIT0_EE, symObjAddr: 0x18C0, symBinAddr: 0x1000040D8, symSize: 0x24 }
  - { offset: 0x32EFE, size: 0x8, addend: 0x0, symName: __ZN8nlohmann16json_abi_v3_11_26detail6concatINSt3__112basic_stringIcNS3_11char_traitsIcEENS3_9allocatorIcEEEEJS9_S9_RKS9_EEET_DpOT0_, symObjAddr: 0x14190, symBinAddr: 0x1000169A8, symSize: 0xD8 }
  - { offset: 0x32F78, size: 0x8, addend: 0x0, symName: __ZN8nlohmann16json_abi_v3_11_26detail13concat_lengthINSt3__112basic_stringIcNS3_11char_traitsIcEENS3_9allocatorIcEEEEJS9_RKS9_EEEmRKT_DpOT0_, symObjAddr: 0x143AC, symBinAddr: 0x100016BC4, symSize: 0x48 }
  - { offset: 0x32FDE, size: 0x8, addend: 0x0, symName: __ZN8nlohmann16json_abi_v3_11_26detail11concat_intoINSt3__112basic_stringIcNS3_11char_traitsIcEENS3_9allocatorIcEEEES9_JS9_RKS9_ELi0EEEvRT_OT0_DpOT1_, symObjAddr: 0x143F4, symBinAddr: 0x100016C0C, symSize: 0x44 }
  - { offset: 0x3305D, size: 0x8, addend: 0x0, symName: __ZN8nlohmann16json_abi_v3_11_26detail13concat_lengthINSt3__112basic_stringIcNS3_11char_traitsIcEENS3_9allocatorIcEEEEJRKS9_EEEmRKT_DpOT0_, symObjAddr: 0x1452C, symBinAddr: 0x100016D44, symSize: 0x40 }
  - { offset: 0x330AE, size: 0x8, addend: 0x0, symName: __ZN8nlohmann16json_abi_v3_11_26detail13concat_lengthINSt3__112basic_stringIcNS3_11char_traitsIcEENS3_9allocatorIcEEEEJEEEmRKT_DpOT0_, symObjAddr: 0x1456C, symBinAddr: 0x100016D84, symSize: 0x38 }
  - { offset: 0x330EB, size: 0x8, addend: 0x0, symName: __ZN8nlohmann16json_abi_v3_11_26detail13concat_lengthEv, symObjAddr: 0x145A4, symBinAddr: 0x100016DBC, symSize: 0x8 }
  - { offset: 0x3310A, size: 0x8, addend: 0x0, symName: __ZN8nlohmann16json_abi_v3_11_26detail11concat_intoINSt3__112basic_stringIcNS3_11char_traitsIcEENS3_9allocatorIcEEEES9_JRKS9_ELi0EEEvRT_OT0_DpOT1_, symObjAddr: 0x145F8, symBinAddr: 0x100016E10, symSize: 0x3C }
  - { offset: 0x33176, size: 0x8, addend: 0x0, symName: __ZN8nlohmann16json_abi_v3_11_26detail11concat_intoINSt3__112basic_stringIcNS3_11char_traitsIcEENS3_9allocatorIcEEEERKS9_JELi0EEEvRT_OT0_DpOT1_, symObjAddr: 0x14634, symBinAddr: 0x100016E4C, symSize: 0x34 }
  - { offset: 0x331CD, size: 0x8, addend: 0x0, symName: __ZN8nlohmann16json_abi_v3_11_26detail11concat_intoINSt3__112basic_stringIcNS3_11char_traitsIcEENS3_9allocatorIcEEEEEEvRT_, symObjAddr: 0x14668, symBinAddr: 0x100016E80, symSize: 0x10 }
  - { offset: 0x331FD, size: 0x8, addend: 0x0, symName: __ZN8nlohmann16json_abi_v3_11_26detail6concatINSt3__112basic_stringIcNS3_11char_traitsIcEENS3_9allocatorIcEEEEJRA17_KcRKS9_cS9_RA3_SA_EEET_DpOT0_, symObjAddr: 0x14678, symBinAddr: 0x100016E90, symSize: 0xF0 }
  - { offset: 0x3329F, size: 0x8, addend: 0x0, symName: __ZN8nlohmann16json_abi_v3_11_26detail13concat_lengthIJRKNSt3__112basic_stringIcNS3_11char_traitsIcEENS3_9allocatorIcEEEEcS9_RA3_KcEEEmPSC_DpOT_, symObjAddr: 0x14768, symBinAddr: 0x100016F80, symSize: 0x58 }
  - { offset: 0x33324, size: 0x8, addend: 0x0, symName: __ZN8nlohmann16json_abi_v3_11_26detail11concat_intoINSt3__112basic_stringIcNS3_11char_traitsIcEENS3_9allocatorIcEEEERA17_KcJRKS9_cS9_RA3_SA_ELi0EEEvRT_OT0_DpOT1_, symObjAddr: 0x147C0, symBinAddr: 0x100016FD8, symSize: 0x54 }
  - { offset: 0x333CB, size: 0x8, addend: 0x0, symName: __ZN8nlohmann16json_abi_v3_11_26detail13concat_lengthINSt3__112basic_stringIcNS3_11char_traitsIcEENS3_9allocatorIcEEEEJcS9_RA3_KcEEEmRKT_DpOT0_, symObjAddr: 0x14814, symBinAddr: 0x10001702C, symSize: 0x54 }
  - { offset: 0x33444, size: 0x8, addend: 0x0, symName: __ZN8nlohmann16json_abi_v3_11_26detail13concat_lengthIJNSt3__112basic_stringIcNS3_11char_traitsIcEENS3_9allocatorIcEEEERA3_KcEEEmcDpOT_, symObjAddr: 0x14868, symBinAddr: 0x100017080, symSize: 0x34 }
  - { offset: 0x3349D, size: 0x8, addend: 0x0, symName: __ZN8nlohmann16json_abi_v3_11_26detail13concat_lengthINSt3__112basic_stringIcNS3_11char_traitsIcEENS3_9allocatorIcEEEEJRA3_KcEEEmRKT_DpOT0_, symObjAddr: 0x1489C, symBinAddr: 0x1000170B4, symSize: 0x40 }
  - { offset: 0x334EE, size: 0x8, addend: 0x0, symName: __ZN8nlohmann16json_abi_v3_11_26detail13concat_lengthIJEEEmPKcDpOT_, symObjAddr: 0x148DC, symBinAddr: 0x1000170F4, symSize: 0x38 }
  - { offset: 0x33522, size: 0x8, addend: 0x0, symName: __ZN8nlohmann16json_abi_v3_11_26detail11concat_intoINSt3__112basic_stringIcNS3_11char_traitsIcEENS3_9allocatorIcEEEERKS9_JcS9_RA3_KcELi0EEEvRT_OT0_DpOT1_, symObjAddr: 0x14914, symBinAddr: 0x10001712C, symSize: 0x4C }
  - { offset: 0x335B6, size: 0x8, addend: 0x0, symName: __ZN8nlohmann16json_abi_v3_11_26detail11concat_intoINSt3__112basic_stringIcNS3_11char_traitsIcEENS3_9allocatorIcEEEEcJS9_RA3_KcELi0EEEvRT_OT0_DpOT1_, symObjAddr: 0x14960, symBinAddr: 0x100017178, symSize: 0x48 }
  - { offset: 0x33636, size: 0x8, addend: 0x0, symName: __ZN8nlohmann16json_abi_v3_11_26detail11concat_intoINSt3__112basic_stringIcNS3_11char_traitsIcEENS3_9allocatorIcEEEES9_JRA3_KcELi0EEEvRT_OT0_DpOT1_, symObjAddr: 0x149DC, symBinAddr: 0x1000171F4, symSize: 0x3C }
  - { offset: 0x336A2, size: 0x8, addend: 0x0, symName: __ZN8nlohmann16json_abi_v3_11_26detail11concat_intoINSt3__112basic_stringIcNS3_11char_traitsIcEENS3_9allocatorIcEEEERA3_KcJELi0EEEvRT_OT0_DpOT1_, symObjAddr: 0x14A18, symBinAddr: 0x100017230, symSize: 0x34 }
  - { offset: 0x33853, size: 0x8, addend: 0x0, symName: __ZN8nlohmann16json_abi_v3_11_26detail13input_adapterERNSt3__113basic_istreamIcNS2_11char_traitsIcEEEE, symObjAddr: 0x14D14, symBinAddr: 0x10001752C, symSize: 0x38 }
  - { offset: 0x341FA, size: 0x8, addend: 0x0, symName: __ZN8nlohmann16json_abi_v3_11_26detail6concatINSt3__112basic_stringIcNS3_11char_traitsIcEENS3_9allocatorIcEEEEJRA26_KcS9_cEEET_DpOT0_, symObjAddr: 0x1FD34, symBinAddr: 0x10002254C, symSize: 0xD8 }
  - { offset: 0x34274, size: 0x8, addend: 0x0, symName: __ZN8nlohmann16json_abi_v3_11_26detail6concatINSt3__112basic_stringIcNS3_11char_traitsIcEENS3_9allocatorIcEEEEJRA24_KcS9_EEET_DpOT0_, symObjAddr: 0x2087C, symBinAddr: 0x100023094, symSize: 0xCC }
  - { offset: 0x342DA, size: 0x8, addend: 0x0, symName: __ZN8nlohmann16json_abi_v3_11_26detail13concat_lengthIJNSt3__112basic_stringIcNS3_11char_traitsIcEENS3_9allocatorIcEEEEEEEmPKcDpOT_, symObjAddr: 0x2234C, symBinAddr: 0x100024B64, symSize: 0x40 }
  - { offset: 0x34323, size: 0x8, addend: 0x0, symName: __ZN8nlohmann16json_abi_v3_11_26detail11concat_intoINSt3__112basic_stringIcNS3_11char_traitsIcEENS3_9allocatorIcEEEERA24_KcJS9_ELi0EEEvRT_OT0_DpOT1_, symObjAddr: 0x2238C, symBinAddr: 0x100024BA4, symSize: 0x3C }
  - { offset: 0x3438F, size: 0x8, addend: 0x0, symName: __ZN8nlohmann16json_abi_v3_11_26detail11concat_intoINSt3__112basic_stringIcNS3_11char_traitsIcEENS3_9allocatorIcEEEES9_JELi0EEEvRT_OT0_DpOT1_, symObjAddr: 0x223C8, symBinAddr: 0x100024BE0, symSize: 0x34 }
  - { offset: 0x3452B, size: 0x8, addend: 0x0, symName: __ZN8nlohmann16json_abi_v3_11_26detail6concatINSt3__112basic_stringIcNS3_11char_traitsIcEENS3_9allocatorIcEEEEJRA25_KcPSA_EEET_DpOT0_, symObjAddr: 0x2836C, symBinAddr: 0x10002AB84, symSize: 0xCC }
  - { offset: 0x34591, size: 0x8, addend: 0x0, symName: __ZN8nlohmann16json_abi_v3_11_26detail13concat_lengthIJPKcEEEmS4_DpOT_, symObjAddr: 0x2929C, symBinAddr: 0x10002BAB4, symSize: 0x44 }
  - { offset: 0x345DA, size: 0x8, addend: 0x0, symName: __ZN8nlohmann16json_abi_v3_11_26detail11concat_intoINSt3__112basic_stringIcNS3_11char_traitsIcEENS3_9allocatorIcEEEERA25_KcJPSA_ELi0EEEvRT_OT0_DpOT1_, symObjAddr: 0x292E0, symBinAddr: 0x10002BAF8, symSize: 0x3C }
  - { offset: 0x34646, size: 0x8, addend: 0x0, symName: __ZN8nlohmann16json_abi_v3_11_26detail11concat_intoINSt3__112basic_stringIcNS3_11char_traitsIcEENS3_9allocatorIcEEEEPKcJELi0EEEvRT_OT0_DpOT1_, symObjAddr: 0x2931C, symBinAddr: 0x10002BB34, symSize: 0x38 }
  - { offset: 0x3469D, size: 0x8, addend: 0x0, symName: __ZN8nlohmann16json_abi_v3_11_26detail7to_jsonINS0_10basic_jsonINSt3__13mapENS4_6vectorENS4_12basic_stringIcNS4_11char_traitsIcEENS4_9allocatorIcEEEEbxydSA_NS0_14adl_serializerENS6_IhNSA_IhEEEEEESC_Li0EEEvRT_RKT0_, symObjAddr: 0x29524, symBinAddr: 0x10002BD3C, symSize: 0x2C }
  - { offset: 0x3471F, size: 0x8, addend: 0x0, symName: __ZN8nlohmann16json_abi_v3_11_26detail6concatINSt3__112basic_stringIcNS3_11char_traitsIcEENS3_9allocatorIcEEEEJRA23_KcS9_EEET_DpOT0_, symObjAddr: 0x29A80, symBinAddr: 0x10002C298, symSize: 0xCC }
  - { offset: 0x34786, size: 0x8, addend: 0x0, symName: __ZN8nlohmann16json_abi_v3_11_26detail11concat_intoINSt3__112basic_stringIcNS3_11char_traitsIcEENS3_9allocatorIcEEEERA23_KcJS9_ELi0EEEvRT_OT0_DpOT1_, symObjAddr: 0x29B4C, symBinAddr: 0x10002C364, symSize: 0x3C }
  - { offset: 0x347F1, size: 0x8, addend: 0x0, symName: __ZN8nlohmann16json_abi_v3_11_26detail13concat_lengthIJNSt3__112basic_stringIcNS3_11char_traitsIcEENS3_9allocatorIcEEEEcEEEmPKcDpOT_, symObjAddr: 0x29C8C, symBinAddr: 0x10002C4A4, symSize: 0x48 }
  - { offset: 0x3484E, size: 0x8, addend: 0x0, symName: __ZN8nlohmann16json_abi_v3_11_26detail11concat_intoINSt3__112basic_stringIcNS3_11char_traitsIcEENS3_9allocatorIcEEEERA26_KcJS9_cELi0EEEvRT_OT0_DpOT1_, symObjAddr: 0x29CD4, symBinAddr: 0x10002C4EC, symSize: 0x44 }
  - { offset: 0x348CD, size: 0x8, addend: 0x0, symName: __ZN8nlohmann16json_abi_v3_11_26detail13concat_lengthINSt3__112basic_stringIcNS3_11char_traitsIcEENS3_9allocatorIcEEEEJcEEEmRKT_DpOT0_, symObjAddr: 0x29D18, symBinAddr: 0x10002C530, symSize: 0x44 }
  - { offset: 0x3491E, size: 0x8, addend: 0x0, symName: __ZN8nlohmann16json_abi_v3_11_26detail13concat_lengthIJEEEmcDpOT_, symObjAddr: 0x29D5C, symBinAddr: 0x10002C574, symSize: 0x24 }
  - { offset: 0x3494F, size: 0x8, addend: 0x0, symName: __ZN8nlohmann16json_abi_v3_11_26detail11concat_intoINSt3__112basic_stringIcNS3_11char_traitsIcEENS3_9allocatorIcEEEES9_JcELi0EEEvRT_OT0_DpOT1_, symObjAddr: 0x29D80, symBinAddr: 0x10002C598, symSize: 0x3C }
  - { offset: 0x349BB, size: 0x8, addend: 0x0, symName: __ZN8nlohmann16json_abi_v3_11_26detail11concat_intoINSt3__112basic_stringIcNS3_11char_traitsIcEENS3_9allocatorIcEEEEcJELi0EEEvRT_OT0_DpOT1_, symObjAddr: 0x29DBC, symBinAddr: 0x10002C5D4, symSize: 0x38 }
  - { offset: 0x34A12, size: 0x8, addend: 0x0, symName: __ZN8nlohmann16json_abi_v3_11_26detail7to_jsonINS0_10basic_jsonINSt3__13mapENS4_6vectorENS4_12basic_stringIcNS4_11char_traitsIcEENS4_9allocatorIcEEEEbxydSA_NS0_14adl_serializerENS6_IhNSA_IhEEEEEEdLi0EEEvRT_T0_, symObjAddr: 0x2A3EC, symBinAddr: 0x10002CC04, symSize: 0x2C }
  - { offset: 0x34A95, size: 0x8, addend: 0x0, symName: __ZN8nlohmann16json_abi_v3_11_26detail7to_jsonINS0_10basic_jsonINSt3__13mapENS4_6vectorENS4_12basic_stringIcNS4_11char_traitsIcEENS4_9allocatorIcEEEEbxydSA_NS0_14adl_serializerENS6_IhNSA_IhEEEEEEbLi0EEEvRT_T0_, symObjAddr: 0x2AA58, symBinAddr: 0x10002D270, symSize: 0x38 }
  - { offset: 0x34B18, size: 0x8, addend: 0x0, symName: __ZN8nlohmann16json_abi_v3_11_26detail7to_jsonINS0_10basic_jsonINSt3__13mapENS4_6vectorENS4_12basic_stringIcNS4_11char_traitsIcEENS4_9allocatorIcEEEEbxydSA_NS0_14adl_serializerENS6_IhNSA_IhEEEEEExLi0EEEvRT_T0_, symObjAddr: 0x2B5B4, symBinAddr: 0x10002DDCC, symSize: 0x2C }
  - { offset: 0x34B9B, size: 0x8, addend: 0x0, symName: __ZN8nlohmann16json_abi_v3_11_26detail7to_jsonINS0_10basic_jsonINSt3__13mapENS4_6vectorENS4_12basic_stringIcNS4_11char_traitsIcEENS4_9allocatorIcEEEEbxydSA_NS0_14adl_serializerENS6_IhNSA_IhEEEEEEyLi0EEEvRT_T0_, symObjAddr: 0x2C0F8, symBinAddr: 0x10002E910, symSize: 0x2C }
  - { offset: 0x34C1D, size: 0x8, addend: 0x0, symName: __ZN8nlohmann16json_abi_v3_11_26detail6concatINSt3__112basic_stringIcNS3_11char_traitsIcEENS3_9allocatorIcEEEEJS9_RA12_KcS9_RA3_SA_S9_RKS9_EEET_DpOT0_, symObjAddr: 0x2C44C, symBinAddr: 0x10002EC64, symSize: 0xFC }
  - { offset: 0x34CD3, size: 0x8, addend: 0x0, symName: __ZN8nlohmann16json_abi_v3_11_26detail13concat_lengthINSt3__112basic_stringIcNS3_11char_traitsIcEENS3_9allocatorIcEEEEJRA12_KcS9_RA3_SA_S9_RKS9_EEEmRKT_DpOT0_, symObjAddr: 0x2C648, symBinAddr: 0x10002EE60, symSize: 0x60 }
  - { offset: 0x34D75, size: 0x8, addend: 0x0, symName: __ZN8nlohmann16json_abi_v3_11_26detail11concat_intoINSt3__112basic_stringIcNS3_11char_traitsIcEENS3_9allocatorIcEEEES9_JRA12_KcS9_RA3_SA_S9_RKS9_ELi0EEEvRT_OT0_DpOT1_, symObjAddr: 0x2C6A8, symBinAddr: 0x10002EEC0, symSize: 0x5C }
  - { offset: 0x34E30, size: 0x8, addend: 0x0, symName: __ZN8nlohmann16json_abi_v3_11_26detail13concat_lengthIJNSt3__112basic_stringIcNS3_11char_traitsIcEENS3_9allocatorIcEEEERA3_KcS9_RKS9_EEEmPSA_DpOT_, symObjAddr: 0x2C704, symBinAddr: 0x10002EF1C, symSize: 0x58 }
  - { offset: 0x34EB4, size: 0x8, addend: 0x0, symName: __ZN8nlohmann16json_abi_v3_11_26detail13concat_lengthINSt3__112basic_stringIcNS3_11char_traitsIcEENS3_9allocatorIcEEEEJRA3_KcS9_RKS9_EEEmRKT_DpOT0_, symObjAddr: 0x2C75C, symBinAddr: 0x10002EF74, symSize: 0x50 }
  - { offset: 0x34F2D, size: 0x8, addend: 0x0, symName: __ZN8nlohmann16json_abi_v3_11_26detail13concat_lengthIJNSt3__112basic_stringIcNS3_11char_traitsIcEENS3_9allocatorIcEEEERKS9_EEEmPKcDpOT_, symObjAddr: 0x2C7AC, symBinAddr: 0x10002EFC4, symSize: 0x48 }
  - { offset: 0x34F8A, size: 0x8, addend: 0x0, symName: __ZN8nlohmann16json_abi_v3_11_26detail11concat_intoINSt3__112basic_stringIcNS3_11char_traitsIcEENS3_9allocatorIcEEEERA12_KcJS9_RA3_SA_S9_RKS9_ELi0EEEvRT_OT0_DpOT1_, symObjAddr: 0x2C7F4, symBinAddr: 0x10002F00C, symSize: 0x54 }
  - { offset: 0x35032, size: 0x8, addend: 0x0, symName: __ZN8nlohmann16json_abi_v3_11_26detail11concat_intoINSt3__112basic_stringIcNS3_11char_traitsIcEENS3_9allocatorIcEEEES9_JRA3_KcS9_RKS9_ELi0EEEvRT_OT0_DpOT1_, symObjAddr: 0x2C848, symBinAddr: 0x10002F060, symSize: 0x4C }
  - { offset: 0x350C6, size: 0x8, addend: 0x0, symName: __ZN8nlohmann16json_abi_v3_11_26detail11concat_intoINSt3__112basic_stringIcNS3_11char_traitsIcEENS3_9allocatorIcEEEERA3_KcJS9_RKS9_ELi0EEEvRT_OT0_DpOT1_, symObjAddr: 0x2C894, symBinAddr: 0x10002F0AC, symSize: 0x44 }
  - { offset: 0x35145, size: 0x8, addend: 0x0, symName: __ZN8nlohmann16json_abi_v3_11_26detail6concatINSt3__112basic_stringIcNS3_11char_traitsIcEENS3_9allocatorIcEEEEJRA10_KcS9_SC_S9_EEET_DpOT0_, symObjAddr: 0x2C8D8, symBinAddr: 0x10002F0F0, symSize: 0xE4 }
  - { offset: 0x351D3, size: 0x8, addend: 0x0, symName: __ZN8nlohmann16json_abi_v3_11_26detail13concat_lengthIJNSt3__112basic_stringIcNS3_11char_traitsIcEENS3_9allocatorIcEEEERA10_KcS9_EEEmPSA_DpOT_, symObjAddr: 0x2C9BC, symBinAddr: 0x10002F1D4, symSize: 0x50 }
  - { offset: 0x35244, size: 0x8, addend: 0x0, symName: __ZN8nlohmann16json_abi_v3_11_26detail11concat_intoINSt3__112basic_stringIcNS3_11char_traitsIcEENS3_9allocatorIcEEEERA10_KcJS9_SC_S9_ELi0EEEvRT_OT0_DpOT1_, symObjAddr: 0x2CA0C, symBinAddr: 0x10002F224, symSize: 0x4C }
  - { offset: 0x352D7, size: 0x8, addend: 0x0, symName: __ZN8nlohmann16json_abi_v3_11_26detail13concat_lengthINSt3__112basic_stringIcNS3_11char_traitsIcEENS3_9allocatorIcEEEEJRA10_KcS9_EEEmRKT_DpOT0_, symObjAddr: 0x2CA58, symBinAddr: 0x10002F270, symSize: 0x48 }
  - { offset: 0x3533D, size: 0x8, addend: 0x0, symName: __ZN8nlohmann16json_abi_v3_11_26detail11concat_intoINSt3__112basic_stringIcNS3_11char_traitsIcEENS3_9allocatorIcEEEES9_JRA10_KcS9_ELi0EEEvRT_OT0_DpOT1_, symObjAddr: 0x2CAA0, symBinAddr: 0x10002F2B8, symSize: 0x44 }
  - { offset: 0x353BD, size: 0x8, addend: 0x0, symName: __ZN8nlohmann16json_abi_v3_11_26detail11concat_intoINSt3__112basic_stringIcNS3_11char_traitsIcEENS3_9allocatorIcEEEERA10_KcJS9_ELi0EEEvRT_OT0_DpOT1_, symObjAddr: 0x2CAE4, symBinAddr: 0x10002F2FC, symSize: 0x3C }
  - { offset: 0x35428, size: 0x8, addend: 0x0, symName: __ZN8nlohmann16json_abi_v3_11_26detail6concatINSt3__112basic_stringIcNS3_11char_traitsIcEENS3_9allocatorIcEEEEJRA15_KcRKS9_cEEET_DpOT0_, symObjAddr: 0x2CBA8, symBinAddr: 0x10002F3C0, symSize: 0xD8 }
  - { offset: 0x354A2, size: 0x8, addend: 0x0, symName: __ZN8nlohmann16json_abi_v3_11_26detail6concatINSt3__112basic_stringIcNS3_11char_traitsIcEENS3_9allocatorIcEEEEJPKcRA15_SA_S9_cEEET_DpOT0_, symObjAddr: 0x2CCAC, symBinAddr: 0x10002F4C4, symSize: 0xE8 }
  - { offset: 0x35530, size: 0x8, addend: 0x0, symName: __ZN8nlohmann16json_abi_v3_11_26detail6concatINSt3__112basic_stringIcNS3_11char_traitsIcEENS3_9allocatorIcEEEEJRA12_KcPSA_EEET_DpOT0_, symObjAddr: 0x2CDAC, symBinAddr: 0x10002F5C4, symSize: 0xC4 }
  - { offset: 0x35596, size: 0x8, addend: 0x0, symName: __ZN8nlohmann16json_abi_v3_11_26detail13concat_lengthIJRKNSt3__112basic_stringIcNS3_11char_traitsIcEENS3_9allocatorIcEEEEcEEEmPKcDpOT_, symObjAddr: 0x2D000, symBinAddr: 0x10002F818, symSize: 0x48 }
  - { offset: 0x355F3, size: 0x8, addend: 0x0, symName: __ZN8nlohmann16json_abi_v3_11_26detail11concat_intoINSt3__112basic_stringIcNS3_11char_traitsIcEENS3_9allocatorIcEEEERA15_KcJRKS9_cELi0EEEvRT_OT0_DpOT1_, symObjAddr: 0x2D048, symBinAddr: 0x10002F860, symSize: 0x44 }
  - { offset: 0x35673, size: 0x8, addend: 0x0, symName: __ZN8nlohmann16json_abi_v3_11_26detail11concat_intoINSt3__112basic_stringIcNS3_11char_traitsIcEENS3_9allocatorIcEEEERKS9_JcELi0EEEvRT_OT0_DpOT1_, symObjAddr: 0x2D08C, symBinAddr: 0x10002F8A4, symSize: 0x3C }
  - { offset: 0x356DE, size: 0x8, addend: 0x0, symName: __ZN8nlohmann16json_abi_v3_11_26detail13concat_lengthIJRA15_KcNSt3__112basic_stringIcNS6_11char_traitsIcEENS6_9allocatorIcEEEEcEEEmPS3_DpOT_, symObjAddr: 0x2D0C8, symBinAddr: 0x10002F8E0, symSize: 0x50 }
  - { offset: 0x3574F, size: 0x8, addend: 0x0, symName: __ZN8nlohmann16json_abi_v3_11_26detail11concat_intoINSt3__112basic_stringIcNS3_11char_traitsIcEENS3_9allocatorIcEEEEPKcJRA15_SA_S9_cELi0EEEvRT_OT0_DpOT1_, symObjAddr: 0x2D118, symBinAddr: 0x10002F930, symSize: 0x50 }
  - { offset: 0x357E3, size: 0x8, addend: 0x0, symName: __ZN8nlohmann16json_abi_v3_11_26detail11concat_intoINSt3__112basic_stringIcNS3_11char_traitsIcEENS3_9allocatorIcEEEERA15_KcJS9_cELi0EEEvRT_OT0_DpOT1_, symObjAddr: 0x2D168, symBinAddr: 0x10002F980, symSize: 0x44 }
  - { offset: 0x35863, size: 0x8, addend: 0x0, symName: __ZN8nlohmann16json_abi_v3_11_26detail11concat_intoINSt3__112basic_stringIcNS3_11char_traitsIcEENS3_9allocatorIcEEEERA12_KcJPSA_ELi0EEEvRT_OT0_DpOT1_, symObjAddr: 0x2D1AC, symBinAddr: 0x10002F9C4, symSize: 0x3C }
  - { offset: 0x358CE, size: 0x8, addend: 0x0, symName: __ZN8nlohmann16json_abi_v3_11_26detail6concatINSt3__112basic_stringIcNS3_11char_traitsIcEENS3_9allocatorIcEEEEJRA51_KcPSA_EEET_DpOT0_, symObjAddr: 0x30354, symBinAddr: 0x100032B6C, symSize: 0xC4 }
  - { offset: 0x35935, size: 0x8, addend: 0x0, symName: __ZN8nlohmann16json_abi_v3_11_26detail11concat_intoINSt3__112basic_stringIcNS3_11char_traitsIcEENS3_9allocatorIcEEEERA51_KcJPSA_ELi0EEEvRT_OT0_DpOT1_, symObjAddr: 0x30920, symBinAddr: 0x100033138, symSize: 0x3C }
  - { offset: 0x359A1, size: 0x8, addend: 0x0, symName: __ZN8nlohmann16json_abi_v3_11_26detail13int_to_stringINSt3__112basic_stringIcNS3_11char_traitsIcEENS3_9allocatorIcEEEEEEvRT_m, symObjAddr: 0x30BB4, symBinAddr: 0x1000333CC, symSize: 0x44 }
  - { offset: 0x359EC, size: 0x8, addend: 0x0, symName: __ZN8nlohmann16json_abi_v3_11_26detail6concatINSt3__112basic_stringIcNS3_11char_traitsIcEENS3_9allocatorIcEEEEJRA29_KcS9_RA5_SA_S9_EEET_DpOT0_, symObjAddr: 0x34DF0, symBinAddr: 0x100037608, symSize: 0xE4 }
  - { offset: 0x35E71, size: 0x8, addend: 0x0, symName: __ZN8nlohmann16json_abi_v3_11_26detail6concatINSt3__112basic_stringIcNS3_11char_traitsIcEENS3_9allocatorIcEEEEJRA39_KcS9_EEET_DpOT0_, symObjAddr: 0x34FE4, symBinAddr: 0x1000377FC, symSize: 0xCC }
  - { offset: 0x35ED7, size: 0x8, addend: 0x0, symName: __ZN8nlohmann16json_abi_v3_11_26detail13concat_lengthIJNSt3__112basic_stringIcNS3_11char_traitsIcEENS3_9allocatorIcEEEERA5_KcS9_EEEmPSA_DpOT_, symObjAddr: 0x3514C, symBinAddr: 0x100037964, symSize: 0x50 }
  - { offset: 0x35F48, size: 0x8, addend: 0x0, symName: __ZN8nlohmann16json_abi_v3_11_26detail11concat_intoINSt3__112basic_stringIcNS3_11char_traitsIcEENS3_9allocatorIcEEEERA29_KcJS9_RA5_SA_S9_ELi0EEEvRT_OT0_DpOT1_, symObjAddr: 0x3519C, symBinAddr: 0x1000379B4, symSize: 0x4C }
  - { offset: 0x35FDB, size: 0x8, addend: 0x0, symName: __ZN8nlohmann16json_abi_v3_11_26detail13concat_lengthINSt3__112basic_stringIcNS3_11char_traitsIcEENS3_9allocatorIcEEEEJRA5_KcS9_EEEmRKT_DpOT0_, symObjAddr: 0x351E8, symBinAddr: 0x100037A00, symSize: 0x48 }
  - { offset: 0x36041, size: 0x8, addend: 0x0, symName: __ZN8nlohmann16json_abi_v3_11_26detail11concat_intoINSt3__112basic_stringIcNS3_11char_traitsIcEENS3_9allocatorIcEEEES9_JRA5_KcS9_ELi0EEEvRT_OT0_DpOT1_, symObjAddr: 0x35230, symBinAddr: 0x100037A48, symSize: 0x44 }
  - { offset: 0x360C1, size: 0x8, addend: 0x0, symName: __ZN8nlohmann16json_abi_v3_11_26detail11concat_intoINSt3__112basic_stringIcNS3_11char_traitsIcEENS3_9allocatorIcEEEERA5_KcJS9_ELi0EEEvRT_OT0_DpOT1_, symObjAddr: 0x35274, symBinAddr: 0x100037A8C, symSize: 0x3C }
  - { offset: 0x3612D, size: 0x8, addend: 0x0, symName: __ZN8nlohmann16json_abi_v3_11_26detail11concat_intoINSt3__112basic_stringIcNS3_11char_traitsIcEENS3_9allocatorIcEEEERA39_KcJS9_ELi0EEEvRT_OT0_DpOT1_, symObjAddr: 0x352F8, symBinAddr: 0x100037B10, symSize: 0x3C }
  - { offset: 0x36198, size: 0x8, addend: 0x0, symName: __ZN8nlohmann16json_abi_v3_11_26detail8to_charsIdEEPcS3_PKcT_, symObjAddr: 0x359EC, symBinAddr: 0x100038204, symSize: 0x26C }
  - { offset: 0x3622A, size: 0x8, addend: 0x0, symName: __ZN8nlohmann16json_abi_v3_11_26detaileqENS1_20primitive_iterator_tES2_, symObjAddr: 0x387C8, symBinAddr: 0x10003AFE0, symSize: 0x28 }
  - { offset: 0x37BB4, size: 0x8, addend: 0x0, symName: __ZN8nlohmann16json_abi_v3_11_2rsERNSt3__113basic_istreamIcNS1_11char_traitsIcEEEERNS0_10basic_jsonINS1_3mapENS1_6vectorENS1_12basic_stringIcS4_NS1_9allocatorIcEEEEbxydSB_NS0_14adl_serializerENS9_IhNSB_IhEEEEEE, symObjAddr: 0x1468, symBinAddr: 0x100003C80, symSize: 0x134 }
  - { offset: 0x392E1, size: 0x8, addend: 0x0, symName: __ZN8nlohmann16json_abi_v3_11_26detail10serializerINS0_10basic_jsonINSt3__13mapENS4_6vectorENS4_12basic_stringIcNS4_11char_traitsIcEENS4_9allocatorIcEEEEbxydSA_NS0_14adl_serializerENS6_IhNSA_IhEEEEEEE6decodeERhRjh, symObjAddr: 0x34B08, symBinAddr: 0x100037320, symSize: 0x170 }
  - { offset: 0x39302, size: 0x8, addend: 0x0, symName: __ZZN8nlohmann16json_abi_v3_11_26detail10serializerINS0_10basic_jsonINSt3__13mapENS4_6vectorENS4_12basic_stringIcNS4_11char_traitsIcEENS4_9allocatorIcEEEEbxydSA_NS0_14adl_serializerENS6_IhNSA_IhEEEEEEE6decodeERhRjhE5utf8d, symObjAddr: 0x3DAF2, symBinAddr: 0x100041982, symSize: 0x0 }
  - { offset: 0x3939B, size: 0x8, addend: 0x0, symName: __ZN8nlohmann16json_abi_v3_11_26detail10serializerINS0_10basic_jsonINSt3__13mapENS4_6vectorENS4_12basic_stringIcNS4_11char_traitsIcEENS4_9allocatorIcEEEEbxydSA_NS0_14adl_serializerENS6_IhNSA_IhEEEEEEE12dump_integerIhLi0EEEvT_, symObjAddr: 0x34144, symBinAddr: 0x10003695C, symSize: 0x2CC }
  - { offset: 0x393C0, size: 0x8, addend: 0x0, symName: __ZZN8nlohmann16json_abi_v3_11_26detail10serializerINS0_10basic_jsonINSt3__13mapENS4_6vectorENS4_12basic_stringIcNS4_11char_traitsIcEENS4_9allocatorIcEEEEbxydSA_NS0_14adl_serializerENS6_IhNSA_IhEEEEEEE12dump_integerIhLi0EEEvT_E12digits_to_99, symObjAddr: 0x3DC82, symBinAddr: 0x100041B12, symSize: 0x0 }
  - { offset: 0x394E3, size: 0x8, addend: 0x0, symName: __ZN8nlohmann16json_abi_v3_11_26detail10serializerINS0_10basic_jsonINSt3__13mapENS4_6vectorENS4_12basic_stringIcNS4_11char_traitsIcEENS4_9allocatorIcEEEEbxydSA_NS0_14adl_serializerENS6_IhNSA_IhEEEEEEE12dump_integerIyLi0EEEvT_, symObjAddr: 0x34480, symBinAddr: 0x100036C98, symSize: 0x2C8 }
  - { offset: 0x39508, size: 0x8, addend: 0x0, symName: __ZZN8nlohmann16json_abi_v3_11_26detail10serializerINS0_10basic_jsonINSt3__13mapENS4_6vectorENS4_12basic_stringIcNS4_11char_traitsIcEENS4_9allocatorIcEEEEbxydSA_NS0_14adl_serializerENS6_IhNSA_IhEEEEEEE12dump_integerIyLi0EEEvT_E12digits_to_99, symObjAddr: 0x3DD4A, symBinAddr: 0x100041BDA, symSize: 0x0 }
  - { offset: 0x395A7, size: 0x8, addend: 0x0, symName: __ZN8nlohmann16json_abi_v3_11_26detail10serializerINS0_10basic_jsonINSt3__13mapENS4_6vectorENS4_12basic_stringIcNS4_11char_traitsIcEENS4_9allocatorIcEEEEbxydSA_NS0_14adl_serializerENS6_IhNSA_IhEEEEEEE12dump_integerIxLi0EEEvT_, symObjAddr: 0x3478C, symBinAddr: 0x100036FA4, symSize: 0x2C8 }
  - { offset: 0x395CC, size: 0x8, addend: 0x0, symName: __ZZN8nlohmann16json_abi_v3_11_26detail10serializerINS0_10basic_jsonINSt3__13mapENS4_6vectorENS4_12basic_stringIcNS4_11char_traitsIcEENS4_9allocatorIcEEEEbxydSA_NS0_14adl_serializerENS6_IhNSA_IhEEEEEEE12dump_integerIxLi0EEEvT_E12digits_to_99, symObjAddr: 0x3DE12, symBinAddr: 0x100041CA2, symSize: 0x0 }
  - { offset: 0x3966B, size: 0x8, addend: 0x0, symName: __ZN8nlohmann16json_abi_v3_11_26detail10serializerINS0_10basic_jsonINSt3__13mapENS4_6vectorENS4_12basic_stringIcNS4_11char_traitsIcEENS4_9allocatorIcEEEEbxydSA_NS0_14adl_serializerENS6_IhNSA_IhEEEEEEE10dump_floatEd, symObjAddr: 0x34A54, symBinAddr: 0x10003726C, symSize: 0x6C }
  - { offset: 0x39690, size: 0x8, addend: 0x0, symName: __ZZN8nlohmann16json_abi_v3_11_26detail10serializerINS0_10basic_jsonINSt3__13mapENS4_6vectorENS4_12basic_stringIcNS4_11char_traitsIcEENS4_9allocatorIcEEEEbxydSA_NS0_14adl_serializerENS6_IhNSA_IhEEEEEEE10dump_floatEdE24is_ieee_single_or_double, symObjAddr: 0x3DEDA, symBinAddr: 0x100041D6A, symSize: 0x0 }
  - { offset: 0x39DC2, size: 0x8, addend: 0x0, symName: __ZN3tmw10MakeSharedI8TreeNodeJRA9_KcEEENSt3__110shared_ptrIT_EEDpOT0_, symObjAddr: 0x2BD8, symBinAddr: 0x1000053F0, symSize: 0x2C }
  - { offset: 0x39E03, size: 0x8, addend: 0x0, symName: __ZN3tmw10MakeSharedI8TreeNodeJRKNSt3__112basic_stringIcNS2_11char_traitsIcEENS2_9allocatorIcEEEERKNS_12ValueVariantEEEENS2_10shared_ptrIT_EEDpOT0_, symObjAddr: 0x6374, symBinAddr: 0x100008B8C, symSize: 0x34 }
  - { offset: 0x3A603, size: 0x8, addend: 0x0, symName: __ZNSt3__110shared_ptrI8TreeNodeE18__enable_weak_thisB8ne180100IS1_S1_vEEvPKNS_23enable_shared_from_thisIT_EEPT0_, symObjAddr: 0x5D60, symBinAddr: 0x100008578, symSize: 0x7C }
  - { offset: 0x3A6D4, size: 0x8, addend: 0x0, symName: __ZNSt3__16vectorINS_10shared_ptrI8TreeNodeEENS_9allocatorIS3_EEE26__swap_out_circular_bufferERNS_14__split_bufferIS3_RS5_EE, symObjAddr: 0x6B04, symBinAddr: 0x10000931C, symSize: 0x110 }
  - { offset: 0x3A826, size: 0x8, addend: 0x0, symName: __ZNK3tmw12ValueVariant9ExtractAsINSt3__112basic_stringIcNS2_11char_traitsIcEENS2_9allocatorIcEEEELi0EEET_v, symObjAddr: 0xC420, symBinAddr: 0x10000EC38, symSize: 0x30 }
  - { offset: 0x3A97A, size: 0x8, addend: 0x0, symName: __ZNSt3__16vectorIN8nlohmann16json_abi_v3_11_210basic_jsonINS_3mapES0_NS_12basic_stringIcNS_11char_traitsIcEENS_9allocatorIcEEEEbxydS8_NS2_14adl_serializerENS0_IhNS8_IhEEEEEENS8_ISE_EEE26__swap_out_circular_bufferERNS_14__split_bufferISE_RSF_EE, symObjAddr: 0xEDA8, symBinAddr: 0x1000115C0, symSize: 0x110 }
  - { offset: 0x3ACA9, size: 0x8, addend: 0x0, symName: __ZNSt3__16vectorIcNS_9allocatorIcEEE26__swap_out_circular_bufferERNS_14__split_bufferIcRS2_EE, symObjAddr: 0x18410, symBinAddr: 0x10001AC28, symSize: 0x110 }
  - { offset: 0x3B027, size: 0x8, addend: 0x0, symName: __ZNSt3__16vectorIPN8nlohmann16json_abi_v3_11_210basic_jsonINS_3mapES0_NS_12basic_stringIcNS_11char_traitsIcEENS_9allocatorIcEEEEbxydS8_NS2_14adl_serializerENS0_IhNS8_IhEEEEEENS8_ISF_EEE26__swap_out_circular_bufferERNS_14__split_bufferISF_RSG_EE, symObjAddr: 0x211D0, symBinAddr: 0x1000239E8, symSize: 0x110 }
  - { offset: 0x3B2A3, size: 0x8, addend: 0x0, symName: _main, symObjAddr: 0x0, symBinAddr: 0x100002818, symSize: 0x11C4 }
  - { offset: 0x3B434, size: 0x8, addend: 0x0, symName: __ZNSt3__112basic_stringIcNS_11char_traitsIcEENS_9allocatorIcEEEC1B8ne180100ILi0EEEPKc, symObjAddr: 0x11C4, symBinAddr: 0x1000039DC, symSize: 0x34 }
  - { offset: 0x3B731, size: 0x8, addend: 0x0, symName: __ZNSt3__114basic_ifstreamIcNS_11char_traitsIcEEEC1ERKNS_12basic_stringIcS2_NS_9allocatorIcEEEEj, symObjAddr: 0x11F8, symBinAddr: 0x100003A10, symSize: 0x164 }
  - { offset: 0x3B77B, size: 0x8, addend: 0x0, symName: __ZNKSt3__114basic_ifstreamIcNS_11char_traitsIcEEE7is_openEv, symObjAddr: 0x135C, symBinAddr: 0x100003B74, symSize: 0x2C }
  - { offset: 0x3B7A3, size: 0x8, addend: 0x0, symName: __ZN8nlohmann16json_abi_v3_11_210basic_jsonINSt3__13mapENS2_6vectorENS2_12basic_stringIcNS2_11char_traitsIcEENS2_9allocatorIcEEEEbxydS8_NS0_14adl_serializerENS4_IhNS8_IhEEEEEC1EDn, symObjAddr: 0x141C, symBinAddr: 0x100003C34, symSize: 0x4C }
  - { offset: 0x3B8BA, size: 0x8, addend: 0x0, symName: __ZN13JsonCollectorC1Ev, symObjAddr: 0x159C, symBinAddr: 0x100003DB4, symSize: 0x2C }
  - { offset: 0x3B8FD, size: 0x8, addend: 0x0, symName: __ZNK8nlohmann16json_abi_v3_11_210basic_jsonINSt3__13mapENS2_6vectorENS2_12basic_stringIcNS2_11char_traitsIcEENS2_9allocatorIcEEEEbxydS8_NS0_14adl_serializerENS4_IhNS8_IhEEEEE8containsIRA7_KcLi0EEEbOT_, symObjAddr: 0x15C8, symBinAddr: 0x100003DE0, symSize: 0x88 }
  - { offset: 0x3B941, size: 0x8, addend: 0x0, symName: __ZN13JsonCollector12addRootChildERKNSt3__112basic_stringIcNS0_11char_traitsIcEENS0_9allocatorIcEEEERKN3tmw12ValueVariantE, symObjAddr: 0x1650, symBinAddr: 0x100003E68, symSize: 0x7C }
  - { offset: 0x3B983, size: 0x8, addend: 0x0, symName: __ZN3tmw12ValueVariantC1Ev, symObjAddr: 0x16CC, symBinAddr: 0x100003EE4, symSize: 0x2C }
  - { offset: 0x3B9AD, size: 0x8, addend: 0x0, symName: __ZN3tmw12ValueVariantD1Ev, symObjAddr: 0x16F8, symBinAddr: 0x100003F10, symSize: 0x2C }
  - { offset: 0x3B9D9, size: 0x8, addend: 0x0, symName: __ZN8nlohmann16json_abi_v3_11_210basic_jsonINSt3__13mapENS2_6vectorENS2_12basic_stringIcNS2_11char_traitsIcEENS2_9allocatorIcEEEEbxydS8_NS0_14adl_serializerENS4_IhNS8_IhEEEEEixIKcEERSE_PT_, symObjAddr: 0x1724, symBinAddr: 0x100003F3C, symSize: 0x78 }
  - { offset: 0x3BA17, size: 0x8, addend: 0x0, symName: __ZN8nlohmann16json_abi_v3_11_210basic_jsonINSt3__13mapENS2_6vectorENS2_12basic_stringIcNS2_11char_traitsIcEENS2_9allocatorIcEEEEbxydS8_NS0_14adl_serializerENS4_IhNS8_IhEEEEE5itemsEv, symObjAddr: 0x179C, symBinAddr: 0x100003FB4, symSize: 0x2C }
  - { offset: 0x3BA3D, size: 0x8, addend: 0x0, symName: __ZNK8nlohmann16json_abi_v3_11_26detail15iteration_proxyINS1_9iter_implINS0_10basic_jsonINSt3__13mapENS5_6vectorENS5_12basic_stringIcNS5_11char_traitsIcEENS5_9allocatorIcEEEEbxydSB_NS0_14adl_serializerENS7_IhNSB_IhEEEEEEEEE5beginEv, symObjAddr: 0x17C8, symBinAddr: 0x100003FE0, symSize: 0x48 }
  - { offset: 0x3BA63, size: 0x8, addend: 0x0, symName: __ZNK8nlohmann16json_abi_v3_11_26detail15iteration_proxyINS1_9iter_implINS0_10basic_jsonINSt3__13mapENS5_6vectorENS5_12basic_stringIcNS5_11char_traitsIcEENS5_9allocatorIcEEEEbxydSB_NS0_14adl_serializerENS7_IhNSB_IhEEEEEEEEE3endEv, symObjAddr: 0x1810, symBinAddr: 0x100004028, symSize: 0x48 }
  - { offset: 0x3BA89, size: 0x8, addend: 0x0, symName: __ZNK8nlohmann16json_abi_v3_11_26detail21iteration_proxy_valueINS1_9iter_implINS0_10basic_jsonINSt3__13mapENS5_6vectorENS5_12basic_stringIcNS5_11char_traitsIcEENS5_9allocatorIcEEEEbxydSB_NS0_14adl_serializerENS7_IhNSB_IhEEEEEEEEEneERKSJ_, symObjAddr: 0x1858, symBinAddr: 0x100004070, symSize: 0x30 }
  - { offset: 0x3BABE, size: 0x8, addend: 0x0, symName: __ZNK8nlohmann16json_abi_v3_11_26detail21iteration_proxy_valueINS1_9iter_implINS0_10basic_jsonINSt3__13mapENS5_6vectorENS5_12basic_stringIcNS5_11char_traitsIcEENS5_9allocatorIcEEEEbxydSB_NS0_14adl_serializerENS7_IhNSB_IhEEEEEEEEEdeEv, symObjAddr: 0x1888, symBinAddr: 0x1000040A0, symSize: 0x14 }
  - { offset: 0x3BAE4, size: 0x8, addend: 0x0, symName: __ZN13JsonCollector14addChildToNodeERKNSt3__110shared_ptrI8TreeNodeEERKNS0_12basic_stringIcNS0_11char_traitsIcEENS0_9allocatorIcEEEERKN3tmw12ValueVariantE, symObjAddr: 0x18E4, symBinAddr: 0x1000040FC, symSize: 0x80 }
  - { offset: 0x3BB34, size: 0x8, addend: 0x0, symName: __ZNK13JsonCollector14findNodeByNameERKNSt3__112basic_stringIcNS0_11char_traitsIcEENS0_9allocatorIcEEEE, symObjAddr: 0x1964, symBinAddr: 0x10000417C, symSize: 0x20C }
  - { offset: 0x3BBE3, size: 0x8, addend: 0x0, symName: __ZNK8nlohmann16json_abi_v3_11_210basic_jsonINSt3__13mapENS2_6vectorENS2_12basic_stringIcNS2_11char_traitsIcEENS2_9allocatorIcEEEEbxydS8_NS0_14adl_serializerENS4_IhNS8_IhEEEEE4dumpEicbNS0_6detail15error_handler_tE, symObjAddr: 0x1B70, symBinAddr: 0x100004388, symSize: 0x1F0 }
  - { offset: 0x3BC71, size: 0x8, addend: 0x0, symName: __ZN3tmw12ValueVariantC1INSt3__112basic_stringIcNS2_11char_traitsIcEENS2_9allocatorIcEEEELi0EEEOT_, symObjAddr: 0x1D60, symBinAddr: 0x100004578, symSize: 0x34 }
  - { offset: 0x3BCB8, size: 0x8, addend: 0x0, symName: __ZNSt3__110shared_ptrI8TreeNodeED1B8ne180100Ev, symObjAddr: 0x1D94, symBinAddr: 0x1000045AC, symSize: 0x2C }
  - { offset: 0x3BCE2, size: 0x8, addend: 0x0, symName: __ZN8nlohmann16json_abi_v3_11_26detail21iteration_proxy_valueINS1_9iter_implINS0_10basic_jsonINSt3__13mapENS5_6vectorENS5_12basic_stringIcNS5_11char_traitsIcEENS5_9allocatorIcEEEEbxydSB_NS0_14adl_serializerENS7_IhNSB_IhEEEEEEEEEppEv, symObjAddr: 0x1DC0, symBinAddr: 0x1000045D8, symSize: 0x38 }
  - { offset: 0x3BD08, size: 0x8, addend: 0x0, symName: __ZN8nlohmann16json_abi_v3_11_26detail21iteration_proxy_valueINS1_9iter_implINS0_10basic_jsonINSt3__13mapENS5_6vectorENS5_12basic_stringIcNS5_11char_traitsIcEENS5_9allocatorIcEEEEbxydSB_NS0_14adl_serializerENS7_IhNSB_IhEEEEEEEEED1Ev, symObjAddr: 0x1DF8, symBinAddr: 0x100004610, symSize: 0x2C }
  - { offset: 0x3BD3D, size: 0x8, addend: 0x0, symName: __ZNK8nlohmann16json_abi_v3_11_210basic_jsonINSt3__13mapENS2_6vectorENS2_12basic_stringIcNS2_11char_traitsIcEENS2_9allocatorIcEEEEbxydS8_NS0_14adl_serializerENS4_IhNS8_IhEEEEE8containsIRA8_KcLi0EEEbOT_, symObjAddr: 0x1E24, symBinAddr: 0x10000463C, symSize: 0x88 }
  - { offset: 0x3BD81, size: 0x8, addend: 0x0, symName: __ZN8nlohmann16json_abi_v3_11_210basic_jsonINSt3__13mapENS2_6vectorENS2_12basic_stringIcNS2_11char_traitsIcEENS2_9allocatorIcEEEEbxydS8_NS0_14adl_serializerENS4_IhNS8_IhEEEEE5beginEv, symObjAddr: 0x1EAC, symBinAddr: 0x1000046C4, symSize: 0x40 }
  - { offset: 0x3BDB7, size: 0x8, addend: 0x0, symName: __ZN8nlohmann16json_abi_v3_11_210basic_jsonINSt3__13mapENS2_6vectorENS2_12basic_stringIcNS2_11char_traitsIcEENS2_9allocatorIcEEEEbxydS8_NS0_14adl_serializerENS4_IhNS8_IhEEEEE3endEv, symObjAddr: 0x1EEC, symBinAddr: 0x100004704, symSize: 0x40 }
  - { offset: 0x3BDED, size: 0x8, addend: 0x0, symName: __ZNK8nlohmann16json_abi_v3_11_26detail9iter_implINS0_10basic_jsonINSt3__13mapENS4_6vectorENS4_12basic_stringIcNS4_11char_traitsIcEENS4_9allocatorIcEEEEbxydSA_NS0_14adl_serializerENS6_IhNSA_IhEEEEEEEneISH_LDn0EEEbRKT_, symObjAddr: 0x1F2C, symBinAddr: 0x100004744, symSize: 0x34 }
  - { offset: 0x3BE31, size: 0x8, addend: 0x0, symName: __ZNK8nlohmann16json_abi_v3_11_26detail9iter_implINS0_10basic_jsonINSt3__13mapENS4_6vectorENS4_12basic_stringIcNS4_11char_traitsIcEENS4_9allocatorIcEEEEbxydSA_NS0_14adl_serializerENS6_IhNSA_IhEEEEEEEdeEv, symObjAddr: 0x1F60, symBinAddr: 0x100004778, symSize: 0x32C }
  - { offset: 0x3BE57, size: 0x8, addend: 0x0, symName: __ZNK8nlohmann16json_abi_v3_11_210basic_jsonINSt3__13mapENS2_6vectorENS2_12basic_stringIcNS2_11char_traitsIcEENS2_9allocatorIcEEEEbxydS8_NS0_14adl_serializerENS4_IhNS8_IhEEEEEixIKcEERKSE_PT_, symObjAddr: 0x22B4, symBinAddr: 0x100004ACC, symSize: 0x78 }
  - { offset: 0x3BEAE, size: 0x8, addend: 0x0, symName: __ZNK8nlohmann16json_abi_v3_11_210basic_jsonINSt3__13mapENS2_6vectorENS2_12basic_stringIcNS2_11char_traitsIcEENS2_9allocatorIcEEEEbxydS8_NS0_14adl_serializerENS4_IhNS8_IhEEEEE8containsIRA12_KcLi0EEEbOT_, symObjAddr: 0x232C, symBinAddr: 0x100004B44, symSize: 0x88 }
  - { offset: 0x3BEF2, size: 0x8, addend: 0x0, symName: __ZN8nlohmann16json_abi_v3_11_26detail9iter_implINS0_10basic_jsonINSt3__13mapENS4_6vectorENS4_12basic_stringIcNS4_11char_traitsIcEENS4_9allocatorIcEEEEbxydSA_NS0_14adl_serializerENS6_IhNSA_IhEEEEEEEppEv, symObjAddr: 0x23B4, symBinAddr: 0x100004BCC, symSize: 0xE0 }
  - { offset: 0x3BF18, size: 0x8, addend: 0x0, symName: __ZNK13JsonCollector7getRootEv, symObjAddr: 0x24BC, symBinAddr: 0x100004CD4, symSize: 0x38 }
  - { offset: 0x3BF3E, size: 0x8, addend: 0x0, symName: __ZNKSt3__110shared_ptrI8TreeNodeEptB8ne180100Ev, symObjAddr: 0x24F4, symBinAddr: 0x100004D0C, symSize: 0x18 }
  - { offset: 0x3BF64, size: 0x8, addend: 0x0, symName: __ZNK8TreeNode13printNodeInfoEv, symObjAddr: 0x250C, symBinAddr: 0x100004D24, symSize: 0x1D4 }
  - { offset: 0x3BFCD, size: 0x8, addend: 0x0, symName: __ZNK13JsonCollector14printNodeValueERKNSt3__112basic_stringIcNS0_11char_traitsIcEENS0_9allocatorIcEEEE, symObjAddr: 0x26E0, symBinAddr: 0x100004EF8, symSize: 0x13C }
  - { offset: 0x3C00F, size: 0x8, addend: 0x0, symName: __ZNSt3__16vectorINS_12basic_stringIcNS_11char_traitsIcEENS_9allocatorIcEEEENS4_IS6_EEEC1B8ne180100ESt16initializer_listIS6_E, symObjAddr: 0x281C, symBinAddr: 0x100005034, symSize: 0x3C }
  - { offset: 0x3C04A, size: 0x8, addend: 0x0, symName: __ZNK13JsonCollector14findNodeByPathERKNSt3__16vectorINS0_12basic_stringIcNS0_11char_traitsIcEENS0_9allocatorIcEEEENS5_IS7_EEEE, symObjAddr: 0x2858, symBinAddr: 0x100005070, symSize: 0x1A4 }
  - { offset: 0x3C131, size: 0x8, addend: 0x0, symName: __ZNKSt3__110shared_ptrI8TreeNodeEcvbB8ne180100Ev, symObjAddr: 0x29FC, symBinAddr: 0x100005214, symSize: 0x30 }
  - { offset: 0x3C157, size: 0x8, addend: 0x0, symName: __ZNK8TreeNode7getNameEv, symObjAddr: 0x2A2C, symBinAddr: 0x100005244, symSize: 0x3C }
  - { offset: 0x3C17D, size: 0x8, addend: 0x0, symName: __ZNK8TreeNode8getValueEv, symObjAddr: 0x2A68, symBinAddr: 0x100005280, symSize: 0x3C }
  - { offset: 0x3C1A3, size: 0x8, addend: 0x0, symName: __ZNK3tmw12ValueVariant8ToStringEv, symObjAddr: 0x2AA4, symBinAddr: 0x1000052BC, symSize: 0x2C }
  - { offset: 0x3C1C9, size: 0x8, addend: 0x0, symName: __ZNSt3__16vectorINS_12basic_stringIcNS_11char_traitsIcEENS_9allocatorIcEEEENS4_IS6_EEED1B8ne180100Ev, symObjAddr: 0x2AD0, symBinAddr: 0x1000052E8, symSize: 0x2C }
  - { offset: 0x3C1F3, size: 0x8, addend: 0x0, symName: __ZN13JsonCollectorD1Ev, symObjAddr: 0x2AFC, symBinAddr: 0x100005314, symSize: 0x2C }
  - { offset: 0x3C21F, size: 0x8, addend: 0x0, symName: __ZN8nlohmann16json_abi_v3_11_210basic_jsonINSt3__13mapENS2_6vectorENS2_12basic_stringIcNS2_11char_traitsIcEENS2_9allocatorIcEEEEbxydS8_NS0_14adl_serializerENS4_IhNS8_IhEEEEED1Ev, symObjAddr: 0x2B28, symBinAddr: 0x100005340, symSize: 0x2C }
  - { offset: 0x3C24F, size: 0x8, addend: 0x0, symName: __ZNSt3__114basic_ifstreamIcNS_11char_traitsIcEEED1Ev, symObjAddr: 0x2B54, symBinAddr: 0x10000536C, symSize: 0x40 }
  - { offset: 0x3C27C, size: 0x8, addend: 0x0, symName: __ZN13JsonCollectorC2Ev, symObjAddr: 0x2BA4, symBinAddr: 0x1000053BC, symSize: 0x34 }
  - { offset: 0x3C2A6, size: 0x8, addend: 0x0, symName: __ZNSt3__19allocatorI8TreeNodeEC1B8ne180100Ev, symObjAddr: 0x2CDC, symBinAddr: 0x1000054F4, symSize: 0x2C }
  - { offset: 0x3C327, size: 0x8, addend: 0x0, symName: __ZNSt3__118__allocation_guardINS_9allocatorINS_20__shared_ptr_emplaceI8TreeNodeNS1_IS3_EEEEEEEC1B8ne180100IS4_EET_m, symObjAddr: 0x2D08, symBinAddr: 0x100005520, symSize: 0x34 }
  - { offset: 0x3C376, size: 0x8, addend: 0x0, symName: __ZNKSt3__118__allocation_guardINS_9allocatorINS_20__shared_ptr_emplaceI8TreeNodeNS1_IS3_EEEEEEE5__getB8ne180100Ev, symObjAddr: 0x2D3C, symBinAddr: 0x100005554, symSize: 0x18 }
  - { offset: 0x3C3B5, size: 0x8, addend: 0x0, symName: __ZNSt3__120__shared_ptr_emplaceI8TreeNodeNS_9allocatorIS1_EEEC1B8ne180100IJRA9_KcES3_Li0EEES3_DpOT_, symObjAddr: 0x2D54, symBinAddr: 0x10000556C, symSize: 0x34 }
  - { offset: 0x3C417, size: 0x8, addend: 0x0, symName: __ZNSt3__118__allocation_guardINS_9allocatorINS_20__shared_ptr_emplaceI8TreeNodeNS1_IS3_EEEEEEE13__release_ptrB8ne180100Ev, symObjAddr: 0x2D88, symBinAddr: 0x1000055A0, symSize: 0x24 }
  - { offset: 0x3C44B, size: 0x8, addend: 0x0, symName: __ZNSt3__110shared_ptrI8TreeNodeE27__create_with_control_blockB8ne180100IS1_NS_20__shared_ptr_emplaceIS1_NS_9allocatorIS1_EEEEEES2_PT_PT0_, symObjAddr: 0x2DAC, symBinAddr: 0x1000055C4, symSize: 0xC4 }
  - { offset: 0x3C4A0, size: 0x8, addend: 0x0, symName: __ZNSt3__120__shared_ptr_emplaceI8TreeNodeNS_9allocatorIS1_EEE10__get_elemB8ne180100Ev, symObjAddr: 0x2E70, symBinAddr: 0x100005688, symSize: 0x28 }
  - { offset: 0x3C4C6, size: 0x8, addend: 0x0, symName: __ZNSt3__118__allocation_guardINS_9allocatorINS_20__shared_ptr_emplaceI8TreeNodeNS1_IS3_EEEEEEED1B8ne180100Ev, symObjAddr: 0x2E98, symBinAddr: 0x1000056B0, symSize: 0x2C }
  - { offset: 0x3C4F0, size: 0x8, addend: 0x0, symName: __ZNSt3__118__allocation_guardINS_9allocatorINS_20__shared_ptr_emplaceI8TreeNodeNS1_IS3_EEEEEEEC2B8ne180100IS4_EET_m, symObjAddr: 0x2EC4, symBinAddr: 0x1000056DC, symSize: 0x50 }
  - { offset: 0x3C53F, size: 0x8, addend: 0x0, symName: __ZNSt3__19allocatorINS_20__shared_ptr_emplaceI8TreeNodeNS0_IS2_EEEEEC1B8ne180100IS2_EERKNS0_IT_EE, symObjAddr: 0x2F14, symBinAddr: 0x10000572C, symSize: 0x34 }
  - { offset: 0x3C57D, size: 0x8, addend: 0x0, symName: __ZNSt3__116allocator_traitsINS_9allocatorINS_20__shared_ptr_emplaceI8TreeNodeNS1_IS3_EEEEEEE8allocateB8ne180100ERS6_m, symObjAddr: 0x2F48, symBinAddr: 0x100005760, symSize: 0x2C }
  - { offset: 0x3C5B0, size: 0x8, addend: 0x0, symName: __ZNSt3__19allocatorINS_20__shared_ptr_emplaceI8TreeNodeNS0_IS2_EEEEEC2B8ne180100IS2_EERKNS0_IT_EE, symObjAddr: 0x2F74, symBinAddr: 0x10000578C, symSize: 0x30 }
  - { offset: 0x3C5EE, size: 0x8, addend: 0x0, symName: __ZNSt3__116__non_trivial_ifILb1ENS_9allocatorINS_20__shared_ptr_emplaceI8TreeNodeNS1_IS3_EEEEEEEC2B8ne180100Ev, symObjAddr: 0x2FA4, symBinAddr: 0x1000057BC, symSize: 0x14 }
  - { offset: 0x3C618, size: 0x8, addend: 0x0, symName: __ZNSt3__19allocatorINS_20__shared_ptr_emplaceI8TreeNodeNS0_IS2_EEEEE8allocateB8ne180100Em, symObjAddr: 0x2FB8, symBinAddr: 0x1000057D0, symSize: 0x5C }
  - { offset: 0x3C657, size: 0x8, addend: 0x0, symName: __ZNSt3__116allocator_traitsINS_9allocatorINS_20__shared_ptr_emplaceI8TreeNodeNS1_IS3_EEEEEEE8max_sizeB8ne180100IS6_vEEmRKS6_, symObjAddr: 0x3014, symBinAddr: 0x10000582C, symSize: 0x24 }
  - { offset: 0x3C685, size: 0x8, addend: 0x0, symName: __ZNKSt3__19allocatorINS_20__shared_ptr_emplaceI8TreeNodeNS0_IS2_EEEEE8max_sizeB8ne180100Ev, symObjAddr: 0x30CC, symBinAddr: 0x1000058E4, symSize: 0x20 }
  - { offset: 0x3C6AB, size: 0x8, addend: 0x0, symName: __ZNSt3__120__shared_ptr_emplaceI8TreeNodeNS_9allocatorIS1_EEEC2B8ne180100IJRA9_KcES3_Li0EEES3_DpOT_, symObjAddr: 0x315C, symBinAddr: 0x100005974, symSize: 0xBC }
  - { offset: 0x3C72E, size: 0x8, addend: 0x0, symName: __ZNSt3__119__shared_weak_countC2B8ne180100El, symObjAddr: 0x3218, symBinAddr: 0x100005A30, symSize: 0x4C }
  - { offset: 0x3C766, size: 0x8, addend: 0x0, symName: __ZNSt3__120__shared_ptr_emplaceI8TreeNodeNS_9allocatorIS1_EEE8_StorageC1B8ne180100EOS3_, symObjAddr: 0x3264, symBinAddr: 0x100005A7C, symSize: 0x34 }
  - { offset: 0x3C79F, size: 0x8, addend: 0x0, symName: __ZNSt3__120__shared_ptr_emplaceI8TreeNodeNS_9allocatorIS1_EEE11__get_allocB8ne180100Ev, symObjAddr: 0x3298, symBinAddr: 0x100005AB0, symSize: 0x28 }
  - { offset: 0x3C7CB, size: 0x8, addend: 0x0, symName: __ZNSt3__116allocator_traitsINS_9allocatorI8TreeNodeEEE9constructB8ne180100IS2_JRA9_KcEvEEvRS3_PT_DpOT0_, symObjAddr: 0x32C0, symBinAddr: 0x100005AD8, symSize: 0x34 }
  - { offset: 0x3C822, size: 0x8, addend: 0x0, symName: __ZNSt3__120__shared_ptr_emplaceI8TreeNodeNS_9allocatorIS1_EEE8_StorageD1B8ne180100Ev, symObjAddr: 0x32F4, symBinAddr: 0x100005B0C, symSize: 0x2C }
  - { offset: 0x3C84C, size: 0x8, addend: 0x0, symName: __ZNSt3__120__shared_ptr_emplaceI8TreeNodeNS_9allocatorIS1_EEED1Ev, symObjAddr: 0x3320, symBinAddr: 0x100005B38, symSize: 0x2C }
  - { offset: 0x3C878, size: 0x8, addend: 0x0, symName: __ZNSt3__120__shared_ptr_emplaceI8TreeNodeNS_9allocatorIS1_EEED0Ev, symObjAddr: 0x334C, symBinAddr: 0x100005B64, symSize: 0x30 }
  - { offset: 0x3C8A4, size: 0x8, addend: 0x0, symName: __ZNSt3__120__shared_ptr_emplaceI8TreeNodeNS_9allocatorIS1_EEE16__on_zero_sharedEv, symObjAddr: 0x337C, symBinAddr: 0x100005B94, symSize: 0x24 }
  - { offset: 0x3C8CA, size: 0x8, addend: 0x0, symName: __ZNSt3__120__shared_ptr_emplaceI8TreeNodeNS_9allocatorIS1_EEE21__on_zero_shared_weakEv, symObjAddr: 0x33A0, symBinAddr: 0x100005BB8, symSize: 0x5C }
  - { offset: 0x3C90B, size: 0x8, addend: 0x0, symName: __ZNSt3__114__shared_countC2B8ne180100El, symObjAddr: 0x33FC, symBinAddr: 0x100005C14, symSize: 0x30 }
  - { offset: 0x3C943, size: 0x8, addend: 0x0, symName: __ZNSt3__120__shared_ptr_emplaceI8TreeNodeNS_9allocatorIS1_EEE8_StorageC2B8ne180100EOS3_, symObjAddr: 0x342C, symBinAddr: 0x100005C44, symSize: 0x30 }
  - { offset: 0x3C97C, size: 0x8, addend: 0x0, symName: __ZNSt3__120__shared_ptr_emplaceI8TreeNodeNS_9allocatorIS1_EEE8_Storage11__get_allocB8ne180100Ev, symObjAddr: 0x345C, symBinAddr: 0x100005C74, symSize: 0x3C }
  - { offset: 0x3C9CF, size: 0x8, addend: 0x0, symName: __ZNSt3__117__compressed_pairINS_9allocatorI8TreeNodeEES2_E16__get_first_baseB8ne180100EPS4_, symObjAddr: 0x3498, symBinAddr: 0x100005CB0, symSize: 0x14 }
  - { offset: 0x3C9F2, size: 0x8, addend: 0x0, symName: __ZNSt3__19allocatorI8TreeNodeE9constructB8ne180100IS1_JRA9_KcEEEvPT_DpOT0_, symObjAddr: 0x34AC, symBinAddr: 0x100005CC4, symSize: 0xA0 }
  - { offset: 0x3CA48, size: 0x8, addend: 0x0, symName: __ZN8TreeNodeC1ERKNSt3__112basic_stringIcNS0_11char_traitsIcEENS0_9allocatorIcEEEERKN3tmw12ValueVariantE, symObjAddr: 0x354C, symBinAddr: 0x100005D64, symSize: 0x3C }
  - { offset: 0x3CA8E, size: 0x8, addend: 0x0, symName: __ZN8TreeNodeC2ERKNSt3__112basic_stringIcNS0_11char_traitsIcEENS0_9allocatorIcEEEERKN3tmw12ValueVariantE, symObjAddr: 0x3588, symBinAddr: 0x100005DA0, symSize: 0xCC }
  - { offset: 0x3CAD4, size: 0x8, addend: 0x0, symName: __ZNSt3__123enable_shared_from_thisI8TreeNodeEC2B8ne180100Ev, symObjAddr: 0x3654, symBinAddr: 0x100005E6C, symSize: 0x2C }
  - { offset: 0x3CAFE, size: 0x8, addend: 0x0, symName: __ZN3tmw12ValueVariantC1ERKS0_, symObjAddr: 0x3680, symBinAddr: 0x100005E98, symSize: 0x34 }
  - { offset: 0x3CB33, size: 0x8, addend: 0x0, symName: __ZNSt3__18weak_ptrI8TreeNodeEC1Ev, symObjAddr: 0x36B4, symBinAddr: 0x100005ECC, symSize: 0x2C }
  - { offset: 0x3CB5F, size: 0x8, addend: 0x0, symName: __ZNSt3__16vectorINS_10shared_ptrI8TreeNodeEENS_9allocatorIS3_EEEC1B8ne180100Ev, symObjAddr: 0x36E0, symBinAddr: 0x100005EF8, symSize: 0x2C }
  - { offset: 0x3CB89, size: 0x8, addend: 0x0, symName: __ZNSt3__123enable_shared_from_thisI8TreeNodeED2B8ne180100Ev, symObjAddr: 0x370C, symBinAddr: 0x100005F24, symSize: 0x2C }
  - { offset: 0x3CBB3, size: 0x8, addend: 0x0, symName: __ZN8TreeNodeD1Ev, symObjAddr: 0x3738, symBinAddr: 0x100005F50, symSize: 0x2C }
  - { offset: 0x3CBDD, size: 0x8, addend: 0x0, symName: __ZN8TreeNodeD0Ev, symObjAddr: 0x3764, symBinAddr: 0x100005F7C, symSize: 0x30 }
  - { offset: 0x3CC07, size: 0x8, addend: 0x0, symName: __ZN3tmw12ValueVariantC2ERKS0_, symObjAddr: 0x3794, symBinAddr: 0x100005FAC, symSize: 0x34 }
  - { offset: 0x3CC3C, size: 0x8, addend: 0x0, symName: __ZNSt3__17variantIJijxyfdNS_12basic_stringIcNS_11char_traitsIcEENS_9allocatorIcEEEEEEC1B8ne180100ERKS7_, symObjAddr: 0x37C8, symBinAddr: 0x100005FE0, symSize: 0x34 }
  - { offset: 0x3CC72, size: 0x8, addend: 0x0, symName: __ZNSt3__17variantIJijxyfdNS_12basic_stringIcNS_11char_traitsIcEENS_9allocatorIcEEEEEEC2B8ne180100ERKS7_, symObjAddr: 0x37FC, symBinAddr: 0x100006014, symSize: 0x34 }
  - { offset: 0x3CCA8, size: 0x8, addend: 0x0, symName: __ZNSt3__116__variant_detail6__implIJijxyfdNS_12basic_stringIcNS_11char_traitsIcEENS_9allocatorIcEEEEEEC1B8ne180100ERKS8_, symObjAddr: 0x3830, symBinAddr: 0x100006048, symSize: 0x34 }
  - { offset: 0x3CCDE, size: 0x8, addend: 0x0, symName: __ZNSt3__116__variant_detail6__implIJijxyfdNS_12basic_stringIcNS_11char_traitsIcEENS_9allocatorIcEEEEEEC2B8ne180100ERKS8_, symObjAddr: 0x3864, symBinAddr: 0x10000607C, symSize: 0x34 }
  - { offset: 0x3CD14, size: 0x8, addend: 0x0, symName: __ZNSt3__116__variant_detail17__copy_assignmentINS0_8__traitsIJijxyfdNS_12basic_stringIcNS_11char_traitsIcEENS_9allocatorIcEEEEEEELNS0_6_TraitE1EEC2ERKSB_, symObjAddr: 0x3898, symBinAddr: 0x1000060B0, symSize: 0x34 }
  - { offset: 0x3CD4A, size: 0x8, addend: 0x0, symName: __ZNSt3__116__variant_detail17__move_assignmentINS0_8__traitsIJijxyfdNS_12basic_stringIcNS_11char_traitsIcEENS_9allocatorIcEEEEEEELNS0_6_TraitE1EEC2ERKSB_, symObjAddr: 0x38CC, symBinAddr: 0x1000060E4, symSize: 0x34 }
  - { offset: 0x3CD91, size: 0x8, addend: 0x0, symName: __ZNSt3__116__variant_detail12__assignmentINS0_8__traitsIJijxyfdNS_12basic_stringIcNS_11char_traitsIcEENS_9allocatorIcEEEEEEEEC2ERKSA_, symObjAddr: 0x3900, symBinAddr: 0x100006118, symSize: 0x34 }
  - { offset: 0x3CDC7, size: 0x8, addend: 0x0, symName: __ZNSt3__116__variant_detail18__copy_constructorINS0_8__traitsIJijxyfdNS_12basic_stringIcNS_11char_traitsIcEENS_9allocatorIcEEEEEEELNS0_6_TraitE1EEC2ERKSB_, symObjAddr: 0x3934, symBinAddr: 0x10000614C, symSize: 0x64 }
  - { offset: 0x3CE00, size: 0x8, addend: 0x0, symName: __ZNSt3__116__variant_detail18__copy_constructorINS0_8__traitsIJijxyfdNS_12basic_stringIcNS_11char_traitsIcEENS_9allocatorIcEEEEEEELNS0_6_TraitE1EECI2NS0_6__baseILSA_1EJijxyfdS8_EEEENS0_13__valueless_tE, symObjAddr: 0x3998, symBinAddr: 0x1000061B0, symSize: 0x2C }
  - { offset: 0x3CE3C, size: 0x8, addend: 0x0, symName: __ZNSt3__116__variant_detail6__ctorINS0_8__traitsIJijxyfdNS_12basic_stringIcNS_11char_traitsIcEENS_9allocatorIcEEEEEEEE19__generic_constructB8ne180100IRKNS0_18__copy_constructorIS9_LNS0_6_TraitE1EEEEEvRSA_OT_, symObjAddr: 0x39C4, symBinAddr: 0x1000061DC, symSize: 0x68 }
  - { offset: 0x3CFCB, size: 0x8, addend: 0x0, symName: __ZNSt3__116__variant_detail18__copy_constructorINS0_8__traitsIJijxyfdNS_12basic_stringIcNS_11char_traitsIcEENS_9allocatorIcEEEEEEELNS0_6_TraitE1EED2Ev, symObjAddr: 0x3A2C, symBinAddr: 0x100006244, symSize: 0x2C }
  - { offset: 0x3CFF5, size: 0x8, addend: 0x0, symName: __ZNSt3__116__variant_detail18__move_constructorINS0_8__traitsIJijxyfdNS_12basic_stringIcNS_11char_traitsIcEENS_9allocatorIcEEEEEEELNS0_6_TraitE1EECI2NS0_6__baseILSA_1EJijxyfdS8_EEEENS0_13__valueless_tE, symObjAddr: 0x3A58, symBinAddr: 0x100006270, symSize: 0x2C }
  - { offset: 0x3D031, size: 0x8, addend: 0x0, symName: __ZNSt3__116__variant_detail6__ctorINS0_8__traitsIJijxyfdNS_12basic_stringIcNS_11char_traitsIcEENS_9allocatorIcEEEEEEEECI2NS0_6__baseILNS0_6_TraitE1EJijxyfdS8_EEEENS0_13__valueless_tE, symObjAddr: 0x3A84, symBinAddr: 0x10000629C, symSize: 0x2C }
  - { offset: 0x3D067, size: 0x8, addend: 0x0, symName: __ZNSt3__116__variant_detail6__dtorINS0_8__traitsIJijxyfdNS_12basic_stringIcNS_11char_traitsIcEENS_9allocatorIcEEEEEEELNS0_6_TraitE1EECI2NS0_6__baseILSA_1EJijxyfdS8_EEEENS0_13__valueless_tE, symObjAddr: 0x3AB0, symBinAddr: 0x1000062C8, symSize: 0x2C }
  - { offset: 0x3D09D, size: 0x8, addend: 0x0, symName: __ZNSt3__116__variant_detail6__baseILNS0_6_TraitE1EJijxyfdNS_12basic_stringIcNS_11char_traitsIcEENS_9allocatorIcEEEEEEC2B8ne180100ENS0_13__valueless_tE, symObjAddr: 0x3ADC, symBinAddr: 0x1000062F4, symSize: 0x34 }
  - { offset: 0x3D0D6, size: 0x8, addend: 0x0, symName: __ZNSt3__116__variant_detail7__unionILNS0_6_TraitE1ELm0EJijxyfdNS_12basic_stringIcNS_11char_traitsIcEENS_9allocatorIcEEEEEEC1B8ne180100ENS0_13__valueless_tE, symObjAddr: 0x3B10, symBinAddr: 0x100006328, symSize: 0x2C }
  - { offset: 0x3D10C, size: 0x8, addend: 0x0, symName: __ZNSt3__116__variant_detail7__unionILNS0_6_TraitE1ELm0EJijxyfdNS_12basic_stringIcNS_11char_traitsIcEENS_9allocatorIcEEEEEEC2B8ne180100ENS0_13__valueless_tE, symObjAddr: 0x3B3C, symBinAddr: 0x100006354, symSize: 0x18 }
  - { offset: 0x3D142, size: 0x8, addend: 0x0, symName: __ZNSt3__116__variant_detail6__dtorINS0_8__traitsIJijxyfdNS_12basic_stringIcNS_11char_traitsIcEENS_9allocatorIcEEEEEEELNS0_6_TraitE1EE9__destroyB8ne180100Ev, symObjAddr: 0x3B54, symBinAddr: 0x10000636C, symSize: 0x54 }
  - { offset: 0x3D23B, size: 0x8, addend: 0x0, symName: __ZNKSt3__116__variant_detail6__baseILNS0_6_TraitE1EJijxyfdNS_12basic_stringIcNS_11char_traitsIcEENS_9allocatorIcEEEEEE22valueless_by_exceptionB8ne180100Ev, symObjAddr: 0x3BA8, symBinAddr: 0x1000063C0, symSize: 0x30 }
  - { offset: 0x3D261, size: 0x8, addend: 0x0, symName: __ZNKSt3__116__variant_detail6__baseILNS0_6_TraitE1EJijxyfdNS_12basic_stringIcNS_11char_traitsIcEENS_9allocatorIcEEEEEE5indexB8ne180100Ev, symObjAddr: 0x3BD8, symBinAddr: 0x1000063F0, symSize: 0x4C }
  - { offset: 0x3D28D, size: 0x8, addend: 0x0, symName: __ZNSt3__116__variant_detail12__visitation6__base14__visit_alt_atB8ne180100IZNS0_6__ctorINS0_8__traitsIJijxyfdNS_12basic_stringIcNS_11char_traitsIcEENS_9allocatorIcEEEEEEEE19__generic_constructB8ne180100IRKNS0_18__copy_constructorISC_LNS0_6_TraitE1EEEEEvRSD_OT_EUlRSL_OT0_E_JSK_SJ_EEEDcmSM_DpOT0_, symObjAddr: 0x3C24, symBinAddr: 0x10000643C, symSize: 0x84 }
  - { offset: 0x3D30C, size: 0x8, addend: 0x0, symName: __ZNSt3__116__variant_detail12__visitation6__base11__visit_altB8ne180100IZNS0_6__dtorINS0_8__traitsIJijxyfdNS_12basic_stringIcNS_11char_traitsIcEENS_9allocatorIcEEEEEEELNS0_6_TraitE1EE9__destroyB8ne180100EvEUlRT_E_JRSE_EEEDcOSF_DpOT0_, symObjAddr: 0x3CA8, symBinAddr: 0x1000064C0, symSize: 0x74 }
  - { offset: 0x3D368, size: 0x8, addend: 0x0, symName: __ZNSt3__116__variant_detail12__visitation6__base12__dispatcherIJLm0EEE10__dispatchB8ne180100IOZNS0_6__dtorINS0_8__traitsIJijxyfdNS_12basic_stringIcNS_11char_traitsIcEENS_9allocatorIcEEEEEEELNS0_6_TraitE1EE9__destroyB8ne180100EvEUlRT_E_JRNS0_6__baseILSF_1EJijxyfdSD_EEEEEEDcSH_DpT0_, symObjAddr: 0x3D1C, symBinAddr: 0x100006534, symSize: 0x3C }
  - { offset: 0x3D3AF, size: 0x8, addend: 0x0, symName: __ZNSt3__116__variant_detail12__visitation6__base12__dispatcherIJLm1EEE10__dispatchB8ne180100IOZNS0_6__dtorINS0_8__traitsIJijxyfdNS_12basic_stringIcNS_11char_traitsIcEENS_9allocatorIcEEEEEEELNS0_6_TraitE1EE9__destroyB8ne180100EvEUlRT_E_JRNS0_6__baseILSF_1EJijxyfdSD_EEEEEEDcSH_DpT0_, symObjAddr: 0x3D58, symBinAddr: 0x100006570, symSize: 0x3C }
  - { offset: 0x3D3F6, size: 0x8, addend: 0x0, symName: __ZNSt3__116__variant_detail12__visitation6__base12__dispatcherIJLm2EEE10__dispatchB8ne180100IOZNS0_6__dtorINS0_8__traitsIJijxyfdNS_12basic_stringIcNS_11char_traitsIcEENS_9allocatorIcEEEEEEELNS0_6_TraitE1EE9__destroyB8ne180100EvEUlRT_E_JRNS0_6__baseILSF_1EJijxyfdSD_EEEEEEDcSH_DpT0_, symObjAddr: 0x3D94, symBinAddr: 0x1000065AC, symSize: 0x3C }
  - { offset: 0x3D43D, size: 0x8, addend: 0x0, symName: __ZNSt3__116__variant_detail12__visitation6__base12__dispatcherIJLm3EEE10__dispatchB8ne180100IOZNS0_6__dtorINS0_8__traitsIJijxyfdNS_12basic_stringIcNS_11char_traitsIcEENS_9allocatorIcEEEEEEELNS0_6_TraitE1EE9__destroyB8ne180100EvEUlRT_E_JRNS0_6__baseILSF_1EJijxyfdSD_EEEEEEDcSH_DpT0_, symObjAddr: 0x3DD0, symBinAddr: 0x1000065E8, symSize: 0x3C }
  - { offset: 0x3D484, size: 0x8, addend: 0x0, symName: __ZNSt3__116__variant_detail12__visitation6__base12__dispatcherIJLm4EEE10__dispatchB8ne180100IOZNS0_6__dtorINS0_8__traitsIJijxyfdNS_12basic_stringIcNS_11char_traitsIcEENS_9allocatorIcEEEEEEELNS0_6_TraitE1EE9__destroyB8ne180100EvEUlRT_E_JRNS0_6__baseILSF_1EJijxyfdSD_EEEEEEDcSH_DpT0_, symObjAddr: 0x3E0C, symBinAddr: 0x100006624, symSize: 0x3C }
  - { offset: 0x3D4CB, size: 0x8, addend: 0x0, symName: __ZNSt3__116__variant_detail12__visitation6__base12__dispatcherIJLm5EEE10__dispatchB8ne180100IOZNS0_6__dtorINS0_8__traitsIJijxyfdNS_12basic_stringIcNS_11char_traitsIcEENS_9allocatorIcEEEEEEELNS0_6_TraitE1EE9__destroyB8ne180100EvEUlRT_E_JRNS0_6__baseILSF_1EJijxyfdSD_EEEEEEDcSH_DpT0_, symObjAddr: 0x3E48, symBinAddr: 0x100006660, symSize: 0x3C }
  - { offset: 0x3D512, size: 0x8, addend: 0x0, symName: __ZNSt3__116__variant_detail12__visitation6__base12__dispatcherIJLm6EEE10__dispatchB8ne180100IOZNS0_6__dtorINS0_8__traitsIJijxyfdNS_12basic_stringIcNS_11char_traitsIcEENS_9allocatorIcEEEEEEELNS0_6_TraitE1EE9__destroyB8ne180100EvEUlRT_E_JRNS0_6__baseILSF_1EJijxyfdSD_EEEEEEDcSH_DpT0_, symObjAddr: 0x3E84, symBinAddr: 0x10000669C, symSize: 0x3C }
  - { offset: 0x3D596, size: 0x8, addend: 0x0, symName: __ZNSt3__116__variant_detail12__visitation6__base4__atB8ne180100IPFvOZNS0_6__dtorINS0_8__traitsIJijxyfdNS_12basic_stringIcNS_11char_traitsIcEENS_9allocatorIcEEEEEEELNS0_6_TraitE1EE9__destroyB8ne180100EvEUlRT_E_RNS0_6__baseILSD_1EJijxyfdSB_EEEELm7EJEEEODaRKNS_8__farrayISF_XT0_EEEmDpT1_, symObjAddr: 0x3EC0, symBinAddr: 0x1000066D8, symSize: 0x30 }
  - { offset: 0x3D5E1, size: 0x8, addend: 0x0, symName: __ZNRSt3__116__variant_detail6__baseILNS0_6_TraitE1EJijxyfdNS_12basic_stringIcNS_11char_traitsIcEENS_9allocatorIcEEEEEE9__as_baseB8ne180100Ev, symObjAddr: 0x3EF0, symBinAddr: 0x100006708, symSize: 0x14 }
  - { offset: 0x3D60D, size: 0x8, addend: 0x0, symName: __ZNSt3__116__variant_detail8__access6__base9__get_altB8ne180100ILm0ERNS0_6__baseILNS0_6_TraitE1EJijxyfdNS_12basic_stringIcNS_11char_traitsIcEENS_9allocatorIcEEEEEEEEEODaOT0_, symObjAddr: 0x3F30, symBinAddr: 0x100006748, symSize: 0x24 }
  - { offset: 0x3D64F, size: 0x8, addend: 0x0, symName: __ZZNSt3__116__variant_detail6__dtorINS0_8__traitsIJijxyfdNS_12basic_stringIcNS_11char_traitsIcEENS_9allocatorIcEEEEEEELNS0_6_TraitE1EE9__destroyB8ne180100EvENKUlRT_E_clINS0_5__altILm0EiEEEEDaSD_, symObjAddr: 0x3F54, symBinAddr: 0x10000676C, symSize: 0x14 }
  - { offset: 0x3D691, size: 0x8, addend: 0x0, symName: __ZNSt3__116__variant_detail8__access7__union9__get_altB8ne180100IRNS0_7__unionILNS0_6_TraitE1ELm0EJijxyfdNS_12basic_stringIcNS_11char_traitsIcEENS_9allocatorIcEEEEEEEEEODaOT_NS_16in_place_index_tILm0EEE, symObjAddr: 0x3F68, symBinAddr: 0x100006780, symSize: 0x14 }
  - { offset: 0x3D6D0, size: 0x8, addend: 0x0, symName: __ZNSt3__116__variant_detail8__access6__base9__get_altB8ne180100ILm1ERNS0_6__baseILNS0_6_TraitE1EJijxyfdNS_12basic_stringIcNS_11char_traitsIcEENS_9allocatorIcEEEEEEEEEODaOT0_, symObjAddr: 0x3FA8, symBinAddr: 0x1000067C0, symSize: 0x24 }
  - { offset: 0x3D707, size: 0x8, addend: 0x0, symName: __ZZNSt3__116__variant_detail6__dtorINS0_8__traitsIJijxyfdNS_12basic_stringIcNS_11char_traitsIcEENS_9allocatorIcEEEEEEELNS0_6_TraitE1EE9__destroyB8ne180100EvENKUlRT_E_clINS0_5__altILm1EjEEEEDaSD_, symObjAddr: 0x3FCC, symBinAddr: 0x1000067E4, symSize: 0x14 }
  - { offset: 0x3D749, size: 0x8, addend: 0x0, symName: __ZNSt3__116__variant_detail8__access7__union9__get_altB8ne180100IRNS0_7__unionILNS0_6_TraitE1ELm0EJijxyfdNS_12basic_stringIcNS_11char_traitsIcEENS_9allocatorIcEEEEEEELm1EEEODaOT_NS_16in_place_index_tIXT0_EEE, symObjAddr: 0x3FE0, symBinAddr: 0x1000067F8, symSize: 0x24 }
  - { offset: 0x3D78C, size: 0x8, addend: 0x0, symName: __ZNSt3__116__variant_detail8__access7__union9__get_altB8ne180100IRNS0_7__unionILNS0_6_TraitE1ELm1EJjxyfdNS_12basic_stringIcNS_11char_traitsIcEENS_9allocatorIcEEEEEEEEEODaOT_NS_16in_place_index_tILm0EEE, symObjAddr: 0x4004, symBinAddr: 0x10000681C, symSize: 0x14 }
  - { offset: 0x3D7CB, size: 0x8, addend: 0x0, symName: __ZNSt3__116__variant_detail8__access6__base9__get_altB8ne180100ILm2ERNS0_6__baseILNS0_6_TraitE1EJijxyfdNS_12basic_stringIcNS_11char_traitsIcEENS_9allocatorIcEEEEEEEEEODaOT0_, symObjAddr: 0x4044, symBinAddr: 0x10000685C, symSize: 0x24 }
  - { offset: 0x3D802, size: 0x8, addend: 0x0, symName: __ZZNSt3__116__variant_detail6__dtorINS0_8__traitsIJijxyfdNS_12basic_stringIcNS_11char_traitsIcEENS_9allocatorIcEEEEEEELNS0_6_TraitE1EE9__destroyB8ne180100EvENKUlRT_E_clINS0_5__altILm2ExEEEEDaSD_, symObjAddr: 0x4068, symBinAddr: 0x100006880, symSize: 0x14 }
  - { offset: 0x3D844, size: 0x8, addend: 0x0, symName: __ZNSt3__116__variant_detail8__access7__union9__get_altB8ne180100IRNS0_7__unionILNS0_6_TraitE1ELm0EJijxyfdNS_12basic_stringIcNS_11char_traitsIcEENS_9allocatorIcEEEEEEELm2EEEODaOT_NS_16in_place_index_tIXT0_EEE, symObjAddr: 0x407C, symBinAddr: 0x100006894, symSize: 0x24 }
  - { offset: 0x3D887, size: 0x8, addend: 0x0, symName: __ZNSt3__116__variant_detail8__access7__union9__get_altB8ne180100IRNS0_7__unionILNS0_6_TraitE1ELm1EJjxyfdNS_12basic_stringIcNS_11char_traitsIcEENS_9allocatorIcEEEEEEELm1EEEODaOT_NS_16in_place_index_tIXT0_EEE, symObjAddr: 0x40A0, symBinAddr: 0x1000068B8, symSize: 0x24 }
  - { offset: 0x3D8CA, size: 0x8, addend: 0x0, symName: __ZNSt3__116__variant_detail8__access7__union9__get_altB8ne180100IRNS0_7__unionILNS0_6_TraitE1ELm2EJxyfdNS_12basic_stringIcNS_11char_traitsIcEENS_9allocatorIcEEEEEEEEEODaOT_NS_16in_place_index_tILm0EEE, symObjAddr: 0x40C4, symBinAddr: 0x1000068DC, symSize: 0x14 }
  - { offset: 0x3D909, size: 0x8, addend: 0x0, symName: __ZNSt3__116__variant_detail8__access6__base9__get_altB8ne180100ILm3ERNS0_6__baseILNS0_6_TraitE1EJijxyfdNS_12basic_stringIcNS_11char_traitsIcEENS_9allocatorIcEEEEEEEEEODaOT0_, symObjAddr: 0x4104, symBinAddr: 0x10000691C, symSize: 0x24 }
  - { offset: 0x3D940, size: 0x8, addend: 0x0, symName: __ZZNSt3__116__variant_detail6__dtorINS0_8__traitsIJijxyfdNS_12basic_stringIcNS_11char_traitsIcEENS_9allocatorIcEEEEEEELNS0_6_TraitE1EE9__destroyB8ne180100EvENKUlRT_E_clINS0_5__altILm3EyEEEEDaSD_, symObjAddr: 0x4128, symBinAddr: 0x100006940, symSize: 0x14 }
  - { offset: 0x3D982, size: 0x8, addend: 0x0, symName: __ZNSt3__116__variant_detail8__access7__union9__get_altB8ne180100IRNS0_7__unionILNS0_6_TraitE1ELm0EJijxyfdNS_12basic_stringIcNS_11char_traitsIcEENS_9allocatorIcEEEEEEELm3EEEODaOT_NS_16in_place_index_tIXT0_EEE, symObjAddr: 0x413C, symBinAddr: 0x100006954, symSize: 0x24 }
  - { offset: 0x3D9C5, size: 0x8, addend: 0x0, symName: __ZNSt3__116__variant_detail8__access7__union9__get_altB8ne180100IRNS0_7__unionILNS0_6_TraitE1ELm1EJjxyfdNS_12basic_stringIcNS_11char_traitsIcEENS_9allocatorIcEEEEEEELm2EEEODaOT_NS_16in_place_index_tIXT0_EEE, symObjAddr: 0x4160, symBinAddr: 0x100006978, symSize: 0x24 }
  - { offset: 0x3DA08, size: 0x8, addend: 0x0, symName: __ZNSt3__116__variant_detail8__access7__union9__get_altB8ne180100IRNS0_7__unionILNS0_6_TraitE1ELm2EJxyfdNS_12basic_stringIcNS_11char_traitsIcEENS_9allocatorIcEEEEEEELm1EEEODaOT_NS_16in_place_index_tIXT0_EEE, symObjAddr: 0x4184, symBinAddr: 0x10000699C, symSize: 0x24 }
  - { offset: 0x3DA4B, size: 0x8, addend: 0x0, symName: __ZNSt3__116__variant_detail8__access7__union9__get_altB8ne180100IRNS0_7__unionILNS0_6_TraitE1ELm3EJyfdNS_12basic_stringIcNS_11char_traitsIcEENS_9allocatorIcEEEEEEEEEODaOT_NS_16in_place_index_tILm0EEE, symObjAddr: 0x41A8, symBinAddr: 0x1000069C0, symSize: 0x14 }
  - { offset: 0x3DA8A, size: 0x8, addend: 0x0, symName: __ZNSt3__116__variant_detail8__access6__base9__get_altB8ne180100ILm4ERNS0_6__baseILNS0_6_TraitE1EJijxyfdNS_12basic_stringIcNS_11char_traitsIcEENS_9allocatorIcEEEEEEEEEODaOT0_, symObjAddr: 0x41E8, symBinAddr: 0x100006A00, symSize: 0x24 }
  - { offset: 0x3DAC1, size: 0x8, addend: 0x0, symName: __ZZNSt3__116__variant_detail6__dtorINS0_8__traitsIJijxyfdNS_12basic_stringIcNS_11char_traitsIcEENS_9allocatorIcEEEEEEELNS0_6_TraitE1EE9__destroyB8ne180100EvENKUlRT_E_clINS0_5__altILm4EfEEEEDaSD_, symObjAddr: 0x420C, symBinAddr: 0x100006A24, symSize: 0x14 }
  - { offset: 0x3DB03, size: 0x8, addend: 0x0, symName: __ZNSt3__116__variant_detail8__access7__union9__get_altB8ne180100IRNS0_7__unionILNS0_6_TraitE1ELm0EJijxyfdNS_12basic_stringIcNS_11char_traitsIcEENS_9allocatorIcEEEEEEELm4EEEODaOT_NS_16in_place_index_tIXT0_EEE, symObjAddr: 0x4220, symBinAddr: 0x100006A38, symSize: 0x24 }
  - { offset: 0x3DB46, size: 0x8, addend: 0x0, symName: __ZNSt3__116__variant_detail8__access7__union9__get_altB8ne180100IRNS0_7__unionILNS0_6_TraitE1ELm1EJjxyfdNS_12basic_stringIcNS_11char_traitsIcEENS_9allocatorIcEEEEEEELm3EEEODaOT_NS_16in_place_index_tIXT0_EEE, symObjAddr: 0x4244, symBinAddr: 0x100006A5C, symSize: 0x24 }
  - { offset: 0x3DB89, size: 0x8, addend: 0x0, symName: __ZNSt3__116__variant_detail8__access7__union9__get_altB8ne180100IRNS0_7__unionILNS0_6_TraitE1ELm2EJxyfdNS_12basic_stringIcNS_11char_traitsIcEENS_9allocatorIcEEEEEEELm2EEEODaOT_NS_16in_place_index_tIXT0_EEE, symObjAddr: 0x4268, symBinAddr: 0x100006A80, symSize: 0x24 }
  - { offset: 0x3DBCC, size: 0x8, addend: 0x0, symName: __ZNSt3__116__variant_detail8__access7__union9__get_altB8ne180100IRNS0_7__unionILNS0_6_TraitE1ELm3EJyfdNS_12basic_stringIcNS_11char_traitsIcEENS_9allocatorIcEEEEEEELm1EEEODaOT_NS_16in_place_index_tIXT0_EEE, symObjAddr: 0x428C, symBinAddr: 0x100006AA4, symSize: 0x24 }
  - { offset: 0x3DC0F, size: 0x8, addend: 0x0, symName: __ZNSt3__116__variant_detail8__access7__union9__get_altB8ne180100IRNS0_7__unionILNS0_6_TraitE1ELm4EJfdNS_12basic_stringIcNS_11char_traitsIcEENS_9allocatorIcEEEEEEEEEODaOT_NS_16in_place_index_tILm0EEE, symObjAddr: 0x42B0, symBinAddr: 0x100006AC8, symSize: 0x14 }
  - { offset: 0x3DC4E, size: 0x8, addend: 0x0, symName: __ZNSt3__116__variant_detail8__access6__base9__get_altB8ne180100ILm5ERNS0_6__baseILNS0_6_TraitE1EJijxyfdNS_12basic_stringIcNS_11char_traitsIcEENS_9allocatorIcEEEEEEEEEODaOT0_, symObjAddr: 0x42F0, symBinAddr: 0x100006B08, symSize: 0x24 }
  - { offset: 0x3DC85, size: 0x8, addend: 0x0, symName: __ZZNSt3__116__variant_detail6__dtorINS0_8__traitsIJijxyfdNS_12basic_stringIcNS_11char_traitsIcEENS_9allocatorIcEEEEEEELNS0_6_TraitE1EE9__destroyB8ne180100EvENKUlRT_E_clINS0_5__altILm5EdEEEEDaSD_, symObjAddr: 0x4314, symBinAddr: 0x100006B2C, symSize: 0x14 }
  - { offset: 0x3DCC7, size: 0x8, addend: 0x0, symName: __ZNSt3__116__variant_detail8__access7__union9__get_altB8ne180100IRNS0_7__unionILNS0_6_TraitE1ELm0EJijxyfdNS_12basic_stringIcNS_11char_traitsIcEENS_9allocatorIcEEEEEEELm5EEEODaOT_NS_16in_place_index_tIXT0_EEE, symObjAddr: 0x4328, symBinAddr: 0x100006B40, symSize: 0x24 }
  - { offset: 0x3DD0A, size: 0x8, addend: 0x0, symName: __ZNSt3__116__variant_detail8__access7__union9__get_altB8ne180100IRNS0_7__unionILNS0_6_TraitE1ELm1EJjxyfdNS_12basic_stringIcNS_11char_traitsIcEENS_9allocatorIcEEEEEEELm4EEEODaOT_NS_16in_place_index_tIXT0_EEE, symObjAddr: 0x434C, symBinAddr: 0x100006B64, symSize: 0x24 }
  - { offset: 0x3DD4D, size: 0x8, addend: 0x0, symName: __ZNSt3__116__variant_detail8__access7__union9__get_altB8ne180100IRNS0_7__unionILNS0_6_TraitE1ELm2EJxyfdNS_12basic_stringIcNS_11char_traitsIcEENS_9allocatorIcEEEEEEELm3EEEODaOT_NS_16in_place_index_tIXT0_EEE, symObjAddr: 0x4370, symBinAddr: 0x100006B88, symSize: 0x24 }
  - { offset: 0x3DD90, size: 0x8, addend: 0x0, symName: __ZNSt3__116__variant_detail8__access7__union9__get_altB8ne180100IRNS0_7__unionILNS0_6_TraitE1ELm3EJyfdNS_12basic_stringIcNS_11char_traitsIcEENS_9allocatorIcEEEEEEELm2EEEODaOT_NS_16in_place_index_tIXT0_EEE, symObjAddr: 0x4394, symBinAddr: 0x100006BAC, symSize: 0x24 }
  - { offset: 0x3DDD3, size: 0x8, addend: 0x0, symName: __ZNSt3__116__variant_detail8__access7__union9__get_altB8ne180100IRNS0_7__unionILNS0_6_TraitE1ELm4EJfdNS_12basic_stringIcNS_11char_traitsIcEENS_9allocatorIcEEEEEEELm1EEEODaOT_NS_16in_place_index_tIXT0_EEE, symObjAddr: 0x43B8, symBinAddr: 0x100006BD0, symSize: 0x24 }
  - { offset: 0x3DE16, size: 0x8, addend: 0x0, symName: __ZNSt3__116__variant_detail8__access7__union9__get_altB8ne180100IRNS0_7__unionILNS0_6_TraitE1ELm5EJdNS_12basic_stringIcNS_11char_traitsIcEENS_9allocatorIcEEEEEEEEEODaOT_NS_16in_place_index_tILm0EEE, symObjAddr: 0x43DC, symBinAddr: 0x100006BF4, symSize: 0x14 }
  - { offset: 0x3DE55, size: 0x8, addend: 0x0, symName: __ZNSt3__116__variant_detail8__access6__base9__get_altB8ne180100ILm6ERNS0_6__baseILNS0_6_TraitE1EJijxyfdNS_12basic_stringIcNS_11char_traitsIcEENS_9allocatorIcEEEEEEEEEODaOT0_, symObjAddr: 0x441C, symBinAddr: 0x100006C34, symSize: 0x24 }
  - { offset: 0x3DE8C, size: 0x8, addend: 0x0, symName: __ZZNSt3__116__variant_detail6__dtorINS0_8__traitsIJijxyfdNS_12basic_stringIcNS_11char_traitsIcEENS_9allocatorIcEEEEEEELNS0_6_TraitE1EE9__destroyB8ne180100EvENKUlRT_E_clINS0_5__altILm6ES8_EEEEDaSD_, symObjAddr: 0x4440, symBinAddr: 0x100006C58, symSize: 0x28 }
  - { offset: 0x3DED4, size: 0x8, addend: 0x0, symName: __ZNSt3__116__variant_detail5__altILm6ENS_12basic_stringIcNS_11char_traitsIcEENS_9allocatorIcEEEEED1Ev, symObjAddr: 0x4468, symBinAddr: 0x100006C80, symSize: 0x2C }
  - { offset: 0x3DF01, size: 0x8, addend: 0x0, symName: __ZNSt3__116__variant_detail5__altILm6ENS_12basic_stringIcNS_11char_traitsIcEENS_9allocatorIcEEEEED2Ev, symObjAddr: 0x4494, symBinAddr: 0x100006CAC, symSize: 0x2C }
  - { offset: 0x3DF2E, size: 0x8, addend: 0x0, symName: __ZNSt3__116__variant_detail8__access7__union9__get_altB8ne180100IRNS0_7__unionILNS0_6_TraitE1ELm0EJijxyfdNS_12basic_stringIcNS_11char_traitsIcEENS_9allocatorIcEEEEEEELm6EEEODaOT_NS_16in_place_index_tIXT0_EEE, symObjAddr: 0x44C0, symBinAddr: 0x100006CD8, symSize: 0x24 }
  - { offset: 0x3DF71, size: 0x8, addend: 0x0, symName: __ZNSt3__116__variant_detail8__access7__union9__get_altB8ne180100IRNS0_7__unionILNS0_6_TraitE1ELm1EJjxyfdNS_12basic_stringIcNS_11char_traitsIcEENS_9allocatorIcEEEEEEELm5EEEODaOT_NS_16in_place_index_tIXT0_EEE, symObjAddr: 0x44E4, symBinAddr: 0x100006CFC, symSize: 0x24 }
  - { offset: 0x3DFB4, size: 0x8, addend: 0x0, symName: __ZNSt3__116__variant_detail8__access7__union9__get_altB8ne180100IRNS0_7__unionILNS0_6_TraitE1ELm2EJxyfdNS_12basic_stringIcNS_11char_traitsIcEENS_9allocatorIcEEEEEEELm4EEEODaOT_NS_16in_place_index_tIXT0_EEE, symObjAddr: 0x4508, symBinAddr: 0x100006D20, symSize: 0x24 }
  - { offset: 0x3DFF7, size: 0x8, addend: 0x0, symName: __ZNSt3__116__variant_detail8__access7__union9__get_altB8ne180100IRNS0_7__unionILNS0_6_TraitE1ELm3EJyfdNS_12basic_stringIcNS_11char_traitsIcEENS_9allocatorIcEEEEEEELm3EEEODaOT_NS_16in_place_index_tIXT0_EEE, symObjAddr: 0x452C, symBinAddr: 0x100006D44, symSize: 0x24 }
  - { offset: 0x3E03A, size: 0x8, addend: 0x0, symName: __ZNSt3__116__variant_detail8__access7__union9__get_altB8ne180100IRNS0_7__unionILNS0_6_TraitE1ELm4EJfdNS_12basic_stringIcNS_11char_traitsIcEENS_9allocatorIcEEEEEEELm2EEEODaOT_NS_16in_place_index_tIXT0_EEE, symObjAddr: 0x4550, symBinAddr: 0x100006D68, symSize: 0x24 }
  - { offset: 0x3E07D, size: 0x8, addend: 0x0, symName: __ZNSt3__116__variant_detail8__access7__union9__get_altB8ne180100IRNS0_7__unionILNS0_6_TraitE1ELm5EJdNS_12basic_stringIcNS_11char_traitsIcEENS_9allocatorIcEEEEEEELm1EEEODaOT_NS_16in_place_index_tIXT0_EEE, symObjAddr: 0x4574, symBinAddr: 0x100006D8C, symSize: 0x24 }
  - { offset: 0x3E0C0, size: 0x8, addend: 0x0, symName: __ZNSt3__116__variant_detail8__access7__union9__get_altB8ne180100IRNS0_7__unionILNS0_6_TraitE1ELm6EJNS_12basic_stringIcNS_11char_traitsIcEENS_9allocatorIcEEEEEEEEEODaOT_NS_16in_place_index_tILm0EEE, symObjAddr: 0x4598, symBinAddr: 0x100006DB0, symSize: 0x14 }
  - { offset: 0x3E0F9, size: 0x8, addend: 0x0, symName: __ZNSt3__116__variant_detail12__visitation6__base4__atB8ne180100IPFvOZNS0_6__dtorINS0_8__traitsIJijxyfdNS_12basic_stringIcNS_11char_traitsIcEENS_9allocatorIcEEEEEEELNS0_6_TraitE1EE9__destroyB8ne180100EvEUlRT_E_RNS0_6__baseILSD_1EJijxyfdSB_EEEEEERKSF_SP_, symObjAddr: 0x45AC, symBinAddr: 0x100006DC4, symSize: 0x14 }
  - { offset: 0x3E126, size: 0x8, addend: 0x0, symName: __ZNKSt3__18__farrayIPFvOZNS_16__variant_detail6__dtorINS1_8__traitsIJijxyfdNS_12basic_stringIcNS_11char_traitsIcEENS_9allocatorIcEEEEEEELNS1_6_TraitE1EE9__destroyB8ne180100EvEUlRT_E_RNS1_6__baseILSB_1EJijxyfdS9_EEEELm7EEixB8ne180100Em, symObjAddr: 0x45C0, symBinAddr: 0x100006DD8, symSize: 0x20 }
  - { offset: 0x3E161, size: 0x8, addend: 0x0, symName: __ZNSt3__116__variant_detail12__visitation6__base12__dispatcherIJLm0ELm0EEE10__dispatchB8ne180100IOZNS0_6__ctorINS0_8__traitsIJijxyfdNS_12basic_stringIcNS_11char_traitsIcEENS_9allocatorIcEEEEEEEE19__generic_constructB8ne180100IRKNS0_18__copy_constructorISE_LNS0_6_TraitE1EEEEEvRSF_OT_EUlRSN_OT0_E_JRNS0_6__baseILSI_1EJijxyfdSD_EEERKSV_EEEDcSN_DpT0_, symObjAddr: 0x45E0, symBinAddr: 0x100006DF8, symSize: 0x50 }
  - { offset: 0x3E1BC, size: 0x8, addend: 0x0, symName: __ZNSt3__116__variant_detail12__visitation6__base12__dispatcherIJLm1ELm1EEE10__dispatchB8ne180100IOZNS0_6__ctorINS0_8__traitsIJijxyfdNS_12basic_stringIcNS_11char_traitsIcEENS_9allocatorIcEEEEEEEE19__generic_constructB8ne180100IRKNS0_18__copy_constructorISE_LNS0_6_TraitE1EEEEEvRSF_OT_EUlRSN_OT0_E_JRNS0_6__baseILSI_1EJijxyfdSD_EEERKSV_EEEDcSN_DpT0_, symObjAddr: 0x4630, symBinAddr: 0x100006E48, symSize: 0x50 }
  - { offset: 0x3E217, size: 0x8, addend: 0x0, symName: __ZNSt3__116__variant_detail12__visitation6__base12__dispatcherIJLm2ELm2EEE10__dispatchB8ne180100IOZNS0_6__ctorINS0_8__traitsIJijxyfdNS_12basic_stringIcNS_11char_traitsIcEENS_9allocatorIcEEEEEEEE19__generic_constructB8ne180100IRKNS0_18__copy_constructorISE_LNS0_6_TraitE1EEEEEvRSF_OT_EUlRSN_OT0_E_JRNS0_6__baseILSI_1EJijxyfdSD_EEERKSV_EEEDcSN_DpT0_, symObjAddr: 0x4680, symBinAddr: 0x100006E98, symSize: 0x50 }
  - { offset: 0x3E272, size: 0x8, addend: 0x0, symName: __ZNSt3__116__variant_detail12__visitation6__base12__dispatcherIJLm3ELm3EEE10__dispatchB8ne180100IOZNS0_6__ctorINS0_8__traitsIJijxyfdNS_12basic_stringIcNS_11char_traitsIcEENS_9allocatorIcEEEEEEEE19__generic_constructB8ne180100IRKNS0_18__copy_constructorISE_LNS0_6_TraitE1EEEEEvRSF_OT_EUlRSN_OT0_E_JRNS0_6__baseILSI_1EJijxyfdSD_EEERKSV_EEEDcSN_DpT0_, symObjAddr: 0x46D0, symBinAddr: 0x100006EE8, symSize: 0x50 }
  - { offset: 0x3E2CD, size: 0x8, addend: 0x0, symName: __ZNSt3__116__variant_detail12__visitation6__base12__dispatcherIJLm4ELm4EEE10__dispatchB8ne180100IOZNS0_6__ctorINS0_8__traitsIJijxyfdNS_12basic_stringIcNS_11char_traitsIcEENS_9allocatorIcEEEEEEEE19__generic_constructB8ne180100IRKNS0_18__copy_constructorISE_LNS0_6_TraitE1EEEEEvRSF_OT_EUlRSN_OT0_E_JRNS0_6__baseILSI_1EJijxyfdSD_EEERKSV_EEEDcSN_DpT0_, symObjAddr: 0x4720, symBinAddr: 0x100006F38, symSize: 0x50 }
  - { offset: 0x3E328, size: 0x8, addend: 0x0, symName: __ZNSt3__116__variant_detail12__visitation6__base12__dispatcherIJLm5ELm5EEE10__dispatchB8ne180100IOZNS0_6__ctorINS0_8__traitsIJijxyfdNS_12basic_stringIcNS_11char_traitsIcEENS_9allocatorIcEEEEEEEE19__generic_constructB8ne180100IRKNS0_18__copy_constructorISE_LNS0_6_TraitE1EEEEEvRSF_OT_EUlRSN_OT0_E_JRNS0_6__baseILSI_1EJijxyfdSD_EEERKSV_EEEDcSN_DpT0_, symObjAddr: 0x4770, symBinAddr: 0x100006F88, symSize: 0x50 }
  - { offset: 0x3E383, size: 0x8, addend: 0x0, symName: __ZNSt3__116__variant_detail12__visitation6__base12__dispatcherIJLm6ELm6EEE10__dispatchB8ne180100IOZNS0_6__ctorINS0_8__traitsIJijxyfdNS_12basic_stringIcNS_11char_traitsIcEENS_9allocatorIcEEEEEEEE19__generic_constructB8ne180100IRKNS0_18__copy_constructorISE_LNS0_6_TraitE1EEEEEvRSF_OT_EUlRSN_OT0_E_JRNS0_6__baseILSI_1EJijxyfdSD_EEERKSV_EEEDcSN_DpT0_, symObjAddr: 0x47C0, symBinAddr: 0x100006FD8, symSize: 0x50 }
  - { offset: 0x3E41A, size: 0x8, addend: 0x0, symName: __ZNKSt3__18__farrayIPFvOZNS_16__variant_detail6__ctorINS1_8__traitsIJijxyfdNS_12basic_stringIcNS_11char_traitsIcEENS_9allocatorIcEEEEEEEE19__generic_constructB8ne180100IRKNS1_18__copy_constructorISA_LNS1_6_TraitE1EEEEEvRSB_OT_EUlRSJ_OT0_E_RNS1_6__baseILSE_1EJijxyfdS9_EEERKSR_ELm7EEixB8ne180100Em, symObjAddr: 0x4810, symBinAddr: 0x100007028, symSize: 0x20 }
  - { offset: 0x3E44F, size: 0x8, addend: 0x0, symName: __ZNKRSt3__116__variant_detail6__baseILNS0_6_TraitE1EJijxyfdNS_12basic_stringIcNS_11char_traitsIcEENS_9allocatorIcEEEEEE9__as_baseB8ne180100Ev, symObjAddr: 0x4830, symBinAddr: 0x100007048, symSize: 0x14 }
  - { offset: 0x3E480, size: 0x8, addend: 0x0, symName: __ZNSt3__116__variant_detail8__access6__base9__get_altB8ne180100ILm0ERKNS0_6__baseILNS0_6_TraitE1EJijxyfdNS_12basic_stringIcNS_11char_traitsIcEENS_9allocatorIcEEEEEEEEEODaOT0_, symObjAddr: 0x4878, symBinAddr: 0x100007090, symSize: 0x24 }
  - { offset: 0x3E4C2, size: 0x8, addend: 0x0, symName: __ZZNSt3__116__variant_detail6__ctorINS0_8__traitsIJijxyfdNS_12basic_stringIcNS_11char_traitsIcEENS_9allocatorIcEEEEEEEE19__generic_constructB8ne180100IRKNS0_18__copy_constructorIS9_LNS0_6_TraitE1EEEEEvRSA_OT_ENKUlRSI_OT0_E_clINS0_5__altILm0EiEERKSQ_EEDaSK_SM_, symObjAddr: 0x489C, symBinAddr: 0x1000070B4, symSize: 0x30 }
  - { offset: 0x3E522, size: 0x8, addend: 0x0, symName: __ZNSt3__116__variant_detail6__ctorINS0_8__traitsIJijxyfdNS_12basic_stringIcNS_11char_traitsIcEENS_9allocatorIcEEEEEEEE15__construct_altB8ne180100ILm0EiJRKiEEERT0_RNS0_5__altIXT_ESE_EEDpOT1_, symObjAddr: 0x48CC, symBinAddr: 0x1000070E4, symSize: 0x30 }
  - { offset: 0x3E579, size: 0x8, addend: 0x0, symName: __ZNSt3__116__variant_detail5__altILm0EiEC1B8ne180100IJRKiEEENS_10in_place_tEDpOT_, symObjAddr: 0x48FC, symBinAddr: 0x100007114, symSize: 0x34 }
  - { offset: 0x3E5C9, size: 0x8, addend: 0x0, symName: __ZNSt3__116__variant_detail5__altILm0EiEC2B8ne180100IJRKiEEENS_10in_place_tEDpOT_, symObjAddr: 0x4930, symBinAddr: 0x100007148, symSize: 0x24 }
  - { offset: 0x3E619, size: 0x8, addend: 0x0, symName: __ZNSt3__116__variant_detail8__access7__union9__get_altB8ne180100IRKNS0_7__unionILNS0_6_TraitE1ELm0EJijxyfdNS_12basic_stringIcNS_11char_traitsIcEENS_9allocatorIcEEEEEEEEEODaOT_NS_16in_place_index_tILm0EEE, symObjAddr: 0x4954, symBinAddr: 0x10000716C, symSize: 0x14 }
  - { offset: 0x3E65D, size: 0x8, addend: 0x0, symName: __ZNSt3__116__variant_detail8__access6__base9__get_altB8ne180100ILm1ERKNS0_6__baseILNS0_6_TraitE1EJijxyfdNS_12basic_stringIcNS_11char_traitsIcEENS_9allocatorIcEEEEEEEEEODaOT0_, symObjAddr: 0x499C, symBinAddr: 0x1000071B4, symSize: 0x24 }
  - { offset: 0x3E694, size: 0x8, addend: 0x0, symName: __ZZNSt3__116__variant_detail6__ctorINS0_8__traitsIJijxyfdNS_12basic_stringIcNS_11char_traitsIcEENS_9allocatorIcEEEEEEEE19__generic_constructB8ne180100IRKNS0_18__copy_constructorIS9_LNS0_6_TraitE1EEEEEvRSA_OT_ENKUlRSI_OT0_E_clINS0_5__altILm1EjEERKSQ_EEDaSK_SM_, symObjAddr: 0x49C0, symBinAddr: 0x1000071D8, symSize: 0x30 }
  - { offset: 0x3E6F4, size: 0x8, addend: 0x0, symName: __ZNSt3__116__variant_detail6__ctorINS0_8__traitsIJijxyfdNS_12basic_stringIcNS_11char_traitsIcEENS_9allocatorIcEEEEEEEE15__construct_altB8ne180100ILm1EjJRKjEEERT0_RNS0_5__altIXT_ESE_EEDpOT1_, symObjAddr: 0x49F0, symBinAddr: 0x100007208, symSize: 0x30 }
  - { offset: 0x3E74B, size: 0x8, addend: 0x0, symName: __ZNSt3__116__variant_detail5__altILm1EjEC1B8ne180100IJRKjEEENS_10in_place_tEDpOT_, symObjAddr: 0x4A20, symBinAddr: 0x100007238, symSize: 0x34 }
  - { offset: 0x3E79B, size: 0x8, addend: 0x0, symName: __ZNSt3__116__variant_detail5__altILm1EjEC2B8ne180100IJRKjEEENS_10in_place_tEDpOT_, symObjAddr: 0x4A54, symBinAddr: 0x10000726C, symSize: 0x24 }
  - { offset: 0x3E7EB, size: 0x8, addend: 0x0, symName: __ZNSt3__116__variant_detail8__access7__union9__get_altB8ne180100IRKNS0_7__unionILNS0_6_TraitE1ELm0EJijxyfdNS_12basic_stringIcNS_11char_traitsIcEENS_9allocatorIcEEEEEEELm1EEEODaOT_NS_16in_place_index_tIXT0_EEE, symObjAddr: 0x4A78, symBinAddr: 0x100007290, symSize: 0x24 }
  - { offset: 0x3E82E, size: 0x8, addend: 0x0, symName: __ZNSt3__116__variant_detail8__access7__union9__get_altB8ne180100IRKNS0_7__unionILNS0_6_TraitE1ELm1EJjxyfdNS_12basic_stringIcNS_11char_traitsIcEENS_9allocatorIcEEEEEEEEEODaOT_NS_16in_place_index_tILm0EEE, symObjAddr: 0x4A9C, symBinAddr: 0x1000072B4, symSize: 0x14 }
  - { offset: 0x3E872, size: 0x8, addend: 0x0, symName: __ZNSt3__116__variant_detail8__access6__base9__get_altB8ne180100ILm2ERKNS0_6__baseILNS0_6_TraitE1EJijxyfdNS_12basic_stringIcNS_11char_traitsIcEENS_9allocatorIcEEEEEEEEEODaOT0_, symObjAddr: 0x4AE4, symBinAddr: 0x1000072FC, symSize: 0x24 }
  - { offset: 0x3E8A9, size: 0x8, addend: 0x0, symName: __ZZNSt3__116__variant_detail6__ctorINS0_8__traitsIJijxyfdNS_12basic_stringIcNS_11char_traitsIcEENS_9allocatorIcEEEEEEEE19__generic_constructB8ne180100IRKNS0_18__copy_constructorIS9_LNS0_6_TraitE1EEEEEvRSA_OT_ENKUlRSI_OT0_E_clINS0_5__altILm2ExEERKSQ_EEDaSK_SM_, symObjAddr: 0x4B08, symBinAddr: 0x100007320, symSize: 0x30 }
  - { offset: 0x3E90E, size: 0x8, addend: 0x0, symName: __ZNSt3__116__variant_detail6__ctorINS0_8__traitsIJijxyfdNS_12basic_stringIcNS_11char_traitsIcEENS_9allocatorIcEEEEEEEE15__construct_altB8ne180100ILm2ExJRKxEEERT0_RNS0_5__altIXT_ESE_EEDpOT1_, symObjAddr: 0x4B38, symBinAddr: 0x100007350, symSize: 0x30 }
  - { offset: 0x3E965, size: 0x8, addend: 0x0, symName: __ZNSt3__116__variant_detail5__altILm2ExEC1B8ne180100IJRKxEEENS_10in_place_tEDpOT_, symObjAddr: 0x4B68, symBinAddr: 0x100007380, symSize: 0x34 }
  - { offset: 0x3E9B5, size: 0x8, addend: 0x0, symName: __ZNSt3__116__variant_detail5__altILm2ExEC2B8ne180100IJRKxEEENS_10in_place_tEDpOT_, symObjAddr: 0x4B9C, symBinAddr: 0x1000073B4, symSize: 0x24 }
  - { offset: 0x3EA05, size: 0x8, addend: 0x0, symName: __ZNSt3__116__variant_detail8__access7__union9__get_altB8ne180100IRKNS0_7__unionILNS0_6_TraitE1ELm0EJijxyfdNS_12basic_stringIcNS_11char_traitsIcEENS_9allocatorIcEEEEEEELm2EEEODaOT_NS_16in_place_index_tIXT0_EEE, symObjAddr: 0x4BC0, symBinAddr: 0x1000073D8, symSize: 0x24 }
  - { offset: 0x3EA48, size: 0x8, addend: 0x0, symName: __ZNSt3__116__variant_detail8__access7__union9__get_altB8ne180100IRKNS0_7__unionILNS0_6_TraitE1ELm1EJjxyfdNS_12basic_stringIcNS_11char_traitsIcEENS_9allocatorIcEEEEEEELm1EEEODaOT_NS_16in_place_index_tIXT0_EEE, symObjAddr: 0x4BE4, symBinAddr: 0x1000073FC, symSize: 0x24 }
  - { offset: 0x3EA8B, size: 0x8, addend: 0x0, symName: __ZNSt3__116__variant_detail8__access7__union9__get_altB8ne180100IRKNS0_7__unionILNS0_6_TraitE1ELm2EJxyfdNS_12basic_stringIcNS_11char_traitsIcEENS_9allocatorIcEEEEEEEEEODaOT_NS_16in_place_index_tILm0EEE, symObjAddr: 0x4C08, symBinAddr: 0x100007420, symSize: 0x14 }
  - { offset: 0x3EACF, size: 0x8, addend: 0x0, symName: __ZNSt3__116__variant_detail8__access6__base9__get_altB8ne180100ILm3ERKNS0_6__baseILNS0_6_TraitE1EJijxyfdNS_12basic_stringIcNS_11char_traitsIcEENS_9allocatorIcEEEEEEEEEODaOT0_, symObjAddr: 0x4C50, symBinAddr: 0x100007468, symSize: 0x24 }
  - { offset: 0x3EB06, size: 0x8, addend: 0x0, symName: __ZZNSt3__116__variant_detail6__ctorINS0_8__traitsIJijxyfdNS_12basic_stringIcNS_11char_traitsIcEENS_9allocatorIcEEEEEEEE19__generic_constructB8ne180100IRKNS0_18__copy_constructorIS9_LNS0_6_TraitE1EEEEEvRSA_OT_ENKUlRSI_OT0_E_clINS0_5__altILm3EyEERKSQ_EEDaSK_SM_, symObjAddr: 0x4C74, symBinAddr: 0x10000748C, symSize: 0x30 }
  - { offset: 0x3EB6B, size: 0x8, addend: 0x0, symName: __ZNSt3__116__variant_detail6__ctorINS0_8__traitsIJijxyfdNS_12basic_stringIcNS_11char_traitsIcEENS_9allocatorIcEEEEEEEE15__construct_altB8ne180100ILm3EyJRKyEEERT0_RNS0_5__altIXT_ESE_EEDpOT1_, symObjAddr: 0x4CA4, symBinAddr: 0x1000074BC, symSize: 0x30 }
  - { offset: 0x3EBC2, size: 0x8, addend: 0x0, symName: __ZNSt3__116__variant_detail5__altILm3EyEC1B8ne180100IJRKyEEENS_10in_place_tEDpOT_, symObjAddr: 0x4CD4, symBinAddr: 0x1000074EC, symSize: 0x34 }
  - { offset: 0x3EC12, size: 0x8, addend: 0x0, symName: __ZNSt3__116__variant_detail5__altILm3EyEC2B8ne180100IJRKyEEENS_10in_place_tEDpOT_, symObjAddr: 0x4D08, symBinAddr: 0x100007520, symSize: 0x24 }
  - { offset: 0x3EC62, size: 0x8, addend: 0x0, symName: __ZNSt3__116__variant_detail8__access7__union9__get_altB8ne180100IRKNS0_7__unionILNS0_6_TraitE1ELm0EJijxyfdNS_12basic_stringIcNS_11char_traitsIcEENS_9allocatorIcEEEEEEELm3EEEODaOT_NS_16in_place_index_tIXT0_EEE, symObjAddr: 0x4D2C, symBinAddr: 0x100007544, symSize: 0x24 }
  - { offset: 0x3ECA5, size: 0x8, addend: 0x0, symName: __ZNSt3__116__variant_detail8__access7__union9__get_altB8ne180100IRKNS0_7__unionILNS0_6_TraitE1ELm1EJjxyfdNS_12basic_stringIcNS_11char_traitsIcEENS_9allocatorIcEEEEEEELm2EEEODaOT_NS_16in_place_index_tIXT0_EEE, symObjAddr: 0x4D50, symBinAddr: 0x100007568, symSize: 0x24 }
  - { offset: 0x3ECE8, size: 0x8, addend: 0x0, symName: __ZNSt3__116__variant_detail8__access7__union9__get_altB8ne180100IRKNS0_7__unionILNS0_6_TraitE1ELm2EJxyfdNS_12basic_stringIcNS_11char_traitsIcEENS_9allocatorIcEEEEEEELm1EEEODaOT_NS_16in_place_index_tIXT0_EEE, symObjAddr: 0x4D74, symBinAddr: 0x10000758C, symSize: 0x24 }
  - { offset: 0x3ED2B, size: 0x8, addend: 0x0, symName: __ZNSt3__116__variant_detail8__access7__union9__get_altB8ne180100IRKNS0_7__unionILNS0_6_TraitE1ELm3EJyfdNS_12basic_stringIcNS_11char_traitsIcEENS_9allocatorIcEEEEEEEEEODaOT_NS_16in_place_index_tILm0EEE, symObjAddr: 0x4D98, symBinAddr: 0x1000075B0, symSize: 0x14 }
  - { offset: 0x3ED6F, size: 0x8, addend: 0x0, symName: __ZNSt3__116__variant_detail8__access6__base9__get_altB8ne180100ILm4ERKNS0_6__baseILNS0_6_TraitE1EJijxyfdNS_12basic_stringIcNS_11char_traitsIcEENS_9allocatorIcEEEEEEEEEODaOT0_, symObjAddr: 0x4DE0, symBinAddr: 0x1000075F8, symSize: 0x24 }
  - { offset: 0x3EDA6, size: 0x8, addend: 0x0, symName: __ZZNSt3__116__variant_detail6__ctorINS0_8__traitsIJijxyfdNS_12basic_stringIcNS_11char_traitsIcEENS_9allocatorIcEEEEEEEE19__generic_constructB8ne180100IRKNS0_18__copy_constructorIS9_LNS0_6_TraitE1EEEEEvRSA_OT_ENKUlRSI_OT0_E_clINS0_5__altILm4EfEERKSQ_EEDaSK_SM_, symObjAddr: 0x4E04, symBinAddr: 0x10000761C, symSize: 0x30 }
  - { offset: 0x3EE0B, size: 0x8, addend: 0x0, symName: __ZNSt3__116__variant_detail6__ctorINS0_8__traitsIJijxyfdNS_12basic_stringIcNS_11char_traitsIcEENS_9allocatorIcEEEEEEEE15__construct_altB8ne180100ILm4EfJRKfEEERT0_RNS0_5__altIXT_ESE_EEDpOT1_, symObjAddr: 0x4E34, symBinAddr: 0x10000764C, symSize: 0x30 }
  - { offset: 0x3EE62, size: 0x8, addend: 0x0, symName: __ZNSt3__116__variant_detail5__altILm4EfEC1B8ne180100IJRKfEEENS_10in_place_tEDpOT_, symObjAddr: 0x4E64, symBinAddr: 0x10000767C, symSize: 0x34 }
  - { offset: 0x3EEB2, size: 0x8, addend: 0x0, symName: __ZNSt3__116__variant_detail5__altILm4EfEC2B8ne180100IJRKfEEENS_10in_place_tEDpOT_, symObjAddr: 0x4E98, symBinAddr: 0x1000076B0, symSize: 0x24 }
  - { offset: 0x3EF02, size: 0x8, addend: 0x0, symName: __ZNSt3__116__variant_detail8__access7__union9__get_altB8ne180100IRKNS0_7__unionILNS0_6_TraitE1ELm0EJijxyfdNS_12basic_stringIcNS_11char_traitsIcEENS_9allocatorIcEEEEEEELm4EEEODaOT_NS_16in_place_index_tIXT0_EEE, symObjAddr: 0x4EBC, symBinAddr: 0x1000076D4, symSize: 0x24 }
  - { offset: 0x3EF45, size: 0x8, addend: 0x0, symName: __ZNSt3__116__variant_detail8__access7__union9__get_altB8ne180100IRKNS0_7__unionILNS0_6_TraitE1ELm1EJjxyfdNS_12basic_stringIcNS_11char_traitsIcEENS_9allocatorIcEEEEEEELm3EEEODaOT_NS_16in_place_index_tIXT0_EEE, symObjAddr: 0x4EE0, symBinAddr: 0x1000076F8, symSize: 0x24 }
  - { offset: 0x3EF88, size: 0x8, addend: 0x0, symName: __ZNSt3__116__variant_detail8__access7__union9__get_altB8ne180100IRKNS0_7__unionILNS0_6_TraitE1ELm2EJxyfdNS_12basic_stringIcNS_11char_traitsIcEENS_9allocatorIcEEEEEEELm2EEEODaOT_NS_16in_place_index_tIXT0_EEE, symObjAddr: 0x4F04, symBinAddr: 0x10000771C, symSize: 0x24 }
  - { offset: 0x3EFCB, size: 0x8, addend: 0x0, symName: __ZNSt3__116__variant_detail8__access7__union9__get_altB8ne180100IRKNS0_7__unionILNS0_6_TraitE1ELm3EJyfdNS_12basic_stringIcNS_11char_traitsIcEENS_9allocatorIcEEEEEEELm1EEEODaOT_NS_16in_place_index_tIXT0_EEE, symObjAddr: 0x4F28, symBinAddr: 0x100007740, symSize: 0x24 }
  - { offset: 0x3F00E, size: 0x8, addend: 0x0, symName: __ZNSt3__116__variant_detail8__access7__union9__get_altB8ne180100IRKNS0_7__unionILNS0_6_TraitE1ELm4EJfdNS_12basic_stringIcNS_11char_traitsIcEENS_9allocatorIcEEEEEEEEEODaOT_NS_16in_place_index_tILm0EEE, symObjAddr: 0x4F4C, symBinAddr: 0x100007764, symSize: 0x14 }
  - { offset: 0x3F052, size: 0x8, addend: 0x0, symName: __ZNSt3__116__variant_detail8__access6__base9__get_altB8ne180100ILm5ERKNS0_6__baseILNS0_6_TraitE1EJijxyfdNS_12basic_stringIcNS_11char_traitsIcEENS_9allocatorIcEEEEEEEEEODaOT0_, symObjAddr: 0x4F94, symBinAddr: 0x1000077AC, symSize: 0x24 }
  - { offset: 0x3F089, size: 0x8, addend: 0x0, symName: __ZZNSt3__116__variant_detail6__ctorINS0_8__traitsIJijxyfdNS_12basic_stringIcNS_11char_traitsIcEENS_9allocatorIcEEEEEEEE19__generic_constructB8ne180100IRKNS0_18__copy_constructorIS9_LNS0_6_TraitE1EEEEEvRSA_OT_ENKUlRSI_OT0_E_clINS0_5__altILm5EdEERKSQ_EEDaSK_SM_, symObjAddr: 0x4FB8, symBinAddr: 0x1000077D0, symSize: 0x30 }
  - { offset: 0x3F0EE, size: 0x8, addend: 0x0, symName: __ZNSt3__116__variant_detail6__ctorINS0_8__traitsIJijxyfdNS_12basic_stringIcNS_11char_traitsIcEENS_9allocatorIcEEEEEEEE15__construct_altB8ne180100ILm5EdJRKdEEERT0_RNS0_5__altIXT_ESE_EEDpOT1_, symObjAddr: 0x4FE8, symBinAddr: 0x100007800, symSize: 0x30 }
  - { offset: 0x3F145, size: 0x8, addend: 0x0, symName: __ZNSt3__116__variant_detail5__altILm5EdEC1B8ne180100IJRKdEEENS_10in_place_tEDpOT_, symObjAddr: 0x5018, symBinAddr: 0x100007830, symSize: 0x34 }
  - { offset: 0x3F195, size: 0x8, addend: 0x0, symName: __ZNSt3__116__variant_detail5__altILm5EdEC2B8ne180100IJRKdEEENS_10in_place_tEDpOT_, symObjAddr: 0x504C, symBinAddr: 0x100007864, symSize: 0x24 }
  - { offset: 0x3F1E5, size: 0x8, addend: 0x0, symName: __ZNSt3__116__variant_detail8__access7__union9__get_altB8ne180100IRKNS0_7__unionILNS0_6_TraitE1ELm0EJijxyfdNS_12basic_stringIcNS_11char_traitsIcEENS_9allocatorIcEEEEEEELm5EEEODaOT_NS_16in_place_index_tIXT0_EEE, symObjAddr: 0x5070, symBinAddr: 0x100007888, symSize: 0x24 }
  - { offset: 0x3F228, size: 0x8, addend: 0x0, symName: __ZNSt3__116__variant_detail8__access7__union9__get_altB8ne180100IRKNS0_7__unionILNS0_6_TraitE1ELm1EJjxyfdNS_12basic_stringIcNS_11char_traitsIcEENS_9allocatorIcEEEEEEELm4EEEODaOT_NS_16in_place_index_tIXT0_EEE, symObjAddr: 0x5094, symBinAddr: 0x1000078AC, symSize: 0x24 }
  - { offset: 0x3F26B, size: 0x8, addend: 0x0, symName: __ZNSt3__116__variant_detail8__access7__union9__get_altB8ne180100IRKNS0_7__unionILNS0_6_TraitE1ELm2EJxyfdNS_12basic_stringIcNS_11char_traitsIcEENS_9allocatorIcEEEEEEELm3EEEODaOT_NS_16in_place_index_tIXT0_EEE, symObjAddr: 0x50B8, symBinAddr: 0x1000078D0, symSize: 0x24 }
  - { offset: 0x3F2AE, size: 0x8, addend: 0x0, symName: __ZNSt3__116__variant_detail8__access7__union9__get_altB8ne180100IRKNS0_7__unionILNS0_6_TraitE1ELm3EJyfdNS_12basic_stringIcNS_11char_traitsIcEENS_9allocatorIcEEEEEEELm2EEEODaOT_NS_16in_place_index_tIXT0_EEE, symObjAddr: 0x50DC, symBinAddr: 0x1000078F4, symSize: 0x24 }
  - { offset: 0x3F2F1, size: 0x8, addend: 0x0, symName: __ZNSt3__116__variant_detail8__access7__union9__get_altB8ne180100IRKNS0_7__unionILNS0_6_TraitE1ELm4EJfdNS_12basic_stringIcNS_11char_traitsIcEENS_9allocatorIcEEEEEEELm1EEEODaOT_NS_16in_place_index_tIXT0_EEE, symObjAddr: 0x5100, symBinAddr: 0x100007918, symSize: 0x24 }
  - { offset: 0x3F334, size: 0x8, addend: 0x0, symName: __ZNSt3__116__variant_detail8__access7__union9__get_altB8ne180100IRKNS0_7__unionILNS0_6_TraitE1ELm5EJdNS_12basic_stringIcNS_11char_traitsIcEENS_9allocatorIcEEEEEEEEEODaOT_NS_16in_place_index_tILm0EEE, symObjAddr: 0x5124, symBinAddr: 0x10000793C, symSize: 0x14 }
  - { offset: 0x3F378, size: 0x8, addend: 0x0, symName: __ZNSt3__116__variant_detail8__access6__base9__get_altB8ne180100ILm6ERKNS0_6__baseILNS0_6_TraitE1EJijxyfdNS_12basic_stringIcNS_11char_traitsIcEENS_9allocatorIcEEEEEEEEEODaOT0_, symObjAddr: 0x516C, symBinAddr: 0x100007984, symSize: 0x24 }
  - { offset: 0x3F3AF, size: 0x8, addend: 0x0, symName: __ZZNSt3__116__variant_detail6__ctorINS0_8__traitsIJijxyfdNS_12basic_stringIcNS_11char_traitsIcEENS_9allocatorIcEEEEEEEE19__generic_constructB8ne180100IRKNS0_18__copy_constructorIS9_LNS0_6_TraitE1EEEEEvRSA_OT_ENKUlRSI_OT0_E_clINS0_5__altILm6ES8_EERKSQ_EEDaSK_SM_, symObjAddr: 0x5190, symBinAddr: 0x1000079A8, symSize: 0x30 }
  - { offset: 0x3F409, size: 0x8, addend: 0x0, symName: __ZNSt3__116__variant_detail6__ctorINS0_8__traitsIJijxyfdNS_12basic_stringIcNS_11char_traitsIcEENS_9allocatorIcEEEEEEEE15__construct_altB8ne180100ILm6ES8_JRKS8_EEERT0_RNS0_5__altIXT_ESE_EEDpOT1_, symObjAddr: 0x51C0, symBinAddr: 0x1000079D8, symSize: 0x30 }
  - { offset: 0x3F45A, size: 0x8, addend: 0x0, symName: __ZNSt3__116__variant_detail5__altILm6ENS_12basic_stringIcNS_11char_traitsIcEENS_9allocatorIcEEEEEC1B8ne180100IJRKS7_EEENS_10in_place_tEDpOT_, symObjAddr: 0x51F0, symBinAddr: 0x100007A08, symSize: 0x34 }
  - { offset: 0x3F4AA, size: 0x8, addend: 0x0, symName: __ZNSt3__116__variant_detail5__altILm6ENS_12basic_stringIcNS_11char_traitsIcEENS_9allocatorIcEEEEEC2B8ne180100IJRKS7_EEENS_10in_place_tEDpOT_, symObjAddr: 0x5224, symBinAddr: 0x100007A3C, symSize: 0x34 }
  - { offset: 0x3F4FA, size: 0x8, addend: 0x0, symName: __ZNSt3__116__variant_detail8__access7__union9__get_altB8ne180100IRKNS0_7__unionILNS0_6_TraitE1ELm0EJijxyfdNS_12basic_stringIcNS_11char_traitsIcEENS_9allocatorIcEEEEEEELm6EEEODaOT_NS_16in_place_index_tIXT0_EEE, symObjAddr: 0x5258, symBinAddr: 0x100007A70, symSize: 0x24 }
  - { offset: 0x3F53D, size: 0x8, addend: 0x0, symName: __ZNSt3__116__variant_detail8__access7__union9__get_altB8ne180100IRKNS0_7__unionILNS0_6_TraitE1ELm1EJjxyfdNS_12basic_stringIcNS_11char_traitsIcEENS_9allocatorIcEEEEEEELm5EEEODaOT_NS_16in_place_index_tIXT0_EEE, symObjAddr: 0x527C, symBinAddr: 0x100007A94, symSize: 0x24 }
  - { offset: 0x3F580, size: 0x8, addend: 0x0, symName: __ZNSt3__116__variant_detail8__access7__union9__get_altB8ne180100IRKNS0_7__unionILNS0_6_TraitE1ELm2EJxyfdNS_12basic_stringIcNS_11char_traitsIcEENS_9allocatorIcEEEEEEELm4EEEODaOT_NS_16in_place_index_tIXT0_EEE, symObjAddr: 0x52A0, symBinAddr: 0x100007AB8, symSize: 0x24 }
  - { offset: 0x3F5C3, size: 0x8, addend: 0x0, symName: __ZNSt3__116__variant_detail8__access7__union9__get_altB8ne180100IRKNS0_7__unionILNS0_6_TraitE1ELm3EJyfdNS_12basic_stringIcNS_11char_traitsIcEENS_9allocatorIcEEEEEEELm3EEEODaOT_NS_16in_place_index_tIXT0_EEE, symObjAddr: 0x52C4, symBinAddr: 0x100007ADC, symSize: 0x24 }
  - { offset: 0x3F606, size: 0x8, addend: 0x0, symName: __ZNSt3__116__variant_detail8__access7__union9__get_altB8ne180100IRKNS0_7__unionILNS0_6_TraitE1ELm4EJfdNS_12basic_stringIcNS_11char_traitsIcEENS_9allocatorIcEEEEEEELm2EEEODaOT_NS_16in_place_index_tIXT0_EEE, symObjAddr: 0x52E8, symBinAddr: 0x100007B00, symSize: 0x24 }
  - { offset: 0x3F649, size: 0x8, addend: 0x0, symName: __ZNSt3__116__variant_detail8__access7__union9__get_altB8ne180100IRKNS0_7__unionILNS0_6_TraitE1ELm5EJdNS_12basic_stringIcNS_11char_traitsIcEENS_9allocatorIcEEEEEEELm1EEEODaOT_NS_16in_place_index_tIXT0_EEE, symObjAddr: 0x530C, symBinAddr: 0x100007B24, symSize: 0x24 }
  - { offset: 0x3F68C, size: 0x8, addend: 0x0, symName: __ZNSt3__116__variant_detail8__access7__union9__get_altB8ne180100IRKNS0_7__unionILNS0_6_TraitE1ELm6EJNS_12basic_stringIcNS_11char_traitsIcEENS_9allocatorIcEEEEEEEEEODaOT_NS_16in_place_index_tILm0EEE, symObjAddr: 0x5330, symBinAddr: 0x100007B48, symSize: 0x14 }
  - { offset: 0x3F6C5, size: 0x8, addend: 0x0, symName: __ZNSt3__116__variant_detail18__move_constructorINS0_8__traitsIJijxyfdNS_12basic_stringIcNS_11char_traitsIcEENS_9allocatorIcEEEEEEELNS0_6_TraitE1EED2Ev, symObjAddr: 0x5344, symBinAddr: 0x100007B5C, symSize: 0x2C }
  - { offset: 0x3F6EF, size: 0x8, addend: 0x0, symName: __ZNSt3__116__variant_detail6__ctorINS0_8__traitsIJijxyfdNS_12basic_stringIcNS_11char_traitsIcEENS_9allocatorIcEEEEEEEED2Ev, symObjAddr: 0x5370, symBinAddr: 0x100007B88, symSize: 0x2C }
  - { offset: 0x3F71C, size: 0x8, addend: 0x0, symName: __ZNSt3__116__variant_detail6__dtorINS0_8__traitsIJijxyfdNS_12basic_stringIcNS_11char_traitsIcEENS_9allocatorIcEEEEEEELNS0_6_TraitE1EED2Ev, symObjAddr: 0x539C, symBinAddr: 0x100007BB4, symSize: 0x34 }
  - { offset: 0x3F746, size: 0x8, addend: 0x0, symName: __ZNSt3__116__variant_detail6__baseILNS0_6_TraitE1EJijxyfdNS_12basic_stringIcNS_11char_traitsIcEENS_9allocatorIcEEEEEED2Ev, symObjAddr: 0x53D0, symBinAddr: 0x100007BE8, symSize: 0x2C }
  - { offset: 0x3F773, size: 0x8, addend: 0x0, symName: __ZNSt3__116__variant_detail7__unionILNS0_6_TraitE1ELm0EJijxyfdNS_12basic_stringIcNS_11char_traitsIcEENS_9allocatorIcEEEEEED1Ev, symObjAddr: 0x53FC, symBinAddr: 0x100007C14, symSize: 0x2C }
  - { offset: 0x3F79D, size: 0x8, addend: 0x0, symName: __ZNSt3__116__variant_detail7__unionILNS0_6_TraitE1ELm0EJijxyfdNS_12basic_stringIcNS_11char_traitsIcEENS_9allocatorIcEEEEEED2Ev, symObjAddr: 0x5428, symBinAddr: 0x100007C40, symSize: 0x14 }
  - { offset: 0x3F7C7, size: 0x8, addend: 0x0, symName: __ZNSt3__18weak_ptrI8TreeNodeEC2Ev, symObjAddr: 0x543C, symBinAddr: 0x100007C54, symSize: 0x1C }
  - { offset: 0x3F7F3, size: 0x8, addend: 0x0, symName: __ZNSt3__16vectorINS_10shared_ptrI8TreeNodeEENS_9allocatorIS3_EEEC2B8ne180100Ev, symObjAddr: 0x5458, symBinAddr: 0x100007C70, symSize: 0x4C }
  - { offset: 0x3F829, size: 0x8, addend: 0x0, symName: __ZNSt3__117__compressed_pairIPNS_10shared_ptrI8TreeNodeEENS_9allocatorIS3_EEEC1B8ne180100IDnNS_18__default_init_tagEEEOT_OT0_, symObjAddr: 0x54A4, symBinAddr: 0x100007CBC, symSize: 0x3C }
  - { offset: 0x3F881, size: 0x8, addend: 0x0, symName: __ZNSt3__117__compressed_pairIPNS_10shared_ptrI8TreeNodeEENS_9allocatorIS3_EEEC2B8ne180100IDnNS_18__default_init_tagEEEOT_OT0_, symObjAddr: 0x54E0, symBinAddr: 0x100007CF8, symSize: 0x40 }
  - { offset: 0x3F8D9, size: 0x8, addend: 0x0, symName: __ZNSt3__122__compressed_pair_elemIPNS_10shared_ptrI8TreeNodeEELi0ELb0EEC2B8ne180100IDnvEEOT_, symObjAddr: 0x5520, symBinAddr: 0x100007D38, symSize: 0x1C }
  - { offset: 0x3F91B, size: 0x8, addend: 0x0, symName: __ZNSt3__122__compressed_pair_elemINS_9allocatorINS_10shared_ptrI8TreeNodeEEEELi1ELb1EEC2B8ne180100ENS_18__default_init_tagE, symObjAddr: 0x553C, symBinAddr: 0x100007D54, symSize: 0x2C }
  - { offset: 0x3F950, size: 0x8, addend: 0x0, symName: __ZNSt3__19allocatorINS_10shared_ptrI8TreeNodeEEEC2B8ne180100Ev, symObjAddr: 0x5568, symBinAddr: 0x100007D80, symSize: 0x2C }
  - { offset: 0x3F97A, size: 0x8, addend: 0x0, symName: __ZNSt3__116__non_trivial_ifILb1ENS_9allocatorINS_10shared_ptrI8TreeNodeEEEEEC2B8ne180100Ev, symObjAddr: 0x5594, symBinAddr: 0x100007DAC, symSize: 0x14 }
  - { offset: 0x3F9A4, size: 0x8, addend: 0x0, symName: __ZNSt3__18weak_ptrI8TreeNodeED1Ev, symObjAddr: 0x55A8, symBinAddr: 0x100007DC0, symSize: 0x2C }
  - { offset: 0x3F9D0, size: 0x8, addend: 0x0, symName: __ZNSt3__18weak_ptrI8TreeNodeED2Ev, symObjAddr: 0x55D4, symBinAddr: 0x100007DEC, symSize: 0x54 }
  - { offset: 0x3F9FC, size: 0x8, addend: 0x0, symName: __ZN8TreeNodeD2Ev, symObjAddr: 0x5628, symBinAddr: 0x100007E40, symSize: 0x70 }
  - { offset: 0x3FA26, size: 0x8, addend: 0x0, symName: __ZNSt3__16vectorINS_10shared_ptrI8TreeNodeEENS_9allocatorIS3_EEED1B8ne180100Ev, symObjAddr: 0x5698, symBinAddr: 0x100007EB0, symSize: 0x2C }
  - { offset: 0x3FA50, size: 0x8, addend: 0x0, symName: __ZNSt3__16vectorINS_10shared_ptrI8TreeNodeEENS_9allocatorIS3_EEED2B8ne180100Ev, symObjAddr: 0x56C4, symBinAddr: 0x100007EDC, symSize: 0x44 }
  - { offset: 0x3FA7A, size: 0x8, addend: 0x0, symName: __ZNSt3__16vectorINS_10shared_ptrI8TreeNodeEENS_9allocatorIS3_EEE16__destroy_vectorC1B8ne180100ERS6_, symObjAddr: 0x5708, symBinAddr: 0x100007F20, symSize: 0x34 }
  - { offset: 0x3FAB3, size: 0x8, addend: 0x0, symName: __ZNSt3__16vectorINS_10shared_ptrI8TreeNodeEENS_9allocatorIS3_EEE16__destroy_vectorclB8ne180100Ev, symObjAddr: 0x573C, symBinAddr: 0x100007F54, symSize: 0x90 }
  - { offset: 0x3FAD9, size: 0x8, addend: 0x0, symName: __ZNSt3__16vectorINS_10shared_ptrI8TreeNodeEENS_9allocatorIS3_EEE16__destroy_vectorC2B8ne180100ERS6_, symObjAddr: 0x57CC, symBinAddr: 0x100007FE4, symSize: 0x20 }
  - { offset: 0x3FB12, size: 0x8, addend: 0x0, symName: __ZNSt3__16vectorINS_10shared_ptrI8TreeNodeEENS_9allocatorIS3_EEE7__clearB8ne180100Ev, symObjAddr: 0x57EC, symBinAddr: 0x100008004, symSize: 0x28 }
  - { offset: 0x3FB38, size: 0x8, addend: 0x0, symName: __ZNKSt3__16vectorINS_10shared_ptrI8TreeNodeEENS_9allocatorIS3_EEE17__annotate_deleteB8ne180100Ev, symObjAddr: 0x5814, symBinAddr: 0x10000802C, symSize: 0x10 }
  - { offset: 0x3FB5E, size: 0x8, addend: 0x0, symName: __ZNSt3__116allocator_traitsINS_9allocatorINS_10shared_ptrI8TreeNodeEEEEE10deallocateB8ne180100ERS5_PS4_m, symObjAddr: 0x5824, symBinAddr: 0x10000803C, symSize: 0x34 }
  - { offset: 0x3FBA0, size: 0x8, addend: 0x0, symName: __ZNSt3__16vectorINS_10shared_ptrI8TreeNodeEENS_9allocatorIS3_EEE7__allocB8ne180100Ev, symObjAddr: 0x5858, symBinAddr: 0x100008070, symSize: 0x28 }
  - { offset: 0x3FBC6, size: 0x8, addend: 0x0, symName: __ZNKSt3__16vectorINS_10shared_ptrI8TreeNodeEENS_9allocatorIS3_EEE8capacityB8ne180100Ev, symObjAddr: 0x5880, symBinAddr: 0x100008098, symSize: 0x40 }
  - { offset: 0x3FBEC, size: 0x8, addend: 0x0, symName: __ZNSt3__16vectorINS_10shared_ptrI8TreeNodeEENS_9allocatorIS3_EEE22__base_destruct_at_endB8ne180100EPS3_, symObjAddr: 0x58C0, symBinAddr: 0x1000080D8, symSize: 0x8C }
  - { offset: 0x3FC30, size: 0x8, addend: 0x0, symName: __ZNSt3__116allocator_traitsINS_9allocatorINS_10shared_ptrI8TreeNodeEEEEE7destroyB8ne180100IS4_vEEvRS5_PT_, symObjAddr: 0x594C, symBinAddr: 0x100008164, symSize: 0x2C }
  - { offset: 0x3FC6D, size: 0x8, addend: 0x0, symName: __ZNSt3__19allocatorINS_10shared_ptrI8TreeNodeEEE7destroyB8ne180100EPS3_, symObjAddr: 0x598C, symBinAddr: 0x1000081A4, symSize: 0x28 }
  - { offset: 0x3FCA1, size: 0x8, addend: 0x0, symName: __ZNSt3__19allocatorINS_10shared_ptrI8TreeNodeEEE10deallocateB8ne180100EPS3_m, symObjAddr: 0x59B4, symBinAddr: 0x1000081CC, symSize: 0x40 }
  - { offset: 0x3FCE3, size: 0x8, addend: 0x0, symName: __ZNSt3__117__compressed_pairIPNS_10shared_ptrI8TreeNodeEENS_9allocatorIS3_EEE6secondB8ne180100Ev, symObjAddr: 0x5AFC, symBinAddr: 0x100008314, symSize: 0x24 }
  - { offset: 0x3FD09, size: 0x8, addend: 0x0, symName: __ZNSt3__122__compressed_pair_elemINS_9allocatorINS_10shared_ptrI8TreeNodeEEEELi1ELb1EE5__getB8ne180100Ev, symObjAddr: 0x5B20, symBinAddr: 0x100008338, symSize: 0x14 }
  - { offset: 0x3FD2F, size: 0x8, addend: 0x0, symName: __ZNKSt3__16vectorINS_10shared_ptrI8TreeNodeEENS_9allocatorIS3_EEE9__end_capB8ne180100Ev, symObjAddr: 0x5B34, symBinAddr: 0x10000834C, symSize: 0x28 }
  - { offset: 0x3FD55, size: 0x8, addend: 0x0, symName: __ZNKSt3__117__compressed_pairIPNS_10shared_ptrI8TreeNodeEENS_9allocatorIS3_EEE5firstB8ne180100Ev, symObjAddr: 0x5B5C, symBinAddr: 0x100008374, symSize: 0x24 }
  - { offset: 0x3FD7B, size: 0x8, addend: 0x0, symName: __ZNKSt3__122__compressed_pair_elemIPNS_10shared_ptrI8TreeNodeEELi0ELb0EE5__getB8ne180100Ev, symObjAddr: 0x5B80, symBinAddr: 0x100008398, symSize: 0x14 }
  - { offset: 0x3FDA1, size: 0x8, addend: 0x0, symName: __ZNSt3__120__shared_ptr_emplaceI8TreeNodeNS_9allocatorIS1_EEE8_StorageD2B8ne180100Ev, symObjAddr: 0x5B94, symBinAddr: 0x1000083AC, symSize: 0x2C }
  - { offset: 0x3FDCB, size: 0x8, addend: 0x0, symName: __ZNSt3__120__shared_ptr_emplaceI8TreeNodeNS_9allocatorIS1_EEED2Ev, symObjAddr: 0x5BC0, symBinAddr: 0x1000083D8, symSize: 0x48 }
  - { offset: 0x3FDF7, size: 0x8, addend: 0x0, symName: __ZNSt3__120__shared_ptr_emplaceI8TreeNodeNS_9allocatorIS1_EEE21__on_zero_shared_implB8ne180100IS3_Li0EEEvv, symObjAddr: 0x5C08, symBinAddr: 0x100008420, symSize: 0x44 }
  - { offset: 0x3FE47, size: 0x8, addend: 0x0, symName: __ZNSt3__116allocator_traitsINS_9allocatorI8TreeNodeEEE7destroyB8ne180100IS2_vEEvRS3_PT_, symObjAddr: 0x5C4C, symBinAddr: 0x100008464, symSize: 0x2C }
  - { offset: 0x3FE84, size: 0x8, addend: 0x0, symName: __ZNSt3__19allocatorI8TreeNodeE7destroyB8ne180100EPS1_, symObjAddr: 0x5C78, symBinAddr: 0x100008490, symSize: 0x30 }
  - { offset: 0x3FEB8, size: 0x8, addend: 0x0, symName: __ZNSt3__116allocator_traitsINS_9allocatorINS_20__shared_ptr_emplaceI8TreeNodeNS1_IS3_EEEEEEE10deallocateB8ne180100ERS6_PS5_m, symObjAddr: 0x5CA8, symBinAddr: 0x1000084C0, symSize: 0x34 }
  - { offset: 0x3FEFA, size: 0x8, addend: 0x0, symName: __ZNSt3__114pointer_traitsIPNS_20__shared_ptr_emplaceI8TreeNodeNS_9allocatorIS2_EEEEE10pointer_toB8ne180100ERS5_, symObjAddr: 0x5CDC, symBinAddr: 0x1000084F4, symSize: 0x14 }
  - { offset: 0x3FF1D, size: 0x8, addend: 0x0, symName: __ZNSt3__19allocatorINS_20__shared_ptr_emplaceI8TreeNodeNS0_IS2_EEEEE10deallocateB8ne180100EPS4_m, symObjAddr: 0x5CF0, symBinAddr: 0x100008508, symSize: 0x44 }
  - { offset: 0x3FF5F, size: 0x8, addend: 0x0, symName: __ZNSt3__110shared_ptrI8TreeNodeEC1B8ne180100Ev, symObjAddr: 0x5D34, symBinAddr: 0x10000854C, symSize: 0x2C }
  - { offset: 0x3FF89, size: 0x8, addend: 0x0, symName: __ZNSt3__110shared_ptrI8TreeNodeEC2B8ne180100Ev, symObjAddr: 0x5DDC, symBinAddr: 0x1000085F4, symSize: 0x1C }
  - { offset: 0x3FFB3, size: 0x8, addend: 0x0, symName: __ZNKSt3__18weak_ptrI8TreeNodeE7expiredB8ne180100Ev, symObjAddr: 0x5DF8, symBinAddr: 0x100008610, symSize: 0x64 }
  - { offset: 0x3FFD9, size: 0x8, addend: 0x0, symName: __ZNSt3__110shared_ptrI8TreeNodeEC1B8ne180100IS1_EERKNS0_IT_EEPS1_, symObjAddr: 0x5E5C, symBinAddr: 0x100008674, symSize: 0x3C }
  - { offset: 0x4002A, size: 0x8, addend: 0x0, symName: __ZNSt3__18weak_ptrI8TreeNodeEaSIS1_Li0EEERS2_RKNS_10shared_ptrIT_EE, symObjAddr: 0x5E98, symBinAddr: 0x1000086B0, symSize: 0x50 }
  - { offset: 0x40070, size: 0x8, addend: 0x0, symName: __ZNKSt3__119__shared_weak_count9use_countB8ne180100Ev, symObjAddr: 0x5EE8, symBinAddr: 0x100008700, symSize: 0x24 }
  - { offset: 0x40096, size: 0x8, addend: 0x0, symName: __ZNKSt3__114__shared_count9use_countB8ne180100Ev, symObjAddr: 0x5F0C, symBinAddr: 0x100008724, symSize: 0x3C }
  - { offset: 0x400BC, size: 0x8, addend: 0x0, symName: __ZNSt3__110shared_ptrI8TreeNodeEC2B8ne180100IS1_EERKNS0_IT_EEPS1_, symObjAddr: 0x5F68, symBinAddr: 0x100008780, symSize: 0x70 }
  - { offset: 0x4010D, size: 0x8, addend: 0x0, symName: __ZNSt3__119__shared_weak_count12__add_sharedB8ne180100Ev, symObjAddr: 0x5FD8, symBinAddr: 0x1000087F0, symSize: 0x24 }
  - { offset: 0x40133, size: 0x8, addend: 0x0, symName: __ZNSt3__114__shared_count12__add_sharedB8ne180100Ev, symObjAddr: 0x5FFC, symBinAddr: 0x100008814, symSize: 0x28 }
  - { offset: 0x40159, size: 0x8, addend: 0x0, symName: __ZNSt3__18weak_ptrI8TreeNodeEC1IS1_Li0EEERKNS_10shared_ptrIT_EE, symObjAddr: 0x6054, symBinAddr: 0x10000886C, symSize: 0x34 }
  - { offset: 0x401A3, size: 0x8, addend: 0x0, symName: __ZNSt3__18weak_ptrI8TreeNodeE4swapERS2_, symObjAddr: 0x6088, symBinAddr: 0x1000088A0, symSize: 0x44 }
  - { offset: 0x401DA, size: 0x8, addend: 0x0, symName: __ZNSt3__18weak_ptrI8TreeNodeEC2IS1_Li0EEERKNS_10shared_ptrIT_EE, symObjAddr: 0x60CC, symBinAddr: 0x1000088E4, symSize: 0x70 }
  - { offset: 0x40224, size: 0x8, addend: 0x0, symName: __ZNSt3__119__shared_weak_count10__add_weakB8ne180100Ev, symObjAddr: 0x613C, symBinAddr: 0x100008954, symSize: 0x28 }
  - { offset: 0x4024A, size: 0x8, addend: 0x0, symName: __ZNSt3__120__shared_ptr_emplaceI8TreeNodeNS_9allocatorIS1_EEE8_Storage10__get_elemB8ne180100Ev, symObjAddr: 0x61DC, symBinAddr: 0x1000089F4, symSize: 0x3C }
  - { offset: 0x4029D, size: 0x8, addend: 0x0, symName: __ZNSt3__117__compressed_pairINS_9allocatorI8TreeNodeEES2_E17__get_second_baseB8ne180100EPS4_, symObjAddr: 0x6218, symBinAddr: 0x100008A30, symSize: 0x14 }
  - { offset: 0x402C0, size: 0x8, addend: 0x0, symName: __ZNSt3__118__allocation_guardINS_9allocatorINS_20__shared_ptr_emplaceI8TreeNodeNS1_IS3_EEEEEEED2B8ne180100Ev, symObjAddr: 0x622C, symBinAddr: 0x100008A44, symSize: 0x2C }
  - { offset: 0x402EA, size: 0x8, addend: 0x0, symName: __ZNSt3__118__allocation_guardINS_9allocatorINS_20__shared_ptr_emplaceI8TreeNodeNS1_IS3_EEEEEEE9__destroyB8ne180100Ev, symObjAddr: 0x6258, symBinAddr: 0x100008A70, symSize: 0x4C }
  - { offset: 0x40310, size: 0x8, addend: 0x0, symName: __ZNSt3__19allocatorI8TreeNodeEC2B8ne180100Ev, symObjAddr: 0x62A4, symBinAddr: 0x100008ABC, symSize: 0x2C }
  - { offset: 0x4033A, size: 0x8, addend: 0x0, symName: __ZNSt3__116__non_trivial_ifILb1ENS_9allocatorI8TreeNodeEEEC2B8ne180100Ev, symObjAddr: 0x62D0, symBinAddr: 0x100008AE8, symSize: 0x14 }
  - { offset: 0x40364, size: 0x8, addend: 0x0, symName: __ZN8TreeNode8addChildERKNSt3__110shared_ptrIS_EE, symObjAddr: 0x62E4, symBinAddr: 0x100008AFC, symSize: 0x90 }
  - { offset: 0x40398, size: 0x8, addend: 0x0, symName: __ZN8TreeNode9setParentERKNSt3__110shared_ptrIS_EE, symObjAddr: 0x63A8, symBinAddr: 0x100008BC0, symSize: 0x30 }
  - { offset: 0x403CC, size: 0x8, addend: 0x0, symName: __ZNSt3__123enable_shared_from_thisI8TreeNodeE16shared_from_thisB8ne180100Ev, symObjAddr: 0x63D8, symBinAddr: 0x100008BF0, symSize: 0x38 }
  - { offset: 0x403F2, size: 0x8, addend: 0x0, symName: __ZNSt3__16vectorINS_10shared_ptrI8TreeNodeEENS_9allocatorIS3_EEE9push_backB8ne180100ERKS3_, symObjAddr: 0x6410, symBinAddr: 0x100008C28, symSize: 0x90 }
  - { offset: 0x40438, size: 0x8, addend: 0x0, symName: __ZNSt3__110shared_ptrI8TreeNodeEC1B8ne180100IS1_vEERKNS_8weak_ptrIT_EE, symObjAddr: 0x64A0, symBinAddr: 0x100008CB8, symSize: 0x34 }
  - { offset: 0x4047B, size: 0x8, addend: 0x0, symName: __ZNSt3__110shared_ptrI8TreeNodeEC2B8ne180100IS1_vEERKNS_8weak_ptrIT_EE, symObjAddr: 0x64D4, symBinAddr: 0x100008CEC, symSize: 0xA0 }
  - { offset: 0x404DB, size: 0x8, addend: 0x0, symName: __ZNSt3__112bad_weak_ptrC1B8ne180100Ev, symObjAddr: 0x65AC, symBinAddr: 0x100008DC4, symSize: 0x2C }
  - { offset: 0x40505, size: 0x8, addend: 0x0, symName: __ZNSt3__112bad_weak_ptrC2B8ne180100Ev, symObjAddr: 0x65D8, symBinAddr: 0x100008DF0, symSize: 0x3C }
  - { offset: 0x4052F, size: 0x8, addend: 0x0, symName: __ZNSt9exceptionC2B8ne180100Ev, symObjAddr: 0x6614, symBinAddr: 0x100008E2C, symSize: 0x24 }
  - { offset: 0x40559, size: 0x8, addend: 0x0, symName: __ZNSt3__16vectorINS_10shared_ptrI8TreeNodeEENS_9allocatorIS3_EEE9__end_capB8ne180100Ev, symObjAddr: 0x6638, symBinAddr: 0x100008E50, symSize: 0x28 }
  - { offset: 0x4057F, size: 0x8, addend: 0x0, symName: __ZNSt3__16vectorINS_10shared_ptrI8TreeNodeEENS_9allocatorIS3_EEE22__construct_one_at_endB8ne180100IJRKS3_EEEvDpOT_, symObjAddr: 0x6660, symBinAddr: 0x100008E78, symSize: 0x90 }
  - { offset: 0x405CE, size: 0x8, addend: 0x0, symName: __ZNSt3__16vectorINS_10shared_ptrI8TreeNodeEENS_9allocatorIS3_EEE21__push_back_slow_pathIRKS3_EEPS3_OT_, symObjAddr: 0x66F0, symBinAddr: 0x100008F08, symSize: 0xE8 }
  - { offset: 0x4062C, size: 0x8, addend: 0x0, symName: __ZNSt3__117__compressed_pairIPNS_10shared_ptrI8TreeNodeEENS_9allocatorIS3_EEE5firstB8ne180100Ev, symObjAddr: 0x67D8, symBinAddr: 0x100008FF0, symSize: 0x24 }
  - { offset: 0x40652, size: 0x8, addend: 0x0, symName: __ZNSt3__122__compressed_pair_elemIPNS_10shared_ptrI8TreeNodeEELi0ELb0EE5__getB8ne180100Ev, symObjAddr: 0x67FC, symBinAddr: 0x100009014, symSize: 0x14 }
  - { offset: 0x40694, size: 0x8, addend: 0x0, symName: __ZNSt3__16vectorINS_10shared_ptrI8TreeNodeEENS_9allocatorIS3_EEE21_ConstructTransactionC1B8ne180100ERS6_m, symObjAddr: 0x6810, symBinAddr: 0x100009028, symSize: 0x3C }
  - { offset: 0x406DC, size: 0x8, addend: 0x0, symName: __ZNSt3__116allocator_traitsINS_9allocatorINS_10shared_ptrI8TreeNodeEEEEE9constructB8ne180100IS4_JRKS4_EvEEvRS5_PT_DpOT0_, symObjAddr: 0x684C, symBinAddr: 0x100009064, symSize: 0x34 }
  - { offset: 0x40733, size: 0x8, addend: 0x0, symName: __ZNSt3__16vectorINS_10shared_ptrI8TreeNodeEENS_9allocatorIS3_EEE21_ConstructTransactionD1B8ne180100Ev, symObjAddr: 0x6880, symBinAddr: 0x100009098, symSize: 0x2C }
  - { offset: 0x4075D, size: 0x8, addend: 0x0, symName: __ZNSt3__16vectorINS_10shared_ptrI8TreeNodeEENS_9allocatorIS3_EEE21_ConstructTransactionC2B8ne180100ERS6_m, symObjAddr: 0x68AC, symBinAddr: 0x1000090C4, symSize: 0x44 }
  - { offset: 0x407A5, size: 0x8, addend: 0x0, symName: __ZNSt3__19allocatorINS_10shared_ptrI8TreeNodeEEE9constructB8ne180100IS3_JRKS3_EEEvPT_DpOT0_, symObjAddr: 0x68F0, symBinAddr: 0x100009108, symSize: 0x30 }
  - { offset: 0x407FB, size: 0x8, addend: 0x0, symName: __ZNSt3__110shared_ptrI8TreeNodeEC1B8ne180100ERKS2_, symObjAddr: 0x6920, symBinAddr: 0x100009138, symSize: 0x34 }
  - { offset: 0x40834, size: 0x8, addend: 0x0, symName: __ZNSt3__110shared_ptrI8TreeNodeEC2B8ne180100ERKS2_, symObjAddr: 0x6954, symBinAddr: 0x10000916C, symSize: 0x70 }
  - { offset: 0x4086D, size: 0x8, addend: 0x0, symName: __ZNSt3__16vectorINS_10shared_ptrI8TreeNodeEENS_9allocatorIS3_EEE21_ConstructTransactionD2B8ne180100Ev, symObjAddr: 0x69C4, symBinAddr: 0x1000091DC, symSize: 0x20 }
  - { offset: 0x40897, size: 0x8, addend: 0x0, symName: __ZNKSt3__16vectorINS_10shared_ptrI8TreeNodeEENS_9allocatorIS3_EEE11__recommendB8ne180100Em, symObjAddr: 0x69E4, symBinAddr: 0x1000091FC, symSize: 0xB4 }
  - { offset: 0x408EC, size: 0x8, addend: 0x0, symName: __ZNKSt3__16vectorINS_10shared_ptrI8TreeNodeEENS_9allocatorIS3_EEE4sizeB8ne180100Ev, symObjAddr: 0x6A98, symBinAddr: 0x1000092B0, symSize: 0x28 }
  - { offset: 0x40912, size: 0x8, addend: 0x0, symName: __ZNSt3__114__split_bufferINS_10shared_ptrI8TreeNodeEERNS_9allocatorIS3_EEEC1EmmS6_, symObjAddr: 0x6AC0, symBinAddr: 0x1000092D8, symSize: 0x44 }
  - { offset: 0x40968, size: 0x8, addend: 0x0, symName: __ZNSt3__114__split_bufferINS_10shared_ptrI8TreeNodeEERNS_9allocatorIS3_EEED1Ev, symObjAddr: 0x6C14, symBinAddr: 0x10000942C, symSize: 0x2C }
  - { offset: 0x40994, size: 0x8, addend: 0x0, symName: __ZNKSt3__16vectorINS_10shared_ptrI8TreeNodeEENS_9allocatorIS3_EEE8max_sizeEv, symObjAddr: 0x6C40, symBinAddr: 0x100009458, symSize: 0x60 }
  - { offset: 0x409BC, size: 0x8, addend: 0x0, symName: __ZNKSt3__16vectorINS_10shared_ptrI8TreeNodeEENS_9allocatorIS3_EEE20__throw_length_errorB8ne180100Ev, symObjAddr: 0x6CA0, symBinAddr: 0x1000094B8, symSize: 0x1C }
  - { offset: 0x409ED, size: 0x8, addend: 0x0, symName: __ZNSt3__116allocator_traitsINS_9allocatorINS_10shared_ptrI8TreeNodeEEEEE8max_sizeB8ne180100IS5_vEEmRKS5_, symObjAddr: 0x6D14, symBinAddr: 0x10000952C, symSize: 0x24 }
  - { offset: 0x40A1B, size: 0x8, addend: 0x0, symName: __ZNKSt3__16vectorINS_10shared_ptrI8TreeNodeEENS_9allocatorIS3_EEE7__allocB8ne180100Ev, symObjAddr: 0x6D38, symBinAddr: 0x100009550, symSize: 0x28 }
  - { offset: 0x40A41, size: 0x8, addend: 0x0, symName: __ZNSt3__114numeric_limitsIlE3maxB8ne180100Ev, symObjAddr: 0x6D60, symBinAddr: 0x100009578, symSize: 0x14 }
  - { offset: 0x40A60, size: 0x8, addend: 0x0, symName: __ZNKSt3__16__lessIvvEclB8ne180100ImmEEbRKT_RKT0_, symObjAddr: 0x6DC8, symBinAddr: 0x1000095E0, symSize: 0x34 }
  - { offset: 0x40AB4, size: 0x8, addend: 0x0, symName: __ZNKSt3__19allocatorINS_10shared_ptrI8TreeNodeEEE8max_sizeB8ne180100Ev, symObjAddr: 0x6DFC, symBinAddr: 0x100009614, symSize: 0x14 }
  - { offset: 0x40ADA, size: 0x8, addend: 0x0, symName: __ZNKSt3__117__compressed_pairIPNS_10shared_ptrI8TreeNodeEENS_9allocatorIS3_EEE6secondB8ne180100Ev, symObjAddr: 0x6E10, symBinAddr: 0x100009628, symSize: 0x24 }
  - { offset: 0x40B00, size: 0x8, addend: 0x0, symName: __ZNKSt3__122__compressed_pair_elemINS_9allocatorINS_10shared_ptrI8TreeNodeEEEELi1ELb1EE5__getB8ne180100Ev, symObjAddr: 0x6E34, symBinAddr: 0x10000964C, symSize: 0x14 }
  - { offset: 0x40B26, size: 0x8, addend: 0x0, symName: __ZNSt3__123__libcpp_numeric_limitsIlLb1EE3maxB8ne180100Ev, symObjAddr: 0x6E48, symBinAddr: 0x100009660, symSize: 0x8 }
  - { offset: 0x40B3A, size: 0x8, addend: 0x0, symName: __ZNSt12length_errorC1B8ne180100EPKc, symObjAddr: 0x6EB4, symBinAddr: 0x1000096CC, symSize: 0x34 }
  - { offset: 0x40B72, size: 0x8, addend: 0x0, symName: __ZNSt12length_errorC2B8ne180100EPKc, symObjAddr: 0x6EE8, symBinAddr: 0x100009700, symSize: 0x44 }
  - { offset: 0x40BAA, size: 0x8, addend: 0x0, symName: __ZNSt3__114__split_bufferINS_10shared_ptrI8TreeNodeEERNS_9allocatorIS3_EEEC2EmmS6_, symObjAddr: 0x6F80, symBinAddr: 0x100009798, symSize: 0xD4 }
  - { offset: 0x40C1E, size: 0x8, addend: 0x0, symName: __ZNSt3__117__compressed_pairIPNS_10shared_ptrI8TreeNodeEERNS_9allocatorIS3_EEEC1B8ne180100IDnS7_EEOT_OT0_, symObjAddr: 0x7054, symBinAddr: 0x10000986C, symSize: 0x3C }
  - { offset: 0x40C76, size: 0x8, addend: 0x0, symName: __ZNSt3__114__split_bufferINS_10shared_ptrI8TreeNodeEERNS_9allocatorIS3_EEE7__allocB8ne180100Ev, symObjAddr: 0x70D0, symBinAddr: 0x1000098E8, symSize: 0x28 }
  - { offset: 0x40C9C, size: 0x8, addend: 0x0, symName: __ZNSt3__114__split_bufferINS_10shared_ptrI8TreeNodeEERNS_9allocatorIS3_EEE9__end_capB8ne180100Ev, symObjAddr: 0x70F8, symBinAddr: 0x100009910, symSize: 0x28 }
  - { offset: 0x40CC2, size: 0x8, addend: 0x0, symName: __ZNSt3__117__compressed_pairIPNS_10shared_ptrI8TreeNodeEERNS_9allocatorIS3_EEEC2B8ne180100IDnS7_EEOT_OT0_, symObjAddr: 0x7120, symBinAddr: 0x100009938, symSize: 0x48 }
  - { offset: 0x40D1A, size: 0x8, addend: 0x0, symName: __ZNSt3__122__compressed_pair_elemIRNS_9allocatorINS_10shared_ptrI8TreeNodeEEEELi1ELb0EEC2B8ne180100IS6_vEEOT_, symObjAddr: 0x7168, symBinAddr: 0x100009980, symSize: 0x20 }
  - { offset: 0x40D5C, size: 0x8, addend: 0x0, symName: __ZNSt3__19allocatorINS_10shared_ptrI8TreeNodeEEE8allocateB8ne180100Em, symObjAddr: 0x7188, symBinAddr: 0x1000099A0, symSize: 0x58 }
  - { offset: 0x40D90, size: 0x8, addend: 0x0, symName: __ZNSt3__117__compressed_pairIPNS_10shared_ptrI8TreeNodeEERNS_9allocatorIS3_EEE6secondB8ne180100Ev, symObjAddr: 0x71E0, symBinAddr: 0x1000099F8, symSize: 0x28 }
  - { offset: 0x40DB6, size: 0x8, addend: 0x0, symName: __ZNSt3__122__compressed_pair_elemIRNS_9allocatorINS_10shared_ptrI8TreeNodeEEEELi1ELb0EE5__getB8ne180100Ev, symObjAddr: 0x7208, symBinAddr: 0x100009A20, symSize: 0x18 }
  - { offset: 0x40DDC, size: 0x8, addend: 0x0, symName: __ZNSt3__117__compressed_pairIPNS_10shared_ptrI8TreeNodeEERNS_9allocatorIS3_EEE5firstB8ne180100Ev, symObjAddr: 0x7220, symBinAddr: 0x100009A38, symSize: 0x24 }
  - { offset: 0x40E02, size: 0x8, addend: 0x0, symName: __ZNSt3__116reverse_iteratorIPNS_10shared_ptrI8TreeNodeEEEC1B8ne180100ES4_, symObjAddr: 0x7370, symBinAddr: 0x100009B88, symSize: 0x34 }
  - { offset: 0x40E3A, size: 0x8, addend: 0x0, symName: __ZNKSt3__116reverse_iteratorIPNS_10shared_ptrI8TreeNodeEEE4baseB8ne180100Ev, symObjAddr: 0x73A4, symBinAddr: 0x100009BBC, symSize: 0x18 }
  - { offset: 0x40E60, size: 0x8, addend: 0x0, symName: __ZNKSt3__16vectorINS_10shared_ptrI8TreeNodeEENS_9allocatorIS3_EEE14__annotate_newB8ne180100Em, symObjAddr: 0x73F8, symBinAddr: 0x100009C10, symSize: 0x14 }
  - { offset: 0x40E95, size: 0x8, addend: 0x0, symName: __ZNSt3__129_AllocatorDestroyRangeReverseINS_9allocatorINS_10shared_ptrI8TreeNodeEEEENS_16reverse_iteratorIPS4_EEEC1B8ne180100ERS5_RS8_SB_, symObjAddr: 0x7458, symBinAddr: 0x100009C70, symSize: 0x44 }
  - { offset: 0x40EEC, size: 0x8, addend: 0x0, symName: __ZNSt3__116allocator_traitsINS_9allocatorINS_10shared_ptrI8TreeNodeEEEEE9constructB8ne180100IS4_JS4_EvEEvRS5_PT_DpOT0_, symObjAddr: 0x74E4, symBinAddr: 0x100009CFC, symSize: 0x34 }
  - { offset: 0x40F43, size: 0x8, addend: 0x0, symName: __ZNKSt3__116reverse_iteratorIPNS_10shared_ptrI8TreeNodeEEEdeB8ne180100Ev, symObjAddr: 0x753C, symBinAddr: 0x100009D54, symSize: 0x28 }
  - { offset: 0x40F77, size: 0x8, addend: 0x0, symName: __ZNSt3__116reverse_iteratorIPNS_10shared_ptrI8TreeNodeEEEppB8ne180100Ev, symObjAddr: 0x7564, symBinAddr: 0x100009D7C, symSize: 0x20 }
  - { offset: 0x40F9D, size: 0x8, addend: 0x0, symName: __ZNSt3__128__exception_guard_exceptionsINS_29_AllocatorDestroyRangeReverseINS_9allocatorINS_10shared_ptrI8TreeNodeEEEENS_16reverse_iteratorIPS5_EEEEE10__completeB8ne180100Ev, symObjAddr: 0x7584, symBinAddr: 0x100009D9C, symSize: 0x1C }
  - { offset: 0x40FC3, size: 0x8, addend: 0x0, symName: __ZNSt3__128__exception_guard_exceptionsINS_29_AllocatorDestroyRangeReverseINS_9allocatorINS_10shared_ptrI8TreeNodeEEEENS_16reverse_iteratorIPS5_EEEEED1B8ne180100Ev, symObjAddr: 0x75A0, symBinAddr: 0x100009DB8, symSize: 0x2C }
  - { offset: 0x40FED, size: 0x8, addend: 0x0, symName: __ZNSt3__128__exception_guard_exceptionsINS_29_AllocatorDestroyRangeReverseINS_9allocatorINS_10shared_ptrI8TreeNodeEEEENS_16reverse_iteratorIPS5_EEEEEC1B8ne180100ESA_, symObjAddr: 0x75CC, symBinAddr: 0x100009DE4, symSize: 0x34 }
  - { offset: 0x41026, size: 0x8, addend: 0x0, symName: __ZNSt3__128__exception_guard_exceptionsINS_29_AllocatorDestroyRangeReverseINS_9allocatorINS_10shared_ptrI8TreeNodeEEEENS_16reverse_iteratorIPS5_EEEEEC2B8ne180100ESA_, symObjAddr: 0x7600, symBinAddr: 0x100009E18, symSize: 0x30 }
  - { offset: 0x4105F, size: 0x8, addend: 0x0, symName: __ZNSt3__129_AllocatorDestroyRangeReverseINS_9allocatorINS_10shared_ptrI8TreeNodeEEEENS_16reverse_iteratorIPS4_EEEC2B8ne180100ERS5_RS8_SB_, symObjAddr: 0x7630, symBinAddr: 0x100009E48, symSize: 0x38 }
  - { offset: 0x410B6, size: 0x8, addend: 0x0, symName: __ZNSt3__19allocatorINS_10shared_ptrI8TreeNodeEEE9constructB8ne180100IS3_JS3_EEEvPT_DpOT0_, symObjAddr: 0x7668, symBinAddr: 0x100009E80, symSize: 0x30 }
  - { offset: 0x4110C, size: 0x8, addend: 0x0, symName: __ZNSt3__110shared_ptrI8TreeNodeEC1B8ne180100EOS2_, symObjAddr: 0x7698, symBinAddr: 0x100009EB0, symSize: 0x34 }
  - { offset: 0x41145, size: 0x8, addend: 0x0, symName: __ZNSt3__110shared_ptrI8TreeNodeEC2B8ne180100EOS2_, symObjAddr: 0x76CC, symBinAddr: 0x100009EE4, symSize: 0x40 }
  - { offset: 0x41184, size: 0x8, addend: 0x0, symName: __ZNSt3__119__to_address_helperINS_16reverse_iteratorIPNS_10shared_ptrI8TreeNodeEEEEvE6__callB8ne180100ERKS6_, symObjAddr: 0x770C, symBinAddr: 0x100009F24, symSize: 0x38 }
  - { offset: 0x411A7, size: 0x8, addend: 0x0, symName: __ZNKSt3__116reverse_iteratorIPNS_10shared_ptrI8TreeNodeEEEptB8ne180100Ev, symObjAddr: 0x7744, symBinAddr: 0x100009F5C, symSize: 0x24 }
  - { offset: 0x411CD, size: 0x8, addend: 0x0, symName: __ZNSt3__128__exception_guard_exceptionsINS_29_AllocatorDestroyRangeReverseINS_9allocatorINS_10shared_ptrI8TreeNodeEEEENS_16reverse_iteratorIPS5_EEEEED2B8ne180100Ev, symObjAddr: 0x7768, symBinAddr: 0x100009F80, symSize: 0x50 }
  - { offset: 0x411F7, size: 0x8, addend: 0x0, symName: __ZNKSt3__129_AllocatorDestroyRangeReverseINS_9allocatorINS_10shared_ptrI8TreeNodeEEEENS_16reverse_iteratorIPS4_EEEclB8ne180100Ev, symObjAddr: 0x77B8, symBinAddr: 0x100009FD0, symSize: 0xB4 }
  - { offset: 0x4121E, size: 0x8, addend: 0x0, symName: __ZNSt3__116reverse_iteratorINS0_IPNS_10shared_ptrI8TreeNodeEEEEEC1B8ne180100ES5_, symObjAddr: 0x78DC, symBinAddr: 0x10000A0F4, symSize: 0x3C }
  - { offset: 0x41256, size: 0x8, addend: 0x0, symName: __ZNSt3__116reverse_iteratorINS0_IPNS_10shared_ptrI8TreeNodeEEEEEppB8ne180100Ev, symObjAddr: 0x799C, symBinAddr: 0x10000A1B4, symSize: 0x30 }
  - { offset: 0x4127C, size: 0x8, addend: 0x0, symName: __ZNKSt3__116reverse_iteratorINS0_IPNS_10shared_ptrI8TreeNodeEEEEE4baseB8ne180100Ev, symObjAddr: 0x79CC, symBinAddr: 0x10000A1E4, symSize: 0x24 }
  - { offset: 0x412A8, size: 0x8, addend: 0x0, symName: __ZNSt3__119__to_address_helperINS_16reverse_iteratorINS1_IPNS_10shared_ptrI8TreeNodeEEEEEEvE6__callB8ne180100ERKS7_, symObjAddr: 0x79F0, symBinAddr: 0x10000A208, symSize: 0x38 }
  - { offset: 0x412CB, size: 0x8, addend: 0x0, symName: __ZNKSt3__116reverse_iteratorINS0_IPNS_10shared_ptrI8TreeNodeEEEEEptB8ne180100Ev, symObjAddr: 0x7A28, symBinAddr: 0x10000A240, symSize: 0x24 }
  - { offset: 0x412F1, size: 0x8, addend: 0x0, symName: __ZNKSt3__116reverse_iteratorINS0_IPNS_10shared_ptrI8TreeNodeEEEEEdeB8ne180100Ev, symObjAddr: 0x7A4C, symBinAddr: 0x10000A264, symSize: 0x34 }
  - { offset: 0x41325, size: 0x8, addend: 0x0, symName: __ZNSt3__116reverse_iteratorIPNS_10shared_ptrI8TreeNodeEEEmmB8ne180100Ev, symObjAddr: 0x7A80, symBinAddr: 0x10000A298, symSize: 0x20 }
  - { offset: 0x4134B, size: 0x8, addend: 0x0, symName: __ZNSt3__116reverse_iteratorINS0_IPNS_10shared_ptrI8TreeNodeEEEEEC2B8ne180100ES5_, symObjAddr: 0x7AA0, symBinAddr: 0x10000A2B8, symSize: 0x2C }
  - { offset: 0x41383, size: 0x8, addend: 0x0, symName: __ZNSt3__116reverse_iteratorIPNS_10shared_ptrI8TreeNodeEEEC2B8ne180100ES4_, symObjAddr: 0x7ACC, symBinAddr: 0x10000A2E4, symSize: 0x28 }
  - { offset: 0x413BB, size: 0x8, addend: 0x0, symName: __ZNSt3__114__split_bufferINS_10shared_ptrI8TreeNodeEERNS_9allocatorIS3_EEED2Ev, symObjAddr: 0x7AF4, symBinAddr: 0x10000A30C, symSize: 0x8C }
  - { offset: 0x413E7, size: 0x8, addend: 0x0, symName: __ZNSt3__114__split_bufferINS_10shared_ptrI8TreeNodeEERNS_9allocatorIS3_EEE5clearB8ne180100Ev, symObjAddr: 0x7B80, symBinAddr: 0x10000A398, symSize: 0x28 }
  - { offset: 0x4140D, size: 0x8, addend: 0x0, symName: __ZNKSt3__114__split_bufferINS_10shared_ptrI8TreeNodeEERNS_9allocatorIS3_EEE8capacityB8ne180100Ev, symObjAddr: 0x7BA8, symBinAddr: 0x10000A3C0, symSize: 0x40 }
  - { offset: 0x41433, size: 0x8, addend: 0x0, symName: __ZNSt3__114__split_bufferINS_10shared_ptrI8TreeNodeEERNS_9allocatorIS3_EEE17__destruct_at_endB8ne180100EPS3_, symObjAddr: 0x7BE8, symBinAddr: 0x10000A400, symSize: 0x2C }
  - { offset: 0x41467, size: 0x8, addend: 0x0, symName: __ZNSt3__114__split_bufferINS_10shared_ptrI8TreeNodeEERNS_9allocatorIS3_EEE17__destruct_at_endB8ne180100EPS3_NS_17integral_constantIbLb0EEE, symObjAddr: 0x7C14, symBinAddr: 0x10000A42C, symSize: 0x80 }
  - { offset: 0x414A8, size: 0x8, addend: 0x0, symName: __ZNKSt3__114__split_bufferINS_10shared_ptrI8TreeNodeEERNS_9allocatorIS3_EEE9__end_capB8ne180100Ev, symObjAddr: 0x7C94, symBinAddr: 0x10000A4AC, symSize: 0x28 }
  - { offset: 0x414CE, size: 0x8, addend: 0x0, symName: __ZNKSt3__117__compressed_pairIPNS_10shared_ptrI8TreeNodeEERNS_9allocatorIS3_EEE5firstB8ne180100Ev, symObjAddr: 0x7CBC, symBinAddr: 0x10000A4D4, symSize: 0x24 }
  - { offset: 0x414F4, size: 0x8, addend: 0x0, symName: __ZNSt3__120__shared_ptr_emplaceI8TreeNodeNS_9allocatorIS1_EEEC1B8ne180100IJRKNS_12basic_stringIcNS_11char_traitsIcEENS2_IcEEEERKN3tmw12ValueVariantEES3_Li0EEES3_DpOT_, symObjAddr: 0x7DC8, symBinAddr: 0x10000A5E0, symSize: 0x3C }
  - { offset: 0x4156A, size: 0x8, addend: 0x0, symName: __ZNSt3__120__shared_ptr_emplaceI8TreeNodeNS_9allocatorIS1_EEEC2B8ne180100IJRKNS_12basic_stringIcNS_11char_traitsIcEENS2_IcEEEERKN3tmw12ValueVariantEES3_Li0EEES3_DpOT_, symObjAddr: 0x7E04, symBinAddr: 0x10000A61C, symSize: 0xC4 }
  - { offset: 0x41601, size: 0x8, addend: 0x0, symName: __ZNSt3__116allocator_traitsINS_9allocatorI8TreeNodeEEE9constructB8ne180100IS2_JRKNS_12basic_stringIcNS_11char_traitsIcEENS1_IcEEEERKN3tmw12ValueVariantEEvEEvRS3_PT_DpOT0_, symObjAddr: 0x7EC8, symBinAddr: 0x10000A6E0, symSize: 0x3C }
  - { offset: 0x4166C, size: 0x8, addend: 0x0, symName: __ZNSt3__19allocatorI8TreeNodeE9constructB8ne180100IS1_JRKNS_12basic_stringIcNS_11char_traitsIcEENS0_IcEEEERKN3tmw12ValueVariantEEEEvPT_DpOT0_, symObjAddr: 0x7F04, symBinAddr: 0x10000A71C, symSize: 0x38 }
  - { offset: 0x416D5, size: 0x8, addend: 0x0, symName: __ZN3tmw12ValueVariantC2Ev, symObjAddr: 0x7F3C, symBinAddr: 0x10000A754, symSize: 0x2C }
  - { offset: 0x416FF, size: 0x8, addend: 0x0, symName: __ZNSt3__17variantIJijxyfdNS_12basic_stringIcNS_11char_traitsIcEENS_9allocatorIcEEEEEEC1B8ne180100ILb1ELi0EEEv, symObjAddr: 0x7F68, symBinAddr: 0x10000A780, symSize: 0x2C }
  - { offset: 0x41739, size: 0x8, addend: 0x0, symName: __ZNSt3__17variantIJijxyfdNS_12basic_stringIcNS_11char_traitsIcEENS_9allocatorIcEEEEEEC2B8ne180100ILb1ELi0EEEv, symObjAddr: 0x7F94, symBinAddr: 0x10000A7AC, symSize: 0x34 }
  - { offset: 0x41773, size: 0x8, addend: 0x0, symName: __ZNSt3__116__variant_detail6__implIJijxyfdNS_12basic_stringIcNS_11char_traitsIcEENS_9allocatorIcEEEEEECI1NS0_6__baseILNS0_6_TraitE1EJijxyfdS7_EEEILm0EJEEENS_16in_place_index_tIXT_EEEDpOT0_, symObjAddr: 0x7FC8, symBinAddr: 0x10000A7E0, symSize: 0x2C }
  - { offset: 0x417A9, size: 0x8, addend: 0x0, symName: __ZNSt3__116__variant_detail6__implIJijxyfdNS_12basic_stringIcNS_11char_traitsIcEENS_9allocatorIcEEEEEECI2NS0_6__baseILNS0_6_TraitE1EJijxyfdS7_EEEILm0EJEEENS_16in_place_index_tIXT_EEEDpOT0_, symObjAddr: 0x7FF4, symBinAddr: 0x10000A80C, symSize: 0x2C }
  - { offset: 0x417DF, size: 0x8, addend: 0x0, symName: __ZNSt3__116__variant_detail17__copy_assignmentINS0_8__traitsIJijxyfdNS_12basic_stringIcNS_11char_traitsIcEENS_9allocatorIcEEEEEEELNS0_6_TraitE1EECI2NS0_6__baseILSA_1EJijxyfdS8_EEEILm0EJEEENS_16in_place_index_tIXT_EEEDpOT0_, symObjAddr: 0x8020, symBinAddr: 0x10000A838, symSize: 0x2C }
  - { offset: 0x41815, size: 0x8, addend: 0x0, symName: __ZNSt3__116__variant_detail17__move_assignmentINS0_8__traitsIJijxyfdNS_12basic_stringIcNS_11char_traitsIcEENS_9allocatorIcEEEEEEELNS0_6_TraitE1EECI2NS0_6__baseILSA_1EJijxyfdS8_EEEILm0EJEEENS_16in_place_index_tIXT_EEEDpOT0_, symObjAddr: 0x804C, symBinAddr: 0x10000A864, symSize: 0x2C }
  - { offset: 0x4184B, size: 0x8, addend: 0x0, symName: __ZNSt3__116__variant_detail12__assignmentINS0_8__traitsIJijxyfdNS_12basic_stringIcNS_11char_traitsIcEENS_9allocatorIcEEEEEEEECI2NS0_6__baseILNS0_6_TraitE1EJijxyfdS8_EEEILm0EJEEENS_16in_place_index_tIXT_EEEDpOT0_, symObjAddr: 0x8078, symBinAddr: 0x10000A890, symSize: 0x2C }
  - { offset: 0x41881, size: 0x8, addend: 0x0, symName: __ZNSt3__116__variant_detail18__copy_constructorINS0_8__traitsIJijxyfdNS_12basic_stringIcNS_11char_traitsIcEENS_9allocatorIcEEEEEEELNS0_6_TraitE1EECI2NS0_6__baseILSA_1EJijxyfdS8_EEEILm0EJEEENS_16in_place_index_tIXT_EEEDpOT0_, symObjAddr: 0x80A4, symBinAddr: 0x10000A8BC, symSize: 0x2C }
  - { offset: 0x418B7, size: 0x8, addend: 0x0, symName: __ZNSt3__116__variant_detail18__move_constructorINS0_8__traitsIJijxyfdNS_12basic_stringIcNS_11char_traitsIcEENS_9allocatorIcEEEEEEELNS0_6_TraitE1EECI2NS0_6__baseILSA_1EJijxyfdS8_EEEILm0EJEEENS_16in_place_index_tIXT_EEEDpOT0_, symObjAddr: 0x80D0, symBinAddr: 0x10000A8E8, symSize: 0x2C }
  - { offset: 0x418ED, size: 0x8, addend: 0x0, symName: __ZNSt3__116__variant_detail6__ctorINS0_8__traitsIJijxyfdNS_12basic_stringIcNS_11char_traitsIcEENS_9allocatorIcEEEEEEEECI2NS0_6__baseILNS0_6_TraitE1EJijxyfdS8_EEEILm0EJEEENS_16in_place_index_tIXT_EEEDpOT0_, symObjAddr: 0x80FC, symBinAddr: 0x10000A914, symSize: 0x2C }
  - { offset: 0x41923, size: 0x8, addend: 0x0, symName: __ZNSt3__116__variant_detail6__dtorINS0_8__traitsIJijxyfdNS_12basic_stringIcNS_11char_traitsIcEENS_9allocatorIcEEEEEEELNS0_6_TraitE1EECI2NS0_6__baseILSA_1EJijxyfdS8_EEEILm0EJEEENS_16in_place_index_tIXT_EEEDpOT0_, symObjAddr: 0x8128, symBinAddr: 0x10000A940, symSize: 0x2C }
  - { offset: 0x41959, size: 0x8, addend: 0x0, symName: __ZNSt3__116__variant_detail6__baseILNS0_6_TraitE1EJijxyfdNS_12basic_stringIcNS_11char_traitsIcEENS_9allocatorIcEEEEEEC2B8ne180100ILm0EJEEENS_16in_place_index_tIXT_EEEDpOT0_, symObjAddr: 0x8154, symBinAddr: 0x10000A96C, symSize: 0x30 }
  - { offset: 0x4199E, size: 0x8, addend: 0x0, symName: __ZNSt3__116__variant_detail7__unionILNS0_6_TraitE1ELm0EJijxyfdNS_12basic_stringIcNS_11char_traitsIcEENS_9allocatorIcEEEEEEC1B8ne180100IJEEENS_16in_place_index_tILm0EEEDpOT_, symObjAddr: 0x8184, symBinAddr: 0x10000A99C, symSize: 0x2C }
  - { offset: 0x419D9, size: 0x8, addend: 0x0, symName: __ZNSt3__116__variant_detail7__unionILNS0_6_TraitE1ELm0EJijxyfdNS_12basic_stringIcNS_11char_traitsIcEENS_9allocatorIcEEEEEEC2B8ne180100IJEEENS_16in_place_index_tILm0EEEDpOT_, symObjAddr: 0x81B0, symBinAddr: 0x10000A9C8, symSize: 0x2C }
  - { offset: 0x41A14, size: 0x8, addend: 0x0, symName: __ZNSt3__116__variant_detail5__altILm0EiEC1B8ne180100IJEEENS_10in_place_tEDpOT_, symObjAddr: 0x81DC, symBinAddr: 0x10000A9F4, symSize: 0x2C }
  - { offset: 0x41A4F, size: 0x8, addend: 0x0, symName: __ZNSt3__116__variant_detail5__altILm0EiEC2B8ne180100IJEEENS_10in_place_tEDpOT_, symObjAddr: 0x8208, symBinAddr: 0x10000AA20, symSize: 0x18 }
  - { offset: 0x41A8A, size: 0x8, addend: 0x0, symName: __ZN3tmw12ValueVariantD2Ev, symObjAddr: 0x8220, symBinAddr: 0x10000AA38, symSize: 0x2C }
  - { offset: 0x41AB6, size: 0x8, addend: 0x0, symName: __ZNSt3__17variantIJijxyfdNS_12basic_stringIcNS_11char_traitsIcEENS_9allocatorIcEEEEEED1B8ne180100Ev, symObjAddr: 0x824C, symBinAddr: 0x10000AA64, symSize: 0x2C }
  - { offset: 0x41AE0, size: 0x8, addend: 0x0, symName: __ZNSt3__17variantIJijxyfdNS_12basic_stringIcNS_11char_traitsIcEENS_9allocatorIcEEEEEED2B8ne180100Ev, symObjAddr: 0x8278, symBinAddr: 0x10000AA90, symSize: 0x2C }
  - { offset: 0x41B0A, size: 0x8, addend: 0x0, symName: __ZNSt3__116__variant_detail6__implIJijxyfdNS_12basic_stringIcNS_11char_traitsIcEENS_9allocatorIcEEEEEED1Ev, symObjAddr: 0x82A4, symBinAddr: 0x10000AABC, symSize: 0x2C }
  - { offset: 0x41B37, size: 0x8, addend: 0x0, symName: __ZNSt3__116__variant_detail6__implIJijxyfdNS_12basic_stringIcNS_11char_traitsIcEENS_9allocatorIcEEEEEED2Ev, symObjAddr: 0x82D0, symBinAddr: 0x10000AAE8, symSize: 0x2C }
  - { offset: 0x41B64, size: 0x8, addend: 0x0, symName: __ZNSt3__116__variant_detail17__copy_assignmentINS0_8__traitsIJijxyfdNS_12basic_stringIcNS_11char_traitsIcEENS_9allocatorIcEEEEEEELNS0_6_TraitE1EED2Ev, symObjAddr: 0x82FC, symBinAddr: 0x10000AB14, symSize: 0x2C }
  - { offset: 0x41B8E, size: 0x8, addend: 0x0, symName: __ZNSt3__116__variant_detail17__move_assignmentINS0_8__traitsIJijxyfdNS_12basic_stringIcNS_11char_traitsIcEENS_9allocatorIcEEEEEEELNS0_6_TraitE1EED2Ev, symObjAddr: 0x8328, symBinAddr: 0x10000AB40, symSize: 0x2C }
  - { offset: 0x41BB8, size: 0x8, addend: 0x0, symName: __ZNSt3__116__variant_detail12__assignmentINS0_8__traitsIJijxyfdNS_12basic_stringIcNS_11char_traitsIcEENS_9allocatorIcEEEEEEEED2Ev, symObjAddr: 0x8354, symBinAddr: 0x10000AB6C, symSize: 0x2C }
  - { offset: 0x41C2A, size: 0x8, addend: 0x0, symName: __ZNSt3__15queueINS_10shared_ptrI8TreeNodeEENS_5dequeIS3_NS_9allocatorIS3_EEEEEC1B8ne180100Ev, symObjAddr: 0x8380, symBinAddr: 0x10000AB98, symSize: 0x2C }
  - { offset: 0x41C54, size: 0x8, addend: 0x0, symName: __ZNSt3__15queueINS_10shared_ptrI8TreeNodeEENS_5dequeIS3_NS_9allocatorIS3_EEEEE4pushB8ne180100ERKS3_, symObjAddr: 0x83AC, symBinAddr: 0x10000ABC4, symSize: 0x2C }
  - { offset: 0x41C89, size: 0x8, addend: 0x0, symName: __ZNKSt3__15queueINS_10shared_ptrI8TreeNodeEENS_5dequeIS3_NS_9allocatorIS3_EEEEE5emptyB8ne180100Ev, symObjAddr: 0x83D8, symBinAddr: 0x10000ABF0, symSize: 0x28 }
  - { offset: 0x41CAF, size: 0x8, addend: 0x0, symName: __ZNSt3__15queueINS_10shared_ptrI8TreeNodeEENS_5dequeIS3_NS_9allocatorIS3_EEEEE5frontB8ne180100Ev, symObjAddr: 0x8400, symBinAddr: 0x10000AC18, symSize: 0x24 }
  - { offset: 0x41CD5, size: 0x8, addend: 0x0, symName: __ZNSt3__15queueINS_10shared_ptrI8TreeNodeEENS_5dequeIS3_NS_9allocatorIS3_EEEEE3popB8ne180100Ev, symObjAddr: 0x8424, symBinAddr: 0x10000AC3C, symSize: 0x24 }
  - { offset: 0x41CFB, size: 0x8, addend: 0x0, symName: __ZNK8TreeNode11getChildrenEv, symObjAddr: 0x8590, symBinAddr: 0x10000ADA8, symSize: 0x18 }
  - { offset: 0x41D21, size: 0x8, addend: 0x0, symName: __ZNKSt3__16vectorINS_10shared_ptrI8TreeNodeEENS_9allocatorIS3_EEE5beginB8ne180100Ev, symObjAddr: 0x85A8, symBinAddr: 0x10000ADC0, symSize: 0x30 }
  - { offset: 0x41D49, size: 0x8, addend: 0x0, symName: __ZNKSt3__16vectorINS_10shared_ptrI8TreeNodeEENS_9allocatorIS3_EEE3endB8ne180100Ev, symObjAddr: 0x85D8, symBinAddr: 0x10000ADF0, symSize: 0x30 }
  - { offset: 0x41D71, size: 0x8, addend: 0x0, symName: __ZNKSt3__111__wrap_iterIPKNS_10shared_ptrI8TreeNodeEEEdeB8ne180100Ev, symObjAddr: 0x863C, symBinAddr: 0x10000AE54, symSize: 0x18 }
  - { offset: 0x41D97, size: 0x8, addend: 0x0, symName: __ZNSt3__111__wrap_iterIPKNS_10shared_ptrI8TreeNodeEEEppB8ne180100Ev, symObjAddr: 0x8654, symBinAddr: 0x10000AE6C, symSize: 0x20 }
  - { offset: 0x41DBD, size: 0x8, addend: 0x0, symName: __ZNSt3__110shared_ptrI8TreeNodeEC1B8ne180100EDn, symObjAddr: 0x8674, symBinAddr: 0x10000AE8C, symSize: 0x34 }
  - { offset: 0x41DF3, size: 0x8, addend: 0x0, symName: __ZNSt3__15queueINS_10shared_ptrI8TreeNodeEENS_5dequeIS3_NS_9allocatorIS3_EEEEED1Ev, symObjAddr: 0x86A8, symBinAddr: 0x10000AEC0, symSize: 0x2C }
  - { offset: 0x41E20, size: 0x8, addend: 0x0, symName: __ZNSt3__15queueINS_10shared_ptrI8TreeNodeEENS_5dequeIS3_NS_9allocatorIS3_EEEEEC2B8ne180100Ev, symObjAddr: 0x86D4, symBinAddr: 0x10000AEEC, symSize: 0x2C }
  - { offset: 0x41E4A, size: 0x8, addend: 0x0, symName: __ZNSt3__15dequeINS_10shared_ptrI8TreeNodeEENS_9allocatorIS3_EEEC1B8ne180100Ev, symObjAddr: 0x8700, symBinAddr: 0x10000AF18, symSize: 0x2C }
  - { offset: 0x41E74, size: 0x8, addend: 0x0, symName: __ZNSt3__15dequeINS_10shared_ptrI8TreeNodeEENS_9allocatorIS3_EEEC2B8ne180100Ev, symObjAddr: 0x872C, symBinAddr: 0x10000AF44, symSize: 0x5C }
  - { offset: 0x41E9E, size: 0x8, addend: 0x0, symName: __ZNSt3__114__split_bufferIPNS_10shared_ptrI8TreeNodeEENS_9allocatorIS4_EEEC1B8ne180100Ev, symObjAddr: 0x8788, symBinAddr: 0x10000AFA0, symSize: 0x2C }
  - { offset: 0x41EC8, size: 0x8, addend: 0x0, symName: __ZNSt3__117__compressed_pairImNS_9allocatorINS_10shared_ptrI8TreeNodeEEEEEC1B8ne180100IiNS_18__default_init_tagEEEOT_OT0_, symObjAddr: 0x87B4, symBinAddr: 0x10000AFCC, symSize: 0x3C }
  - { offset: 0x41F20, size: 0x8, addend: 0x0, symName: __ZNKSt3__15dequeINS_10shared_ptrI8TreeNodeEENS_9allocatorIS3_EEE14__annotate_newB8ne180100Em, symObjAddr: 0x87F0, symBinAddr: 0x10000B008, symSize: 0x14 }
  - { offset: 0x41F55, size: 0x8, addend: 0x0, symName: __ZNSt3__114__split_bufferIPNS_10shared_ptrI8TreeNodeEENS_9allocatorIS4_EEEC2B8ne180100Ev, symObjAddr: 0x8804, symBinAddr: 0x10000B01C, symSize: 0x50 }
  - { offset: 0x41F7F, size: 0x8, addend: 0x0, symName: __ZNSt3__117__compressed_pairIPPNS_10shared_ptrI8TreeNodeEENS_9allocatorIS4_EEEC1B8ne180100IDnNS_18__default_init_tagEEEOT_OT0_, symObjAddr: 0x8854, symBinAddr: 0x10000B06C, symSize: 0x3C }
  - { offset: 0x41FD7, size: 0x8, addend: 0x0, symName: __ZNSt3__117__compressed_pairIPPNS_10shared_ptrI8TreeNodeEENS_9allocatorIS4_EEEC2B8ne180100IDnNS_18__default_init_tagEEEOT_OT0_, symObjAddr: 0x8890, symBinAddr: 0x10000B0A8, symSize: 0x40 }
  - { offset: 0x4202F, size: 0x8, addend: 0x0, symName: __ZNSt3__122__compressed_pair_elemIPPNS_10shared_ptrI8TreeNodeEELi0ELb0EEC2B8ne180100IDnvEEOT_, symObjAddr: 0x88D0, symBinAddr: 0x10000B0E8, symSize: 0x1C }
  - { offset: 0x42071, size: 0x8, addend: 0x0, symName: __ZNSt3__122__compressed_pair_elemINS_9allocatorIPNS_10shared_ptrI8TreeNodeEEEELi1ELb1EEC2B8ne180100ENS_18__default_init_tagE, symObjAddr: 0x88EC, symBinAddr: 0x10000B104, symSize: 0x2C }
  - { offset: 0x420A6, size: 0x8, addend: 0x0, symName: __ZNSt3__19allocatorIPNS_10shared_ptrI8TreeNodeEEEC2B8ne180100Ev, symObjAddr: 0x8918, symBinAddr: 0x10000B130, symSize: 0x2C }
  - { offset: 0x420D0, size: 0x8, addend: 0x0, symName: __ZNSt3__116__non_trivial_ifILb1ENS_9allocatorIPNS_10shared_ptrI8TreeNodeEEEEEC2B8ne180100Ev, symObjAddr: 0x8944, symBinAddr: 0x10000B15C, symSize: 0x14 }
  - { offset: 0x420FA, size: 0x8, addend: 0x0, symName: __ZNSt3__117__compressed_pairImNS_9allocatorINS_10shared_ptrI8TreeNodeEEEEEC2B8ne180100IiNS_18__default_init_tagEEEOT_OT0_, symObjAddr: 0x8958, symBinAddr: 0x10000B170, symSize: 0x40 }
  - { offset: 0x42152, size: 0x8, addend: 0x0, symName: __ZNSt3__122__compressed_pair_elemImLi0ELb0EEC2B8ne180100IivEEOT_, symObjAddr: 0x8998, symBinAddr: 0x10000B1B0, symSize: 0x24 }
  - { offset: 0x42194, size: 0x8, addend: 0x0, symName: __ZNSt3__15dequeINS_10shared_ptrI8TreeNodeEENS_9allocatorIS3_EEE9push_backERKS3_, symObjAddr: 0x89BC, symBinAddr: 0x10000B1D4, symSize: 0xAC }
  - { offset: 0x421DA, size: 0x8, addend: 0x0, symName: __ZNSt3__15dequeINS_10shared_ptrI8TreeNodeEENS_9allocatorIS3_EEE7__allocB8ne180100Ev, symObjAddr: 0x8A68, symBinAddr: 0x10000B280, symSize: 0x28 }
  - { offset: 0x42200, size: 0x8, addend: 0x0, symName: __ZNKSt3__15dequeINS_10shared_ptrI8TreeNodeEENS_9allocatorIS3_EEE12__back_spareB8ne180100Ev, symObjAddr: 0x8A90, symBinAddr: 0x10000B2A8, symSize: 0x54 }
  - { offset: 0x42226, size: 0x8, addend: 0x0, symName: __ZNSt3__15dequeINS_10shared_ptrI8TreeNodeEENS_9allocatorIS3_EEE19__add_back_capacityEv, symObjAddr: 0x8AE4, symBinAddr: 0x10000B2FC, symSize: 0x34C }
  - { offset: 0x422DE, size: 0x8, addend: 0x0, symName: __ZNKSt3__15dequeINS_10shared_ptrI8TreeNodeEENS_9allocatorIS3_EEE24__annotate_increase_backB8ne180100Em, symObjAddr: 0x8E30, symBinAddr: 0x10000B648, symSize: 0x14 }
  - { offset: 0x42313, size: 0x8, addend: 0x0, symName: __ZNSt3__15dequeINS_10shared_ptrI8TreeNodeEENS_9allocatorIS3_EEE3endB8ne180100Ev, symObjAddr: 0x8E44, symBinAddr: 0x10000B65C, symSize: 0xCC }
  - { offset: 0x42357, size: 0x8, addend: 0x0, symName: __ZNKSt3__116__deque_iteratorINS_10shared_ptrI8TreeNodeEEPS3_RS3_PS4_lLl256EEdeB8ne180100Ev, symObjAddr: 0x8F10, symBinAddr: 0x10000B728, symSize: 0x18 }
  - { offset: 0x4237D, size: 0x8, addend: 0x0, symName: __ZNSt3__15dequeINS_10shared_ptrI8TreeNodeEENS_9allocatorIS3_EEE6__sizeB8ne180100Ev, symObjAddr: 0x8F28, symBinAddr: 0x10000B740, symSize: 0x28 }
  - { offset: 0x423A3, size: 0x8, addend: 0x0, symName: __ZNSt3__117__compressed_pairImNS_9allocatorINS_10shared_ptrI8TreeNodeEEEEE6secondB8ne180100Ev, symObjAddr: 0x8F50, symBinAddr: 0x10000B768, symSize: 0x24 }
  - { offset: 0x423C9, size: 0x8, addend: 0x0, symName: __ZNKSt3__15dequeINS_10shared_ptrI8TreeNodeEENS_9allocatorIS3_EEE10__capacityB8ne180100Ev, symObjAddr: 0x8F74, symBinAddr: 0x10000B78C, symSize: 0x60 }
  - { offset: 0x423EF, size: 0x8, addend: 0x0, symName: __ZNKSt3__15dequeINS_10shared_ptrI8TreeNodeEENS_9allocatorIS3_EEE4sizeB8ne180100Ev, symObjAddr: 0x8FD4, symBinAddr: 0x10000B7EC, symSize: 0x28 }
  - { offset: 0x42415, size: 0x8, addend: 0x0, symName: __ZNKSt3__114__split_bufferIPNS_10shared_ptrI8TreeNodeEENS_9allocatorIS4_EEE4sizeB8ne180100Ev, symObjAddr: 0x8FFC, symBinAddr: 0x10000B814, symSize: 0x28 }
  - { offset: 0x4243B, size: 0x8, addend: 0x0, symName: __ZNKSt3__15dequeINS_10shared_ptrI8TreeNodeEENS_9allocatorIS3_EEE6__sizeB8ne180100Ev, symObjAddr: 0x9024, symBinAddr: 0x10000B83C, symSize: 0x28 }
  - { offset: 0x42461, size: 0x8, addend: 0x0, symName: __ZNKSt3__117__compressed_pairImNS_9allocatorINS_10shared_ptrI8TreeNodeEEEEE5firstB8ne180100Ev, symObjAddr: 0x904C, symBinAddr: 0x10000B864, symSize: 0x24 }
  - { offset: 0x42487, size: 0x8, addend: 0x0, symName: __ZNKSt3__122__compressed_pair_elemImLi0ELb0EE5__getB8ne180100Ev, symObjAddr: 0x9070, symBinAddr: 0x10000B888, symSize: 0x14 }
  - { offset: 0x424AD, size: 0x8, addend: 0x0, symName: __ZNKSt3__15dequeINS_10shared_ptrI8TreeNodeEENS_9allocatorIS3_EEE13__front_spareB8ne180100Ev, symObjAddr: 0x9084, symBinAddr: 0x10000B89C, symSize: 0x18 }
  - { offset: 0x424D3, size: 0x8, addend: 0x0, symName: __ZNSt3__114__split_bufferIPNS_10shared_ptrI8TreeNodeEENS_9allocatorIS4_EEE5frontB8ne180100Ev, symObjAddr: 0x909C, symBinAddr: 0x10000B8B4, symSize: 0x18 }
  - { offset: 0x424F9, size: 0x8, addend: 0x0, symName: __ZNSt3__114__split_bufferIPNS_10shared_ptrI8TreeNodeEENS_9allocatorIS4_EEE9pop_frontB8ne180100Ev, symObjAddr: 0x90B4, symBinAddr: 0x10000B8CC, symSize: 0x2C }
  - { offset: 0x4251F, size: 0x8, addend: 0x0, symName: __ZNSt3__114__split_bufferIPNS_10shared_ptrI8TreeNodeEENS_9allocatorIS4_EEE9push_backB8ne180100ERKS4_, symObjAddr: 0x90E0, symBinAddr: 0x10000B8F8, symSize: 0x260 }
  - { offset: 0x42598, size: 0x8, addend: 0x0, symName: __ZNKSt3__114__split_bufferIPNS_10shared_ptrI8TreeNodeEENS_9allocatorIS4_EEE8capacityB8ne180100Ev, symObjAddr: 0x9340, symBinAddr: 0x10000BB58, symSize: 0x40 }
  - { offset: 0x425BE, size: 0x8, addend: 0x0, symName: __ZNKSt3__114__split_bufferIPNS_10shared_ptrI8TreeNodeEENS_9allocatorIS4_EEE12__back_spareB8ne180100Ev, symObjAddr: 0x9380, symBinAddr: 0x10000BB98, symSize: 0x40 }
  - { offset: 0x425E4, size: 0x8, addend: 0x0, symName: __ZNSt3__114__split_bufferIPNS_10shared_ptrI8TreeNodeEENS_9allocatorIS4_EEE9push_backEOS4_, symObjAddr: 0x93C0, symBinAddr: 0x10000BBD8, symSize: 0x260 }
  - { offset: 0x4265D, size: 0x8, addend: 0x0, symName: __ZNSt3__116allocator_traitsINS_9allocatorINS_10shared_ptrI8TreeNodeEEEEE8allocateB8ne180100ERS5_m, symObjAddr: 0x9620, symBinAddr: 0x10000BE38, symSize: 0x2C }
  - { offset: 0x42690, size: 0x8, addend: 0x0, symName: __ZNSt3__114__split_bufferIPNS_10shared_ptrI8TreeNodeEENS_9allocatorIS4_EEE10push_frontEOS4_, symObjAddr: 0x964C, symBinAddr: 0x10000BE64, symSize: 0x25C }
  - { offset: 0x42709, size: 0x8, addend: 0x0, symName: __ZNKSt3__15dequeINS_10shared_ptrI8TreeNodeEENS_9allocatorIS3_EEE22__annotate_whole_blockB8ne180100EmNS6_22__asan_annotation_typeE, symObjAddr: 0x98A8, symBinAddr: 0x10000C0C0, symSize: 0x18 }
  - { offset: 0x4274D, size: 0x8, addend: 0x0, symName: __ZNSt3__114__split_bufferIPNS_10shared_ptrI8TreeNodeEENS_9allocatorIS4_EEE7__allocB8ne180100Ev, symObjAddr: 0x98C0, symBinAddr: 0x10000C0D8, symSize: 0x28 }
  - { offset: 0x42773, size: 0x8, addend: 0x0, symName: __ZNSt3__114__split_bufferIPNS_10shared_ptrI8TreeNodeEERNS_9allocatorIS4_EEEC1EmmS7_, symObjAddr: 0x98E8, symBinAddr: 0x10000C100, symSize: 0x44 }
  - { offset: 0x427CF, size: 0x8, addend: 0x0, symName: __ZNSt3__122__allocator_destructorINS_9allocatorINS_10shared_ptrI8TreeNodeEEEEEC1B8ne180100ERS5_m, symObjAddr: 0x992C, symBinAddr: 0x10000C144, symSize: 0x3C }
  - { offset: 0x4288E, size: 0x8, addend: 0x0, symName: __ZNSt3__110unique_ptrIPNS_10shared_ptrI8TreeNodeEENS_22__allocator_destructorINS_9allocatorIS3_EEEEEC1B8ne180100ILb1EvEES4_NS_16__dependent_typeINS_27__unique_ptr_deleter_sfinaeIS8_EEXT_EE20__good_rval_ref_typeE, symObjAddr: 0x9968, symBinAddr: 0x10000C180, symSize: 0x3C }
  - { offset: 0x428DF, size: 0x8, addend: 0x0, symName: __ZNSt3__114__split_bufferIPNS_10shared_ptrI8TreeNodeEERNS_9allocatorIS4_EEE9push_backEOS4_, symObjAddr: 0x99A4, symBinAddr: 0x10000C1BC, symSize: 0x260 }
  - { offset: 0x42958, size: 0x8, addend: 0x0, symName: __ZNKSt3__110unique_ptrIPNS_10shared_ptrI8TreeNodeEENS_22__allocator_destructorINS_9allocatorIS3_EEEEE3getB8ne180100Ev, symObjAddr: 0x9C04, symBinAddr: 0x10000C41C, symSize: 0x28 }
  - { offset: 0x4297E, size: 0x8, addend: 0x0, symName: __ZNSt3__110unique_ptrIPNS_10shared_ptrI8TreeNodeEENS_22__allocator_destructorINS_9allocatorIS3_EEEEE7releaseB8ne180100Ev, symObjAddr: 0x9C2C, symBinAddr: 0x10000C444, symSize: 0x44 }
  - { offset: 0x429B3, size: 0x8, addend: 0x0, symName: __ZNSt3__114__split_bufferIPNS_10shared_ptrI8TreeNodeEENS_9allocatorIS4_EEE3endB8ne180100Ev, symObjAddr: 0x9C70, symBinAddr: 0x10000C488, symSize: 0x18 }
  - { offset: 0x429D9, size: 0x8, addend: 0x0, symName: __ZNSt3__114__split_bufferIPNS_10shared_ptrI8TreeNodeEENS_9allocatorIS4_EEE5beginB8ne180100Ev, symObjAddr: 0x9C88, symBinAddr: 0x10000C4A0, symSize: 0x18 }
  - { offset: 0x429FF, size: 0x8, addend: 0x0, symName: __ZNSt3__114__split_bufferIPNS_10shared_ptrI8TreeNodeEERNS_9allocatorIS4_EEE10push_frontERKS4_, symObjAddr: 0x9CA0, symBinAddr: 0x10000C4B8, symSize: 0x25C }
  - { offset: 0x42A78, size: 0x8, addend: 0x0, symName: __ZNSt3__114__split_bufferIPNS_10shared_ptrI8TreeNodeEENS_9allocatorIS4_EEE9__end_capB8ne180100Ev, symObjAddr: 0x9F38, symBinAddr: 0x10000C750, symSize: 0x28 }
  - { offset: 0x42A9E, size: 0x8, addend: 0x0, symName: __ZNSt3__114__split_bufferIPNS_10shared_ptrI8TreeNodeEERNS_9allocatorIS4_EEE9__end_capB8ne180100Ev, symObjAddr: 0x9F60, symBinAddr: 0x10000C778, symSize: 0x28 }
  - { offset: 0x42AC4, size: 0x8, addend: 0x0, symName: __ZNSt3__110unique_ptrIPNS_10shared_ptrI8TreeNodeEENS_22__allocator_destructorINS_9allocatorIS3_EEEEED1B8ne180100Ev, symObjAddr: 0x9F88, symBinAddr: 0x10000C7A0, symSize: 0x2C }
  - { offset: 0x42AEE, size: 0x8, addend: 0x0, symName: __ZNSt3__114__split_bufferIPNS_10shared_ptrI8TreeNodeEERNS_9allocatorIS4_EEED1Ev, symObjAddr: 0x9FB4, symBinAddr: 0x10000C7CC, symSize: 0x2C }
  - { offset: 0x42B1A, size: 0x8, addend: 0x0, symName: __ZNSt3__114__split_bufferIPNS_10shared_ptrI8TreeNodeEENS_9allocatorIS4_EEE19__destruct_at_beginB8ne180100EPS4_, symObjAddr: 0x9FE0, symBinAddr: 0x10000C7F8, symSize: 0x2C }
  - { offset: 0x42B4E, size: 0x8, addend: 0x0, symName: __ZNSt3__114__split_bufferIPNS_10shared_ptrI8TreeNodeEENS_9allocatorIS4_EEE19__destruct_at_beginEPS4_NS_17integral_constantIbLb1EEE, symObjAddr: 0xA00C, symBinAddr: 0x10000C824, symSize: 0x20 }
  - { offset: 0x42B8F, size: 0x8, addend: 0x0, symName: __ZNSt3__114__split_bufferIPNS_10shared_ptrI8TreeNodeEERNS_9allocatorIS4_EEE18__construct_at_endINS_13move_iteratorIPS4_EELi0EEEvT_SD_, symObjAddr: 0xA06C, symBinAddr: 0x10000C884, symSize: 0x60 }
  - { offset: 0x42BE2, size: 0x8, addend: 0x0, symName: __ZNSt3__113move_iteratorIPPNS_10shared_ptrI8TreeNodeEEEC1B8ne180100ES5_, symObjAddr: 0xA0CC, symBinAddr: 0x10000C8E4, symSize: 0x34 }
  - { offset: 0x42C1A, size: 0x8, addend: 0x0, symName: __ZNSt3__116allocator_traitsINS_9allocatorIPNS_10shared_ptrI8TreeNodeEEEEE9constructB8ne180100IS5_JRKS5_EvEEvRS6_PT_DpOT0_, symObjAddr: 0xA100, symBinAddr: 0x10000C918, symSize: 0x34 }
  - { offset: 0x42C99, size: 0x8, addend: 0x0, symName: __ZNKSt3__114__move_trivialclB8ne180100IPNS_10shared_ptrI8TreeNodeEES5_Li0EEENS_4pairIPT_PT0_EES8_S8_SA_, symObjAddr: 0xA2E4, symBinAddr: 0x10000CAFC, symSize: 0x48 }
  - { offset: 0x42D07, size: 0x8, addend: 0x0, symName: __ZNSt3__14pairIPPNS_10shared_ptrI8TreeNodeEES5_EC1B8ne180100IRS5_S5_Li0EEEOT_OT0_, symObjAddr: 0xA50C, symBinAddr: 0x10000CD24, symSize: 0x3C }
  - { offset: 0x42D65, size: 0x8, addend: 0x0, symName: __ZNSt3__14pairIPPNS_10shared_ptrI8TreeNodeEES5_EC2B8ne180100IRS5_S5_Li0EEEOT_OT0_, symObjAddr: 0xA548, symBinAddr: 0x10000CD60, symSize: 0x34 }
  - { offset: 0x42DC3, size: 0x8, addend: 0x0, symName: __ZNSt3__118__unwrap_iter_implIPPNS_10shared_ptrI8TreeNodeEELb1EE8__unwrapB8ne180100ES5_, symObjAddr: 0xA57C, symBinAddr: 0x10000CD94, symSize: 0x24 }
  - { offset: 0x42DE6, size: 0x8, addend: 0x0, symName: __ZNSt3__14pairIPPNS_10shared_ptrI8TreeNodeEES5_EC1B8ne180100IS5_S5_Li0EEEOT_OT0_, symObjAddr: 0xA5A0, symBinAddr: 0x10000CDB8, symSize: 0x3C }
  - { offset: 0x42E44, size: 0x8, addend: 0x0, symName: __ZNSt3__14pairIPPNS_10shared_ptrI8TreeNodeEES5_EC2B8ne180100IS5_S5_Li0EEEOT_OT0_, symObjAddr: 0xA5DC, symBinAddr: 0x10000CDF4, symSize: 0x34 }
  - { offset: 0x42EA2, size: 0x8, addend: 0x0, symName: __ZNSt3__118__unwrap_iter_implIPPNS_10shared_ptrI8TreeNodeEELb1EE8__rewrapB8ne180100ES5_S5_, symObjAddr: 0xA610, symBinAddr: 0x10000CE28, symSize: 0x50 }
  - { offset: 0x42ED3, size: 0x8, addend: 0x0, symName: __ZNSt3__114__split_bufferIPNS_10shared_ptrI8TreeNodeEERNS_9allocatorIS4_EEE28__construct_at_end_with_sizeINS_13move_iteratorIPS4_EEEEvT_m, symObjAddr: 0xA660, symBinAddr: 0x10000CE78, symSize: 0xDC }
  - { offset: 0x42F3B, size: 0x8, addend: 0x0, symName: __ZNSt3__114__split_bufferIPNS_10shared_ptrI8TreeNodeEERNS_9allocatorIS4_EEE21_ConstructTransactionC1B8ne180100EPPS4_m, symObjAddr: 0xA778, symBinAddr: 0x10000CF90, symSize: 0x3C }
  - { offset: 0x42F81, size: 0x8, addend: 0x0, symName: __ZNSt3__116allocator_traitsINS_9allocatorIPNS_10shared_ptrI8TreeNodeEEEEE9constructB8ne180100IS5_JS5_EvEEvRS6_PT_DpOT0_, symObjAddr: 0xA7B4, symBinAddr: 0x10000CFCC, symSize: 0x34 }
  - { offset: 0x42FD8, size: 0x8, addend: 0x0, symName: __ZNSt3__114__split_bufferIPNS_10shared_ptrI8TreeNodeEERNS_9allocatorIS4_EEE7__allocB8ne180100Ev, symObjAddr: 0xA7E8, symBinAddr: 0x10000D000, symSize: 0x28 }
  - { offset: 0x42FFE, size: 0x8, addend: 0x0, symName: __ZNKSt3__113move_iteratorIPPNS_10shared_ptrI8TreeNodeEEEdeB8ne180100Ev, symObjAddr: 0xA810, symBinAddr: 0x10000D028, symSize: 0x18 }
  - { offset: 0x43024, size: 0x8, addend: 0x0, symName: __ZNSt3__113move_iteratorIPPNS_10shared_ptrI8TreeNodeEEEppB8ne180100Ev, symObjAddr: 0xA828, symBinAddr: 0x10000D040, symSize: 0x20 }
  - { offset: 0x4304A, size: 0x8, addend: 0x0, symName: __ZNSt3__114__split_bufferIPNS_10shared_ptrI8TreeNodeEERNS_9allocatorIS4_EEE21_ConstructTransactionD1B8ne180100Ev, symObjAddr: 0xA848, symBinAddr: 0x10000D060, symSize: 0x2C }
  - { offset: 0x43074, size: 0x8, addend: 0x0, symName: __ZNSt3__114__split_bufferIPNS_10shared_ptrI8TreeNodeEERNS_9allocatorIS4_EEE21_ConstructTransactionC2B8ne180100EPPS4_m, symObjAddr: 0xA874, symBinAddr: 0x10000D08C, symSize: 0x44 }
  - { offset: 0x430BA, size: 0x8, addend: 0x0, symName: __ZNSt3__19allocatorIPNS_10shared_ptrI8TreeNodeEEE9constructB8ne180100IS4_JS4_EEEvPT_DpOT0_, symObjAddr: 0xA8B8, symBinAddr: 0x10000D0D0, symSize: 0x28 }
  - { offset: 0x43110, size: 0x8, addend: 0x0, symName: __ZNSt3__117__compressed_pairIPPNS_10shared_ptrI8TreeNodeEERNS_9allocatorIS4_EEE6secondB8ne180100Ev, symObjAddr: 0xA8E0, symBinAddr: 0x10000D0F8, symSize: 0x28 }
  - { offset: 0x43136, size: 0x8, addend: 0x0, symName: __ZNSt3__122__compressed_pair_elemIRNS_9allocatorIPNS_10shared_ptrI8TreeNodeEEEELi1ELb0EE5__getB8ne180100Ev, symObjAddr: 0xA908, symBinAddr: 0x10000D120, symSize: 0x18 }
  - { offset: 0x4315C, size: 0x8, addend: 0x0, symName: __ZNSt3__114__split_bufferIPNS_10shared_ptrI8TreeNodeEERNS_9allocatorIS4_EEE21_ConstructTransactionD2B8ne180100Ev, symObjAddr: 0xA920, symBinAddr: 0x10000D138, symSize: 0x20 }
  - { offset: 0x43186, size: 0x8, addend: 0x0, symName: __ZNKSt3__113move_iteratorIPPNS_10shared_ptrI8TreeNodeEEE4baseB8ne180100Ev, symObjAddr: 0xA9B8, symBinAddr: 0x10000D1D0, symSize: 0x18 }
  - { offset: 0x431AC, size: 0x8, addend: 0x0, symName: __ZNSt3__113move_iteratorIPPNS_10shared_ptrI8TreeNodeEEEC2B8ne180100ES5_, symObjAddr: 0xA9D0, symBinAddr: 0x10000D1E8, symSize: 0x20 }
  - { offset: 0x431E4, size: 0x8, addend: 0x0, symName: __ZNSt3__19allocatorIPNS_10shared_ptrI8TreeNodeEEE9constructB8ne180100IS4_JRKS4_EEEvPT_DpOT0_, symObjAddr: 0xA9F0, symBinAddr: 0x10000D208, symSize: 0x28 }
  - { offset: 0x4323A, size: 0x8, addend: 0x0, symName: __ZNKSt3__114__split_bufferIPNS_10shared_ptrI8TreeNodeEENS_9allocatorIS4_EEE9__end_capB8ne180100Ev, symObjAddr: 0xAA18, symBinAddr: 0x10000D230, symSize: 0x28 }
  - { offset: 0x43260, size: 0x8, addend: 0x0, symName: __ZNKSt3__117__compressed_pairIPPNS_10shared_ptrI8TreeNodeEENS_9allocatorIS4_EEE5firstB8ne180100Ev, symObjAddr: 0xAA40, symBinAddr: 0x10000D258, symSize: 0x24 }
  - { offset: 0x43286, size: 0x8, addend: 0x0, symName: __ZNKSt3__122__compressed_pair_elemIPPNS_10shared_ptrI8TreeNodeEELi0ELb0EE5__getB8ne180100Ev, symObjAddr: 0xAA64, symBinAddr: 0x10000D27C, symSize: 0x14 }
  - { offset: 0x432B7, size: 0x8, addend: 0x0, symName: __ZNKSt3__123__move_backward_trivialclB8ne180100IPNS_10shared_ptrI8TreeNodeEES5_Li0EEENS_4pairIPT_PT0_EES8_S8_SA_, symObjAddr: 0xABF4, symBinAddr: 0x10000D40C, symSize: 0x48 }
  - { offset: 0x4331F, size: 0x8, addend: 0x0, symName: __ZNSt3__14pairIPPNS_10shared_ptrI8TreeNodeEES5_EC1B8ne180100IRS5_S8_Li0EEEOT_OT0_, symObjAddr: 0xAD04, symBinAddr: 0x10000D51C, symSize: 0x3C }
  - { offset: 0x4337D, size: 0x8, addend: 0x0, symName: __ZNSt3__14pairIPPNS_10shared_ptrI8TreeNodeEES5_EC2B8ne180100IRS5_S8_Li0EEEOT_OT0_, symObjAddr: 0xAD40, symBinAddr: 0x10000D558, symSize: 0x34 }
  - { offset: 0x433DB, size: 0x8, addend: 0x0, symName: __ZNSt3__117__compressed_pairIPPNS_10shared_ptrI8TreeNodeEENS_9allocatorIS4_EEE6secondB8ne180100Ev, symObjAddr: 0xAD74, symBinAddr: 0x10000D58C, symSize: 0x24 }
  - { offset: 0x43401, size: 0x8, addend: 0x0, symName: __ZNSt3__122__compressed_pair_elemINS_9allocatorIPNS_10shared_ptrI8TreeNodeEEEELi1ELb1EE5__getB8ne180100Ev, symObjAddr: 0xAD98, symBinAddr: 0x10000D5B0, symSize: 0x14 }
  - { offset: 0x43427, size: 0x8, addend: 0x0, symName: __ZNSt3__114__split_bufferIPNS_10shared_ptrI8TreeNodeEERNS_9allocatorIS4_EEEC2EmmS7_, symObjAddr: 0xADAC, symBinAddr: 0x10000D5C4, symSize: 0xD4 }
  - { offset: 0x4349B, size: 0x8, addend: 0x0, symName: __ZNSt3__117__compressed_pairIPPNS_10shared_ptrI8TreeNodeEERNS_9allocatorIS4_EEEC1B8ne180100IDnS8_EEOT_OT0_, symObjAddr: 0xAE80, symBinAddr: 0x10000D698, symSize: 0x3C }
  - { offset: 0x434F3, size: 0x8, addend: 0x0, symName: __ZNSt3__117__compressed_pairIPPNS_10shared_ptrI8TreeNodeEERNS_9allocatorIS4_EEEC2B8ne180100IDnS8_EEOT_OT0_, symObjAddr: 0xAEFC, symBinAddr: 0x10000D714, symSize: 0x48 }
  - { offset: 0x4354B, size: 0x8, addend: 0x0, symName: __ZNSt3__122__compressed_pair_elemIRNS_9allocatorIPNS_10shared_ptrI8TreeNodeEEEELi1ELb0EEC2B8ne180100IS7_vEEOT_, symObjAddr: 0xAF44, symBinAddr: 0x10000D75C, symSize: 0x20 }
  - { offset: 0x4358D, size: 0x8, addend: 0x0, symName: __ZNSt3__19allocatorIPNS_10shared_ptrI8TreeNodeEEE8allocateB8ne180100Em, symObjAddr: 0xAF64, symBinAddr: 0x10000D77C, symSize: 0x58 }
  - { offset: 0x435CC, size: 0x8, addend: 0x0, symName: __ZNSt3__116allocator_traitsINS_9allocatorIPNS_10shared_ptrI8TreeNodeEEEEE8max_sizeB8ne180100IS6_vEEmRKS6_, symObjAddr: 0xAFBC, symBinAddr: 0x10000D7D4, symSize: 0x24 }
  - { offset: 0x435FA, size: 0x8, addend: 0x0, symName: __ZNKSt3__19allocatorIPNS_10shared_ptrI8TreeNodeEEE8max_sizeB8ne180100Ev, symObjAddr: 0xAFE0, symBinAddr: 0x10000D7F8, symSize: 0x14 }
  - { offset: 0x43620, size: 0x8, addend: 0x0, symName: __ZNSt3__122__allocator_destructorINS_9allocatorINS_10shared_ptrI8TreeNodeEEEEEC2B8ne180100ERS5_m, symObjAddr: 0xAFF4, symBinAddr: 0x10000D80C, symSize: 0x2C }
  - { offset: 0x43666, size: 0x8, addend: 0x0, symName: __ZNSt3__110unique_ptrIPNS_10shared_ptrI8TreeNodeEENS_22__allocator_destructorINS_9allocatorIS3_EEEEEC2B8ne180100ILb1EvEES4_NS_16__dependent_typeINS_27__unique_ptr_deleter_sfinaeIS8_EEXT_EE20__good_rval_ref_typeE, symObjAddr: 0xB020, symBinAddr: 0x10000D838, symSize: 0x48 }
  - { offset: 0x436B7, size: 0x8, addend: 0x0, symName: __ZNSt3__117__compressed_pairIPNS_10shared_ptrI8TreeNodeEENS_22__allocator_destructorINS_9allocatorIS3_EEEEEC1B8ne180100IRS4_S8_EEOT_OT0_, symObjAddr: 0xB068, symBinAddr: 0x10000D880, symSize: 0x3C }
  - { offset: 0x4370F, size: 0x8, addend: 0x0, symName: __ZNSt3__117__compressed_pairIPNS_10shared_ptrI8TreeNodeEENS_22__allocator_destructorINS_9allocatorIS3_EEEEEC2B8ne180100IRS4_S8_EEOT_OT0_, symObjAddr: 0xB0A4, symBinAddr: 0x10000D8BC, symSize: 0x48 }
  - { offset: 0x43767, size: 0x8, addend: 0x0, symName: __ZNSt3__122__compressed_pair_elemIPNS_10shared_ptrI8TreeNodeEELi0ELb0EEC2B8ne180100IRS4_vEEOT_, symObjAddr: 0xB0EC, symBinAddr: 0x10000D904, symSize: 0x24 }
  - { offset: 0x437A9, size: 0x8, addend: 0x0, symName: __ZNSt3__122__compressed_pair_elemINS_22__allocator_destructorINS_9allocatorINS_10shared_ptrI8TreeNodeEEEEEELi1ELb0EEC2B8ne180100IS7_vEEOT_, symObjAddr: 0xB110, symBinAddr: 0x10000D928, symSize: 0x24 }
  - { offset: 0x437EB, size: 0x8, addend: 0x0, symName: __ZNKSt3__117__compressed_pairIPNS_10shared_ptrI8TreeNodeEENS_22__allocator_destructorINS_9allocatorIS3_EEEEE5firstB8ne180100Ev, symObjAddr: 0xB134, symBinAddr: 0x10000D94C, symSize: 0x24 }
  - { offset: 0x43811, size: 0x8, addend: 0x0, symName: __ZNSt3__117__compressed_pairIPNS_10shared_ptrI8TreeNodeEENS_22__allocator_destructorINS_9allocatorIS3_EEEEE5firstB8ne180100Ev, symObjAddr: 0xB158, symBinAddr: 0x10000D970, symSize: 0x24 }
  - { offset: 0x43837, size: 0x8, addend: 0x0, symName: __ZNSt3__117__compressed_pairIPPNS_10shared_ptrI8TreeNodeEENS_9allocatorIS4_EEE5firstB8ne180100Ev, symObjAddr: 0xB17C, symBinAddr: 0x10000D994, symSize: 0x24 }
  - { offset: 0x4385D, size: 0x8, addend: 0x0, symName: __ZNSt3__122__compressed_pair_elemIPPNS_10shared_ptrI8TreeNodeEELi0ELb0EE5__getB8ne180100Ev, symObjAddr: 0xB1A0, symBinAddr: 0x10000D9B8, symSize: 0x14 }
  - { offset: 0x43883, size: 0x8, addend: 0x0, symName: __ZNSt3__117__compressed_pairIPPNS_10shared_ptrI8TreeNodeEERNS_9allocatorIS4_EEE5firstB8ne180100Ev, symObjAddr: 0xB1B4, symBinAddr: 0x10000D9CC, symSize: 0x24 }
  - { offset: 0x438A9, size: 0x8, addend: 0x0, symName: __ZNSt3__110unique_ptrIPNS_10shared_ptrI8TreeNodeEENS_22__allocator_destructorINS_9allocatorIS3_EEEEED2B8ne180100Ev, symObjAddr: 0xB1D8, symBinAddr: 0x10000D9F0, symSize: 0x30 }
  - { offset: 0x438D3, size: 0x8, addend: 0x0, symName: __ZNSt3__110unique_ptrIPNS_10shared_ptrI8TreeNodeEENS_22__allocator_destructorINS_9allocatorIS3_EEEEE5resetB8ne180100ES4_, symObjAddr: 0xB208, symBinAddr: 0x10000DA20, symSize: 0x78 }
  - { offset: 0x43917, size: 0x8, addend: 0x0, symName: __ZNSt3__117__compressed_pairIPNS_10shared_ptrI8TreeNodeEENS_22__allocator_destructorINS_9allocatorIS3_EEEEE6secondB8ne180100Ev, symObjAddr: 0xB280, symBinAddr: 0x10000DA98, symSize: 0x28 }
  - { offset: 0x4393D, size: 0x8, addend: 0x0, symName: __ZNSt3__122__allocator_destructorINS_9allocatorINS_10shared_ptrI8TreeNodeEEEEEclB8ne180100EPS4_, symObjAddr: 0xB2A8, symBinAddr: 0x10000DAC0, symSize: 0x34 }
  - { offset: 0x43971, size: 0x8, addend: 0x0, symName: __ZNSt3__122__compressed_pair_elemINS_22__allocator_destructorINS_9allocatorINS_10shared_ptrI8TreeNodeEEEEEELi1ELb0EE5__getB8ne180100Ev, symObjAddr: 0xB2DC, symBinAddr: 0x10000DAF4, symSize: 0x14 }
  - { offset: 0x43997, size: 0x8, addend: 0x0, symName: __ZNSt3__114__split_bufferIPNS_10shared_ptrI8TreeNodeEERNS_9allocatorIS4_EEED2Ev, symObjAddr: 0xB2F0, symBinAddr: 0x10000DB08, symSize: 0x8C }
  - { offset: 0x439C3, size: 0x8, addend: 0x0, symName: __ZNSt3__114__split_bufferIPNS_10shared_ptrI8TreeNodeEERNS_9allocatorIS4_EEE5clearB8ne180100Ev, symObjAddr: 0xB37C, symBinAddr: 0x10000DB94, symSize: 0x28 }
  - { offset: 0x439E9, size: 0x8, addend: 0x0, symName: __ZNSt3__116allocator_traitsINS_9allocatorIPNS_10shared_ptrI8TreeNodeEEEEE10deallocateB8ne180100ERS6_PS5_m, symObjAddr: 0xB3A4, symBinAddr: 0x10000DBBC, symSize: 0x34 }
  - { offset: 0x43A2B, size: 0x8, addend: 0x0, symName: __ZNKSt3__114__split_bufferIPNS_10shared_ptrI8TreeNodeEERNS_9allocatorIS4_EEE8capacityB8ne180100Ev, symObjAddr: 0xB3D8, symBinAddr: 0x10000DBF0, symSize: 0x40 }
  - { offset: 0x43A51, size: 0x8, addend: 0x0, symName: __ZNSt3__114__split_bufferIPNS_10shared_ptrI8TreeNodeEERNS_9allocatorIS4_EEE17__destruct_at_endB8ne180100EPS4_, symObjAddr: 0xB418, symBinAddr: 0x10000DC30, symSize: 0x2C }
  - { offset: 0x43A85, size: 0x8, addend: 0x0, symName: __ZNSt3__114__split_bufferIPNS_10shared_ptrI8TreeNodeEERNS_9allocatorIS4_EEE17__destruct_at_endB8ne180100EPS4_NS_17integral_constantIbLb0EEE, symObjAddr: 0xB444, symBinAddr: 0x10000DC5C, symSize: 0x80 }
  - { offset: 0x43AC6, size: 0x8, addend: 0x0, symName: __ZNSt3__116allocator_traitsINS_9allocatorIPNS_10shared_ptrI8TreeNodeEEEEE7destroyB8ne180100IS5_vEEvRS6_PT_, symObjAddr: 0xB4C4, symBinAddr: 0x10000DCDC, symSize: 0x2C }
  - { offset: 0x43B03, size: 0x8, addend: 0x0, symName: __ZNSt3__19allocatorIPNS_10shared_ptrI8TreeNodeEEE7destroyB8ne180100EPS4_, symObjAddr: 0xB4F0, symBinAddr: 0x10000DD08, symSize: 0x14 }
  - { offset: 0x43B37, size: 0x8, addend: 0x0, symName: __ZNSt3__19allocatorIPNS_10shared_ptrI8TreeNodeEEE10deallocateB8ne180100EPS4_m, symObjAddr: 0xB504, symBinAddr: 0x10000DD1C, symSize: 0x40 }
  - { offset: 0x43B79, size: 0x8, addend: 0x0, symName: __ZNKSt3__114__split_bufferIPNS_10shared_ptrI8TreeNodeEERNS_9allocatorIS4_EEE9__end_capB8ne180100Ev, symObjAddr: 0xB544, symBinAddr: 0x10000DD5C, symSize: 0x28 }
  - { offset: 0x43B9F, size: 0x8, addend: 0x0, symName: __ZNKSt3__117__compressed_pairIPPNS_10shared_ptrI8TreeNodeEERNS_9allocatorIS4_EEE5firstB8ne180100Ev, symObjAddr: 0xB56C, symBinAddr: 0x10000DD84, symSize: 0x24 }
  - { offset: 0x43BC5, size: 0x8, addend: 0x0, symName: __ZNKSt3__114__split_bufferIPNS_10shared_ptrI8TreeNodeEENS_9allocatorIS4_EEE5emptyB8ne180100Ev, symObjAddr: 0xB590, symBinAddr: 0x10000DDA8, symSize: 0x28 }
  - { offset: 0x43BEB, size: 0x8, addend: 0x0, symName: __ZNSt3__116__deque_iteratorINS_10shared_ptrI8TreeNodeEEPS3_RS3_PS4_lLl256EEC1B8ne180100ES6_S4_, symObjAddr: 0xB5B8, symBinAddr: 0x10000DDD0, symSize: 0x3C }
  - { offset: 0x43C33, size: 0x8, addend: 0x0, symName: __ZNSt3__116__deque_iteratorINS_10shared_ptrI8TreeNodeEEPS3_RS3_PS4_lLl256EEC2B8ne180100ES6_S4_, symObjAddr: 0xB5F4, symBinAddr: 0x10000DE0C, symSize: 0x2C }
  - { offset: 0x43C7B, size: 0x8, addend: 0x0, symName: __ZNSt3__117__compressed_pairImNS_9allocatorINS_10shared_ptrI8TreeNodeEEEEE5firstB8ne180100Ev, symObjAddr: 0xB620, symBinAddr: 0x10000DE38, symSize: 0x24 }
  - { offset: 0x43CA1, size: 0x8, addend: 0x0, symName: __ZNSt3__122__compressed_pair_elemImLi0ELb0EE5__getB8ne180100Ev, symObjAddr: 0xB644, symBinAddr: 0x10000DE5C, symSize: 0x14 }
  - { offset: 0x43CC7, size: 0x8, addend: 0x0, symName: __ZNKSt3__15dequeINS_10shared_ptrI8TreeNodeEENS_9allocatorIS3_EEE5emptyB8ne180100Ev, symObjAddr: 0xB658, symBinAddr: 0x10000DE70, symSize: 0x30 }
  - { offset: 0x43CED, size: 0x8, addend: 0x0, symName: __ZNSt3__15dequeINS_10shared_ptrI8TreeNodeEENS_9allocatorIS3_EEE5frontEv, symObjAddr: 0xB688, symBinAddr: 0x10000DEA0, symSize: 0x50 }
  - { offset: 0x43D15, size: 0x8, addend: 0x0, symName: __ZNSt3__15dequeINS_10shared_ptrI8TreeNodeEENS_9allocatorIS3_EEE9pop_frontEv, symObjAddr: 0xB6D8, symBinAddr: 0x10000DEF0, symSize: 0xD4 }
  - { offset: 0x43D6A, size: 0x8, addend: 0x0, symName: __ZNKSt3__15dequeINS_10shared_ptrI8TreeNodeEENS_9allocatorIS3_EEE23__annotate_shrink_frontB8ne180100Emm, symObjAddr: 0xB7AC, symBinAddr: 0x10000DFC4, symSize: 0x18 }
  - { offset: 0x43DAE, size: 0x8, addend: 0x0, symName: __ZNSt3__15dequeINS_10shared_ptrI8TreeNodeEENS_9allocatorIS3_EEE26__maybe_remove_front_spareB8ne180100Eb, symObjAddr: 0xB7C4, symBinAddr: 0x10000DFDC, symSize: 0xEC }
  - { offset: 0x43DE3, size: 0x8, addend: 0x0, symName: __ZNKSt3__15dequeINS_10shared_ptrI8TreeNodeEENS_9allocatorIS3_EEE20__front_spare_blocksB8ne180100Ev, symObjAddr: 0xB8B0, symBinAddr: 0x10000E0C8, symSize: 0x2C }
  - { offset: 0x43E09, size: 0x8, addend: 0x0, symName: __ZNKSt3__112basic_stringIcNS_11char_traitsIcEENS_9allocatorIcEEE4sizeB8ne180100Ev, symObjAddr: 0xB8DC, symBinAddr: 0x10000E0F4, symSize: 0x54 }
  - { offset: 0x43E2F, size: 0x8, addend: 0x0, symName: __ZNKSt3__112basic_stringIcNS_11char_traitsIcEENS_9allocatorIcEEE4dataB8ne180100Ev, symObjAddr: 0xB930, symBinAddr: 0x10000E148, symSize: 0x28 }
  - { offset: 0x43E55, size: 0x8, addend: 0x0, symName: __ZNKSt3__112basic_stringIcNS_11char_traitsIcEENS_9allocatorIcEEE9__is_longB8ne180100Ev, symObjAddr: 0xB958, symBinAddr: 0x10000E170, symSize: 0x38 }
  - { offset: 0x43E7B, size: 0x8, addend: 0x0, symName: __ZNSt3__111char_traitsIcE7compareB8ne180100EPKcS3_m, symObjAddr: 0xB990, symBinAddr: 0x10000E1A8, symSize: 0x34 }
  - { offset: 0x43EBA, size: 0x8, addend: 0x0, symName: __ZNKSt3__112basic_stringIcNS_11char_traitsIcEENS_9allocatorIcEEE15__get_long_sizeB8ne180100Ev, symObjAddr: 0xB9C4, symBinAddr: 0x10000E1DC, symSize: 0x28 }
  - { offset: 0x43EE0, size: 0x8, addend: 0x0, symName: __ZNKSt3__112basic_stringIcNS_11char_traitsIcEENS_9allocatorIcEEE16__get_short_sizeB8ne180100Ev, symObjAddr: 0xB9EC, symBinAddr: 0x10000E204, symSize: 0x34 }
  - { offset: 0x43F06, size: 0x8, addend: 0x0, symName: __ZNKSt3__117__compressed_pairINS_12basic_stringIcNS_11char_traitsIcEENS_9allocatorIcEEE5__repES5_E5firstB8ne180100Ev, symObjAddr: 0xBA20, symBinAddr: 0x10000E238, symSize: 0x24 }
  - { offset: 0x43F2C, size: 0x8, addend: 0x0, symName: __ZNKSt3__122__compressed_pair_elemINS_12basic_stringIcNS_11char_traitsIcEENS_9allocatorIcEEE5__repELi0ELb0EE5__getB8ne180100Ev, symObjAddr: 0xBA44, symBinAddr: 0x10000E25C, symSize: 0x14 }
  - { offset: 0x43F52, size: 0x8, addend: 0x0, symName: __ZNKSt3__112basic_stringIcNS_11char_traitsIcEENS_9allocatorIcEEE13__get_pointerB8ne180100Ev, symObjAddr: 0xBA6C, symBinAddr: 0x10000E284, symSize: 0x54 }
  - { offset: 0x43F78, size: 0x8, addend: 0x0, symName: __ZNKSt3__112basic_stringIcNS_11char_traitsIcEENS_9allocatorIcEEE18__get_long_pointerB8ne180100Ev, symObjAddr: 0xBAC0, symBinAddr: 0x10000E2D8, symSize: 0x28 }
  - { offset: 0x43F9E, size: 0x8, addend: 0x0, symName: __ZNKSt3__112basic_stringIcNS_11char_traitsIcEENS_9allocatorIcEEE19__get_short_pointerB8ne180100Ev, symObjAddr: 0xBAE8, symBinAddr: 0x10000E300, symSize: 0x28 }
  - { offset: 0x43FC4, size: 0x8, addend: 0x0, symName: __ZNSt3__114pointer_traitsIPKcE10pointer_toB8ne180100ERS1_, symObjAddr: 0xBB10, symBinAddr: 0x10000E328, symSize: 0x14 }
  - { offset: 0x43FE7, size: 0x8, addend: 0x0, symName: __ZNKSt3__16vectorINS_10shared_ptrI8TreeNodeEENS_9allocatorIS3_EEE11__make_iterB8ne180100EPKS3_, symObjAddr: 0xBB24, symBinAddr: 0x10000E33C, symSize: 0x30 }
  - { offset: 0x4401C, size: 0x8, addend: 0x0, symName: __ZNSt3__111__wrap_iterIPKNS_10shared_ptrI8TreeNodeEEEC1B8ne180100ES5_, symObjAddr: 0xBB54, symBinAddr: 0x10000E36C, symSize: 0x34 }
  - { offset: 0x44054, size: 0x8, addend: 0x0, symName: __ZNSt3__111__wrap_iterIPKNS_10shared_ptrI8TreeNodeEEEC2B8ne180100ES5_, symObjAddr: 0xBB88, symBinAddr: 0x10000E3A0, symSize: 0x20 }
  - { offset: 0x4408C, size: 0x8, addend: 0x0, symName: __ZNKSt3__111__wrap_iterIPKNS_10shared_ptrI8TreeNodeEEE4baseB8ne180100Ev, symObjAddr: 0xBBF0, symBinAddr: 0x10000E408, symSize: 0x18 }
  - { offset: 0x440B2, size: 0x8, addend: 0x0, symName: __ZNSt3__110shared_ptrI8TreeNodeEC2B8ne180100EDn, symObjAddr: 0xBC08, symBinAddr: 0x10000E420, symSize: 0x20 }
  - { offset: 0x440E8, size: 0x8, addend: 0x0, symName: __ZNSt3__15queueINS_10shared_ptrI8TreeNodeEENS_5dequeIS3_NS_9allocatorIS3_EEEEED2Ev, symObjAddr: 0xBC28, symBinAddr: 0x10000E440, symSize: 0x2C }
  - { offset: 0x44115, size: 0x8, addend: 0x0, symName: __ZNSt3__15dequeINS_10shared_ptrI8TreeNodeEENS_9allocatorIS3_EEED1B8ne180100Ev, symObjAddr: 0xBC54, symBinAddr: 0x10000E46C, symSize: 0x2C }
  - { offset: 0x4413F, size: 0x8, addend: 0x0, symName: __ZNSt3__15dequeINS_10shared_ptrI8TreeNodeEENS_9allocatorIS3_EEED2B8ne180100Ev, symObjAddr: 0xBC80, symBinAddr: 0x10000E498, symSize: 0xA4 }
  - { offset: 0x44196, size: 0x8, addend: 0x0, symName: __ZNSt3__15dequeINS_10shared_ptrI8TreeNodeEENS_9allocatorIS3_EEE5clearEv, symObjAddr: 0xBD24, symBinAddr: 0x10000E53C, symSize: 0x170 }
  - { offset: 0x441F1, size: 0x8, addend: 0x0, symName: __ZNKSt3__15dequeINS_10shared_ptrI8TreeNodeEENS_9allocatorIS3_EEE17__annotate_deleteB8ne180100Ev, symObjAddr: 0xBE94, symBinAddr: 0x10000E6AC, symSize: 0x10 }
  - { offset: 0x44217, size: 0x8, addend: 0x0, symName: __ZNSt3__114__split_bufferIPNS_10shared_ptrI8TreeNodeEENS_9allocatorIS4_EEED1Ev, symObjAddr: 0xBEA4, symBinAddr: 0x10000E6BC, symSize: 0x2C }
  - { offset: 0x44243, size: 0x8, addend: 0x0, symName: __ZNSt3__15dequeINS_10shared_ptrI8TreeNodeEENS_9allocatorIS3_EEE5beginB8ne180100Ev, symObjAddr: 0xBED0, symBinAddr: 0x10000E6E8, symSize: 0xA8 }
  - { offset: 0x44278, size: 0x8, addend: 0x0, symName: __ZNSt3__116__deque_iteratorINS_10shared_ptrI8TreeNodeEEPS3_RS3_PS4_lLl256EEppB8ne180100Ev, symObjAddr: 0xBFAC, symBinAddr: 0x10000E7C4, symSize: 0x70 }
  - { offset: 0x4429E, size: 0x8, addend: 0x0, symName: __ZNSt3__114__split_bufferIPNS_10shared_ptrI8TreeNodeEENS_9allocatorIS4_EEED2Ev, symObjAddr: 0xC04C, symBinAddr: 0x10000E864, symSize: 0x80 }
  - { offset: 0x442CA, size: 0x8, addend: 0x0, symName: __ZNSt3__114__split_bufferIPNS_10shared_ptrI8TreeNodeEENS_9allocatorIS4_EEE5clearB8ne180100Ev, symObjAddr: 0xC0CC, symBinAddr: 0x10000E8E4, symSize: 0x28 }
  - { offset: 0x442F0, size: 0x8, addend: 0x0, symName: __ZNSt3__114__split_bufferIPNS_10shared_ptrI8TreeNodeEENS_9allocatorIS4_EEE17__destruct_at_endB8ne180100EPS4_, symObjAddr: 0xC0F4, symBinAddr: 0x10000E90C, symSize: 0x2C }
  - { offset: 0x44324, size: 0x8, addend: 0x0, symName: __ZNSt3__114__split_bufferIPNS_10shared_ptrI8TreeNodeEENS_9allocatorIS4_EEE17__destruct_at_endB8ne180100EPS4_NS_17integral_constantIbLb0EEE, symObjAddr: 0xC120, symBinAddr: 0x10000E938, symSize: 0x80 }
  - { offset: 0x44365, size: 0x8, addend: 0x0, symName: __ZN8nlohmann16json_abi_v3_11_26detail21iteration_proxy_valueINS1_9iter_implINS0_10basic_jsonINSt3__13mapENS5_6vectorENS5_12basic_stringIcNS5_11char_traitsIcEENS5_9allocatorIcEEEEbxydSB_NS0_14adl_serializerENS7_IhNSB_IhEEEEEEEEED2Ev, symObjAddr: 0xC1A0, symBinAddr: 0x10000E9B8, symSize: 0x3C }
  - { offset: 0x4438F, size: 0x8, addend: 0x0, symName: __ZNKSt3__16vectorINS_12basic_stringIcNS_11char_traitsIcEENS_9allocatorIcEEEENS4_IS6_EEE5beginB8ne180100Ev, symObjAddr: 0xC1DC, symBinAddr: 0x10000E9F4, symSize: 0x30 }
  - { offset: 0x443B7, size: 0x8, addend: 0x0, symName: __ZNKSt3__16vectorINS_12basic_stringIcNS_11char_traitsIcEENS_9allocatorIcEEEENS4_IS6_EEE3endB8ne180100Ev, symObjAddr: 0xC20C, symBinAddr: 0x10000EA24, symSize: 0x30 }
  - { offset: 0x443DF, size: 0x8, addend: 0x0, symName: __ZNKSt3__111__wrap_iterIPKNS_12basic_stringIcNS_11char_traitsIcEENS_9allocatorIcEEEEEdeB8ne180100Ev, symObjAddr: 0xC270, symBinAddr: 0x10000EA88, symSize: 0x18 }
  - { offset: 0x44405, size: 0x8, addend: 0x0, symName: __ZNSt3__110shared_ptrI8TreeNodeEaSB8ne180100ERKS2_, symObjAddr: 0xC288, symBinAddr: 0x10000EAA0, symSize: 0x50 }
  - { offset: 0x4443A, size: 0x8, addend: 0x0, symName: __ZNSt3__111__wrap_iterIPKNS_12basic_stringIcNS_11char_traitsIcEENS_9allocatorIcEEEEEppB8ne180100Ev, symObjAddr: 0xC2D8, symBinAddr: 0x10000EAF0, symSize: 0x20 }
  - { offset: 0x44460, size: 0x8, addend: 0x0, symName: __ZNKSt3__16vectorINS_12basic_stringIcNS_11char_traitsIcEENS_9allocatorIcEEEENS4_IS6_EEE11__make_iterB8ne180100EPKS6_, symObjAddr: 0xC2F8, symBinAddr: 0x10000EB10, symSize: 0x30 }
  - { offset: 0x44495, size: 0x8, addend: 0x0, symName: __ZNSt3__111__wrap_iterIPKNS_12basic_stringIcNS_11char_traitsIcEENS_9allocatorIcEEEEEC1B8ne180100ES8_, symObjAddr: 0xC328, symBinAddr: 0x10000EB40, symSize: 0x34 }
  - { offset: 0x444CD, size: 0x8, addend: 0x0, symName: __ZNSt3__111__wrap_iterIPKNS_12basic_stringIcNS_11char_traitsIcEENS_9allocatorIcEEEEEC2B8ne180100ES8_, symObjAddr: 0xC35C, symBinAddr: 0x10000EB74, symSize: 0x20 }
  - { offset: 0x44505, size: 0x8, addend: 0x0, symName: __ZNKSt3__111__wrap_iterIPKNS_12basic_stringIcNS_11char_traitsIcEENS_9allocatorIcEEEEE4baseB8ne180100Ev, symObjAddr: 0xC3C4, symBinAddr: 0x10000EBDC, symSize: 0x18 }
  - { offset: 0x4452B, size: 0x8, addend: 0x0, symName: __ZNSt3__110shared_ptrI8TreeNodeE4swapB8ne180100ERS2_, symObjAddr: 0xC3DC, symBinAddr: 0x10000EBF4, symSize: 0x44 }
  - { offset: 0x44560, size: 0x8, addend: 0x0, symName: __ZNSt3__116__variant_detail12__visitation9__variant13__visit_valueB8ne180100IRZNK3tmw12ValueVariant9ExtractAsINS_12basic_stringIcNS_11char_traitsIcEENS_9allocatorIcEEEELi0EEET_vEUlRKSD_E_JRKNS_7variantIJijxyfdSC_EEEEEEDcOSD_DpOT0_, symObjAddr: 0xC4D4, symBinAddr: 0x10000ECEC, symSize: 0x48 }
  - { offset: 0x445A7, size: 0x8, addend: 0x0, symName: __ZNKSt3__17variantIJijxyfdNS_12basic_stringIcNS_11char_traitsIcEENS_9allocatorIcEEEEEE22valueless_by_exceptionB8ne180100Ev, symObjAddr: 0xC530, symBinAddr: 0x10000ED48, symSize: 0x28 }
  - { offset: 0x445DE, size: 0x8, addend: 0x0, symName: __ZNSt18bad_variant_accessC1Ev, symObjAddr: 0xC590, symBinAddr: 0x10000EDA8, symSize: 0x2C }
  - { offset: 0x4460B, size: 0x8, addend: 0x0, symName: __ZNSt18bad_variant_accessD1Ev, symObjAddr: 0xC5BC, symBinAddr: 0x10000EDD4, symSize: 0x2C }
  - { offset: 0x44638, size: 0x8, addend: 0x0, symName: __ZNSt18bad_variant_accessC2Ev, symObjAddr: 0xC5E8, symBinAddr: 0x10000EE00, symSize: 0x3C }
  - { offset: 0x44665, size: 0x8, addend: 0x0, symName: __ZNSt18bad_variant_accessD2Ev, symObjAddr: 0xC624, symBinAddr: 0x10000EE3C, symSize: 0x2C }
  - { offset: 0x44698, size: 0x8, addend: 0x0, symName: __ZNSt3__116__variant_detail12__visitation9__variant11__visit_altB8ne180100INS2_15__value_visitorIRZNK3tmw12ValueVariant9ExtractAsINS_12basic_stringIcNS_11char_traitsIcEENS_9allocatorIcEEEELi0EEET_vEUlRKSE_E_EEJRKNS_7variantIJijxyfdSD_EEEEEEDcOSE_DpOT0_, symObjAddr: 0xC650, symBinAddr: 0x10000EE68, symSize: 0x48 }
  - { offset: 0x446DF, size: 0x8, addend: 0x0, symName: __ZNSt3__116__variant_detail12__visitation9__variant20__make_value_visitorB8ne180100IRZNK3tmw12ValueVariant9ExtractAsINS_12basic_stringIcNS_11char_traitsIcEENS_9allocatorIcEEEELi0EEET_vEUlRKSD_E_EEDaOSD_, symObjAddr: 0xC698, symBinAddr: 0x10000EEB0, symSize: 0x1C }
  - { offset: 0x4470C, size: 0x8, addend: 0x0, symName: __ZNSt3__116__variant_detail12__visitation6__base11__visit_altB8ne180100INS1_9__variant15__value_visitorIRZNK3tmw12ValueVariant9ExtractAsINS_12basic_stringIcNS_11char_traitsIcEENS_9allocatorIcEEEELi0EEET_vEUlRKSF_E_EEJRKNS0_6__implIJijxyfdSE_EEEEEEDcOSF_DpOT0_, symObjAddr: 0xC6B4, symBinAddr: 0x10000EECC, symSize: 0x80 }
  - { offset: 0x44762, size: 0x8, addend: 0x0, symName: __ZNSt3__116__variant_detail12__visitation6__base12__dispatcherIJLm0EEE10__dispatchB8ne180100IONS1_9__variant15__value_visitorIRZNK3tmw12ValueVariant9ExtractAsINS_12basic_stringIcNS_11char_traitsIcEENS_9allocatorIcEEEELi0EEET_vEUlRKSH_E_EEJRKNS0_6__baseILNS0_6_TraitE1EJijxyfdSG_EEEEEEDcSH_DpT0_, symObjAddr: 0xC734, symBinAddr: 0x10000EF4C, symSize: 0x48 }
  - { offset: 0x447A9, size: 0x8, addend: 0x0, symName: __ZNSt3__116__variant_detail12__visitation6__base12__dispatcherIJLm1EEE10__dispatchB8ne180100IONS1_9__variant15__value_visitorIRZNK3tmw12ValueVariant9ExtractAsINS_12basic_stringIcNS_11char_traitsIcEENS_9allocatorIcEEEELi0EEET_vEUlRKSH_E_EEJRKNS0_6__baseILNS0_6_TraitE1EJijxyfdSG_EEEEEEDcSH_DpT0_, symObjAddr: 0xC77C, symBinAddr: 0x10000EF94, symSize: 0x48 }
  - { offset: 0x447F0, size: 0x8, addend: 0x0, symName: __ZNSt3__116__variant_detail12__visitation6__base12__dispatcherIJLm2EEE10__dispatchB8ne180100IONS1_9__variant15__value_visitorIRZNK3tmw12ValueVariant9ExtractAsINS_12basic_stringIcNS_11char_traitsIcEENS_9allocatorIcEEEELi0EEET_vEUlRKSH_E_EEJRKNS0_6__baseILNS0_6_TraitE1EJijxyfdSG_EEEEEEDcSH_DpT0_, symObjAddr: 0xC7C4, symBinAddr: 0x10000EFDC, symSize: 0x48 }
  - { offset: 0x44837, size: 0x8, addend: 0x0, symName: __ZNSt3__116__variant_detail12__visitation6__base12__dispatcherIJLm3EEE10__dispatchB8ne180100IONS1_9__variant15__value_visitorIRZNK3tmw12ValueVariant9ExtractAsINS_12basic_stringIcNS_11char_traitsIcEENS_9allocatorIcEEEELi0EEET_vEUlRKSH_E_EEJRKNS0_6__baseILNS0_6_TraitE1EJijxyfdSG_EEEEEEDcSH_DpT0_, symObjAddr: 0xC80C, symBinAddr: 0x10000F024, symSize: 0x48 }
  - { offset: 0x4487E, size: 0x8, addend: 0x0, symName: __ZNSt3__116__variant_detail12__visitation6__base12__dispatcherIJLm4EEE10__dispatchB8ne180100IONS1_9__variant15__value_visitorIRZNK3tmw12ValueVariant9ExtractAsINS_12basic_stringIcNS_11char_traitsIcEENS_9allocatorIcEEEELi0EEET_vEUlRKSH_E_EEJRKNS0_6__baseILNS0_6_TraitE1EJijxyfdSG_EEEEEEDcSH_DpT0_, symObjAddr: 0xC854, symBinAddr: 0x10000F06C, symSize: 0x48 }
  - { offset: 0x448C5, size: 0x8, addend: 0x0, symName: __ZNSt3__116__variant_detail12__visitation6__base12__dispatcherIJLm5EEE10__dispatchB8ne180100IONS1_9__variant15__value_visitorIRZNK3tmw12ValueVariant9ExtractAsINS_12basic_stringIcNS_11char_traitsIcEENS_9allocatorIcEEEELi0EEET_vEUlRKSH_E_EEJRKNS0_6__baseILNS0_6_TraitE1EJijxyfdSG_EEEEEEDcSH_DpT0_, symObjAddr: 0xC89C, symBinAddr: 0x10000F0B4, symSize: 0x48 }
  - { offset: 0x4490C, size: 0x8, addend: 0x0, symName: __ZNSt3__116__variant_detail12__visitation6__base12__dispatcherIJLm6EEE10__dispatchB8ne180100IONS1_9__variant15__value_visitorIRZNK3tmw12ValueVariant9ExtractAsINS_12basic_stringIcNS_11char_traitsIcEENS_9allocatorIcEEEELi0EEET_vEUlRKSH_E_EEJRKNS0_6__baseILNS0_6_TraitE1EJijxyfdSG_EEEEEEDcSH_DpT0_, symObjAddr: 0xC8E4, symBinAddr: 0x10000F0FC, symSize: 0x48 }
  - { offset: 0x44994, size: 0x8, addend: 0x0, symName: __ZNSt3__116__variant_detail12__visitation6__base4__atB8ne180100IPFNS_12basic_stringIcNS_11char_traitsIcEENS_9allocatorIcEEEEONS1_9__variant15__value_visitorIRZNK3tmw12ValueVariant9ExtractAsIS9_Li0EEET_vEUlRKSF_E_EERKNS0_6__baseILNS0_6_TraitE1EJijxyfdS9_EEEELm7EJEEEODaRKNS_8__farrayISF_XT0_EEEmDpT1_, symObjAddr: 0xC92C, symBinAddr: 0x10000F144, symSize: 0x30 }
  - { offset: 0x449EA, size: 0x8, addend: 0x0, symName: __ZNKSt3__116__variant_detail12__visitation9__variant15__value_visitorIRZNK3tmw12ValueVariant9ExtractAsINS_12basic_stringIcNS_11char_traitsIcEENS_9allocatorIcEEEELi0EEET_vEUlRKSD_E_EclB8ne180100IJRKNS0_5__altILm0EiEEEEEDcDpOT_, symObjAddr: 0xC990, symBinAddr: 0x10000F1A8, symSize: 0x48 }
  - { offset: 0x44A2A, size: 0x8, addend: 0x0, symName: __ZNSt3__116__variant_detail12__visitation9__variant36__std_visit_exhaustive_visitor_checkB8ne180100IRZNK3tmw12ValueVariant9ExtractAsINS_12basic_stringIcNS_11char_traitsIcEENS_9allocatorIcEEEELi0EEET_vEUlRKSD_E_JRKiEEEvv, symObjAddr: 0xC9D8, symBinAddr: 0x10000F1F0, symSize: 0x4 }
  - { offset: 0x44A5E, size: 0x8, addend: 0x0, symName: __ZZNK3tmw12ValueVariant9ExtractAsINSt3__112basic_stringIcNS2_11char_traitsIcEENS2_9allocatorIcEEEELi0EEET_vENKUlRKS9_E_clIiEES8_SB_, symObjAddr: 0xCA10, symBinAddr: 0x10000F228, symSize: 0x34 }
  - { offset: 0x44A9F, size: 0x8, addend: 0x0, symName: __ZNKSt3__116__variant_detail12__visitation9__variant15__value_visitorIRZNK3tmw12ValueVariant9ExtractAsINS_12basic_stringIcNS_11char_traitsIcEENS_9allocatorIcEEEELi0EEET_vEUlRKSD_E_EclB8ne180100IJRKNS0_5__altILm1EjEEEEEDcDpOT_, symObjAddr: 0xCA78, symBinAddr: 0x10000F290, symSize: 0x48 }
  - { offset: 0x44ADF, size: 0x8, addend: 0x0, symName: __ZNSt3__116__variant_detail12__visitation9__variant36__std_visit_exhaustive_visitor_checkB8ne180100IRZNK3tmw12ValueVariant9ExtractAsINS_12basic_stringIcNS_11char_traitsIcEENS_9allocatorIcEEEELi0EEET_vEUlRKSD_E_JRKjEEEvv, symObjAddr: 0xCAC0, symBinAddr: 0x10000F2D8, symSize: 0x4 }
  - { offset: 0x44B08, size: 0x8, addend: 0x0, symName: __ZZNK3tmw12ValueVariant9ExtractAsINSt3__112basic_stringIcNS2_11char_traitsIcEENS2_9allocatorIcEEEELi0EEET_vENKUlRKS9_E_clIjEES8_SB_, symObjAddr: 0xCAF8, symBinAddr: 0x10000F310, symSize: 0x34 }
  - { offset: 0x44B49, size: 0x8, addend: 0x0, symName: __ZNKSt3__116__variant_detail12__visitation9__variant15__value_visitorIRZNK3tmw12ValueVariant9ExtractAsINS_12basic_stringIcNS_11char_traitsIcEENS_9allocatorIcEEEELi0EEET_vEUlRKSD_E_EclB8ne180100IJRKNS0_5__altILm2ExEEEEEDcDpOT_, symObjAddr: 0xCB60, symBinAddr: 0x10000F378, symSize: 0x48 }
  - { offset: 0x44B89, size: 0x8, addend: 0x0, symName: __ZNSt3__116__variant_detail12__visitation9__variant36__std_visit_exhaustive_visitor_checkB8ne180100IRZNK3tmw12ValueVariant9ExtractAsINS_12basic_stringIcNS_11char_traitsIcEENS_9allocatorIcEEEELi0EEET_vEUlRKSD_E_JRKxEEEvv, symObjAddr: 0xCBA8, symBinAddr: 0x10000F3C0, symSize: 0x4 }
  - { offset: 0x44BB2, size: 0x8, addend: 0x0, symName: __ZZNK3tmw12ValueVariant9ExtractAsINSt3__112basic_stringIcNS2_11char_traitsIcEENS2_9allocatorIcEEEELi0EEET_vENKUlRKS9_E_clIxEES8_SB_, symObjAddr: 0xCBE0, symBinAddr: 0x10000F3F8, symSize: 0x34 }
  - { offset: 0x44BF3, size: 0x8, addend: 0x0, symName: __ZNKSt3__116__variant_detail12__visitation9__variant15__value_visitorIRZNK3tmw12ValueVariant9ExtractAsINS_12basic_stringIcNS_11char_traitsIcEENS_9allocatorIcEEEELi0EEET_vEUlRKSD_E_EclB8ne180100IJRKNS0_5__altILm3EyEEEEEDcDpOT_, symObjAddr: 0xCC48, symBinAddr: 0x10000F460, symSize: 0x48 }
  - { offset: 0x44C33, size: 0x8, addend: 0x0, symName: __ZNSt3__116__variant_detail12__visitation9__variant36__std_visit_exhaustive_visitor_checkB8ne180100IRZNK3tmw12ValueVariant9ExtractAsINS_12basic_stringIcNS_11char_traitsIcEENS_9allocatorIcEEEELi0EEET_vEUlRKSD_E_JRKyEEEvv, symObjAddr: 0xCC90, symBinAddr: 0x10000F4A8, symSize: 0x4 }
  - { offset: 0x44C5C, size: 0x8, addend: 0x0, symName: __ZZNK3tmw12ValueVariant9ExtractAsINSt3__112basic_stringIcNS2_11char_traitsIcEENS2_9allocatorIcEEEELi0EEET_vENKUlRKS9_E_clIyEES8_SB_, symObjAddr: 0xCCC8, symBinAddr: 0x10000F4E0, symSize: 0x34 }
  - { offset: 0x44C9D, size: 0x8, addend: 0x0, symName: __ZNKSt3__116__variant_detail12__visitation9__variant15__value_visitorIRZNK3tmw12ValueVariant9ExtractAsINS_12basic_stringIcNS_11char_traitsIcEENS_9allocatorIcEEEELi0EEET_vEUlRKSD_E_EclB8ne180100IJRKNS0_5__altILm4EfEEEEEDcDpOT_, symObjAddr: 0xCD30, symBinAddr: 0x10000F548, symSize: 0x48 }
  - { offset: 0x44CDD, size: 0x8, addend: 0x0, symName: __ZNSt3__116__variant_detail12__visitation9__variant36__std_visit_exhaustive_visitor_checkB8ne180100IRZNK3tmw12ValueVariant9ExtractAsINS_12basic_stringIcNS_11char_traitsIcEENS_9allocatorIcEEEELi0EEET_vEUlRKSD_E_JRKfEEEvv, symObjAddr: 0xCD78, symBinAddr: 0x10000F590, symSize: 0x4 }
  - { offset: 0x44D06, size: 0x8, addend: 0x0, symName: __ZZNK3tmw12ValueVariant9ExtractAsINSt3__112basic_stringIcNS2_11char_traitsIcEENS2_9allocatorIcEEEELi0EEET_vENKUlRKS9_E_clIfEES8_SB_, symObjAddr: 0xCDB0, symBinAddr: 0x10000F5C8, symSize: 0x34 }
  - { offset: 0x44D47, size: 0x8, addend: 0x0, symName: __ZNKSt3__116__variant_detail12__visitation9__variant15__value_visitorIRZNK3tmw12ValueVariant9ExtractAsINS_12basic_stringIcNS_11char_traitsIcEENS_9allocatorIcEEEELi0EEET_vEUlRKSD_E_EclB8ne180100IJRKNS0_5__altILm5EdEEEEEDcDpOT_, symObjAddr: 0xCE18, symBinAddr: 0x10000F630, symSize: 0x48 }
  - { offset: 0x44D87, size: 0x8, addend: 0x0, symName: __ZNSt3__116__variant_detail12__visitation9__variant36__std_visit_exhaustive_visitor_checkB8ne180100IRZNK3tmw12ValueVariant9ExtractAsINS_12basic_stringIcNS_11char_traitsIcEENS_9allocatorIcEEEELi0EEET_vEUlRKSD_E_JRKdEEEvv, symObjAddr: 0xCE60, symBinAddr: 0x10000F678, symSize: 0x4 }
  - { offset: 0x44DB0, size: 0x8, addend: 0x0, symName: __ZZNK3tmw12ValueVariant9ExtractAsINSt3__112basic_stringIcNS2_11char_traitsIcEENS2_9allocatorIcEEEELi0EEET_vENKUlRKS9_E_clIdEES8_SB_, symObjAddr: 0xCE98, symBinAddr: 0x10000F6B0, symSize: 0x34 }
  - { offset: 0x44DF1, size: 0x8, addend: 0x0, symName: __ZNKSt3__116__variant_detail12__visitation9__variant15__value_visitorIRZNK3tmw12ValueVariant9ExtractAsINS_12basic_stringIcNS_11char_traitsIcEENS_9allocatorIcEEEELi0EEET_vEUlRKSD_E_EclB8ne180100IJRKNS0_5__altILm6ESC_EEEEEDcDpOT_, symObjAddr: 0xCF00, symBinAddr: 0x10000F718, symSize: 0x48 }
  - { offset: 0x44E31, size: 0x8, addend: 0x0, symName: __ZNSt3__116__variant_detail12__visitation9__variant36__std_visit_exhaustive_visitor_checkB8ne180100IRZNK3tmw12ValueVariant9ExtractAsINS_12basic_stringIcNS_11char_traitsIcEENS_9allocatorIcEEEELi0EEET_vEUlRKSD_E_JRKSC_EEEvv, symObjAddr: 0xCF48, symBinAddr: 0x10000F760, symSize: 0x4 }
  - { offset: 0x44E5A, size: 0x8, addend: 0x0, symName: __ZZNK3tmw12ValueVariant9ExtractAsINSt3__112basic_stringIcNS2_11char_traitsIcEENS2_9allocatorIcEEEELi0EEET_vENKUlRKS9_E_clIS8_EES8_SB_, symObjAddr: 0xCF80, symBinAddr: 0x10000F798, symSize: 0x3C }
  - { offset: 0x44E9B, size: 0x8, addend: 0x0, symName: __ZNSt3__116__variant_detail12__visitation6__base4__atB8ne180100IPFNS_12basic_stringIcNS_11char_traitsIcEENS_9allocatorIcEEEEONS1_9__variant15__value_visitorIRZNK3tmw12ValueVariant9ExtractAsIS9_Li0EEET_vEUlRKSF_E_EERKNS0_6__baseILNS0_6_TraitE1EJijxyfdS9_EEEEEESH_SH_, symObjAddr: 0xCFBC, symBinAddr: 0x10000F7D4, symSize: 0x14 }
  - { offset: 0x44EC8, size: 0x8, addend: 0x0, symName: __ZNKSt3__18__farrayIPFNS_12basic_stringIcNS_11char_traitsIcEENS_9allocatorIcEEEEONS_16__variant_detail12__visitation9__variant15__value_visitorIRZNK3tmw12ValueVariant9ExtractAsIS6_Li0EEET_vEUlRKSE_E_EERKNS7_6__baseILNS7_6_TraitE1EJijxyfdS6_EEEELm7EEixB8ne180100Em, symObjAddr: 0xCFD0, symBinAddr: 0x10000F7E8, symSize: 0x20 }
  - { offset: 0x44EFD, size: 0x8, addend: 0x0, symName: __ZN13JsonCollectorD2Ev, symObjAddr: 0xCFF0, symBinAddr: 0x10000F808, symSize: 0x2C }
  - { offset: 0x44F29, size: 0x8, addend: 0x0, symName: __ZNSt3__114basic_ifstreamIcNS_11char_traitsIcEEED2Ev, symObjAddr: 0xD01C, symBinAddr: 0x10000F834, symSize: 0x64 }
  - { offset: 0x44F63, size: 0x8, addend: 0x0, symName: __ZTv0_n24_NSt3__114basic_ifstreamIcNS_11char_traitsIcEEED1Ev, symObjAddr: 0xD080, symBinAddr: 0x10000F898, symSize: 0x28 }
  - { offset: 0x44F7A, size: 0x8, addend: 0x0, symName: __ZNSt3__112basic_stringIcNS_11char_traitsIcEENS_9allocatorIcEEEC2B8ne180100ILi0EEEPKc, symObjAddr: 0xD0A8, symBinAddr: 0x10000F8C0, symSize: 0x58 }
  - { offset: 0x44FB9, size: 0x8, addend: 0x0, symName: __ZNSt3__117__compressed_pairINS_12basic_stringIcNS_11char_traitsIcEENS_9allocatorIcEEE5__repES5_EC1B8ne180100INS_18__default_init_tagESA_EEOT_OT0_, symObjAddr: 0xD100, symBinAddr: 0x10000F918, symSize: 0x3C }
  - { offset: 0x45011, size: 0x8, addend: 0x0, symName: __ZNSt3__111char_traitsIcE6lengthB8ne180100EPKc, symObjAddr: 0xD13C, symBinAddr: 0x10000F954, symSize: 0x34 }
  - { offset: 0x45034, size: 0x8, addend: 0x0, symName: __ZNSt3__117__compressed_pairINS_12basic_stringIcNS_11char_traitsIcEENS_9allocatorIcEEE5__repES5_EC2B8ne180100INS_18__default_init_tagESA_EEOT_OT0_, symObjAddr: 0xD170, symBinAddr: 0x10000F988, symSize: 0x3C }
  - { offset: 0x4508C, size: 0x8, addend: 0x0, symName: __ZNSt3__122__compressed_pair_elemINS_12basic_stringIcNS_11char_traitsIcEENS_9allocatorIcEEE5__repELi0ELb0EEC2B8ne180100ENS_18__default_init_tagE, symObjAddr: 0xD1AC, symBinAddr: 0x10000F9C4, symSize: 0x14 }
  - { offset: 0x450C1, size: 0x8, addend: 0x0, symName: __ZNSt3__122__compressed_pair_elemINS_9allocatorIcEELi1ELb1EEC2B8ne180100ENS_18__default_init_tagE, symObjAddr: 0xD1C0, symBinAddr: 0x10000F9D8, symSize: 0x2C }
  - { offset: 0x450F6, size: 0x8, addend: 0x0, symName: __ZNSt3__19allocatorIcEC2B8ne180100Ev, symObjAddr: 0xD1EC, symBinAddr: 0x10000FA04, symSize: 0x2C }
  - { offset: 0x45120, size: 0x8, addend: 0x0, symName: __ZNSt3__116__non_trivial_ifILb1ENS_9allocatorIcEEEC2B8ne180100Ev, symObjAddr: 0xD218, symBinAddr: 0x10000FA30, symSize: 0x14 }
  - { offset: 0x4514A, size: 0x8, addend: 0x0, symName: __ZNSt3__110shared_ptrI8TreeNodeED2B8ne180100Ev, symObjAddr: 0xD250, symBinAddr: 0x10000FA68, symSize: 0x54 }
  - { offset: 0x45174, size: 0x8, addend: 0x0, symName: __ZNSt3__119__shared_weak_count16__release_sharedB8ne180100Ev, symObjAddr: 0xD2A4, symBinAddr: 0x10000FABC, symSize: 0x3C }
  - { offset: 0x4519A, size: 0x8, addend: 0x0, symName: __ZNSt3__114__shared_count16__release_sharedB8ne180100Ev, symObjAddr: 0xD2E0, symBinAddr: 0x10000FAF8, symSize: 0x7C }
  - { offset: 0x451DD, size: 0x8, addend: 0x0, symName: __ZNKSt3__113basic_ostreamIcNS_11char_traitsIcEEE6sentrycvbB8ne180100Ev, symObjAddr: 0xD578, symBinAddr: 0x10000FD90, symSize: 0x1C }
  - { offset: 0x45203, size: 0x8, addend: 0x0, symName: __ZNSt3__119ostreambuf_iteratorIcNS_11char_traitsIcEEEC1B8ne180100ERNS_13basic_ostreamIcS2_EE, symObjAddr: 0xD7D4, symBinAddr: 0x10000FFEC, symSize: 0x34 }
  - { offset: 0x4523B, size: 0x8, addend: 0x0, symName: __ZNKSt3__18ios_base5flagsB8ne180100Ev, symObjAddr: 0xD808, symBinAddr: 0x100010020, symSize: 0x18 }
  - { offset: 0x45263, size: 0x8, addend: 0x0, symName: __ZNKSt3__19basic_iosIcNS_11char_traitsIcEEE4fillB8ne180100Ev, symObjAddr: 0xD820, symBinAddr: 0x100010038, symSize: 0x64 }
  - { offset: 0x4528B, size: 0x8, addend: 0x0, symName: __ZNKSt3__119ostreambuf_iteratorIcNS_11char_traitsIcEEE6failedB8ne180100Ev, symObjAddr: 0xD884, symBinAddr: 0x10001009C, symSize: 0x24 }
  - { offset: 0x452B1, size: 0x8, addend: 0x0, symName: __ZNSt3__19basic_iosIcNS_11char_traitsIcEEE8setstateB8ne180100Ej, symObjAddr: 0xD8A8, symBinAddr: 0x1000100C0, symSize: 0x2C }
  - { offset: 0x452E6, size: 0x8, addend: 0x0, symName: __ZNKSt3__18ios_base5widthB8ne180100Ev, symObjAddr: 0xD8D4, symBinAddr: 0x1000100EC, symSize: 0x18 }
  - { offset: 0x4530E, size: 0x8, addend: 0x0, symName: __ZNSt3__115basic_streambufIcNS_11char_traitsIcEEE5sputnB8ne180100EPKcl, symObjAddr: 0xD8EC, symBinAddr: 0x100010104, symSize: 0x3C }
  - { offset: 0x45350, size: 0x8, addend: 0x0, symName: __ZNSt3__112basic_stringIcNS_11char_traitsIcEENS_9allocatorIcEEEC1B8ne180100Emc, symObjAddr: 0xD928, symBinAddr: 0x100010140, symSize: 0x3C }
  - { offset: 0x45398, size: 0x8, addend: 0x0, symName: __ZNSt3__112basic_stringIcNS_11char_traitsIcEENS_9allocatorIcEEE4dataB8ne180100Ev, symObjAddr: 0xD964, symBinAddr: 0x10001017C, symSize: 0x28 }
  - { offset: 0x453BE, size: 0x8, addend: 0x0, symName: __ZNSt3__18ios_base5widthB8ne180100El, symObjAddr: 0xD98C, symBinAddr: 0x1000101A4, symSize: 0x2C }
  - { offset: 0x45404, size: 0x8, addend: 0x0, symName: __ZNSt3__112basic_stringIcNS_11char_traitsIcEENS_9allocatorIcEEEC2B8ne180100Emc, symObjAddr: 0xD9B8, symBinAddr: 0x1000101D0, symSize: 0x4C }
  - { offset: 0x4544C, size: 0x8, addend: 0x0, symName: __ZNSt3__112basic_stringIcNS_11char_traitsIcEENS_9allocatorIcEEE13__get_pointerB8ne180100Ev, symObjAddr: 0xDA18, symBinAddr: 0x100010230, symSize: 0x54 }
  - { offset: 0x45472, size: 0x8, addend: 0x0, symName: __ZNSt3__112basic_stringIcNS_11char_traitsIcEENS_9allocatorIcEEE18__get_long_pointerB8ne180100Ev, symObjAddr: 0xDA6C, symBinAddr: 0x100010284, symSize: 0x28 }
  - { offset: 0x45498, size: 0x8, addend: 0x0, symName: __ZNSt3__112basic_stringIcNS_11char_traitsIcEENS_9allocatorIcEEE19__get_short_pointerB8ne180100Ev, symObjAddr: 0xDA94, symBinAddr: 0x1000102AC, symSize: 0x28 }
  - { offset: 0x454BE, size: 0x8, addend: 0x0, symName: __ZNSt3__117__compressed_pairINS_12basic_stringIcNS_11char_traitsIcEENS_9allocatorIcEEE5__repES5_E5firstB8ne180100Ev, symObjAddr: 0xDABC, symBinAddr: 0x1000102D4, symSize: 0x24 }
  - { offset: 0x454E4, size: 0x8, addend: 0x0, symName: __ZNSt3__122__compressed_pair_elemINS_12basic_stringIcNS_11char_traitsIcEENS_9allocatorIcEEE5__repELi0ELb0EE5__getB8ne180100Ev, symObjAddr: 0xDAE0, symBinAddr: 0x1000102F8, symSize: 0x14 }
  - { offset: 0x4550A, size: 0x8, addend: 0x0, symName: __ZNSt3__114pointer_traitsIPcE10pointer_toB8ne180100ERc, symObjAddr: 0xDAF4, symBinAddr: 0x10001030C, symSize: 0x14 }
  - { offset: 0x4552D, size: 0x8, addend: 0x0, symName: __ZNSt3__119ostreambuf_iteratorIcNS_11char_traitsIcEEEC2B8ne180100ERNS_13basic_ostreamIcS2_EE, symObjAddr: 0xDB08, symBinAddr: 0x100010320, symSize: 0x54 }
  - { offset: 0x45565, size: 0x8, addend: 0x0, symName: __ZNKSt3__19basic_iosIcNS_11char_traitsIcEEE5rdbufB8ne180100Ev, symObjAddr: 0xDB5C, symBinAddr: 0x100010374, symSize: 0x24 }
  - { offset: 0x4558D, size: 0x8, addend: 0x0, symName: __ZNKSt3__18ios_base5rdbufB8ne180100Ev, symObjAddr: 0xDB80, symBinAddr: 0x100010398, symSize: 0x18 }
  - { offset: 0x455B3, size: 0x8, addend: 0x0, symName: __ZNSt3__111char_traitsIcE11eq_int_typeB8ne180100Eii, symObjAddr: 0xDB98, symBinAddr: 0x1000103B0, symSize: 0x28 }
  - { offset: 0x455E6, size: 0x8, addend: 0x0, symName: __ZNSt3__111char_traitsIcE3eofB8ne180100Ev, symObjAddr: 0xDBC0, symBinAddr: 0x1000103D8, symSize: 0x8 }
  - { offset: 0x455FA, size: 0x8, addend: 0x0, symName: __ZNKSt3__19basic_iosIcNS_11char_traitsIcEEE5widenB8ne180100Ec, symObjAddr: 0xDBC8, symBinAddr: 0x1000103E0, symSize: 0x84 }
  - { offset: 0x45675, size: 0x8, addend: 0x0, symName: __ZNKSt3__15ctypeIcE5widenB8ne180100Ec, symObjAddr: 0xDC78, symBinAddr: 0x100010490, symSize: 0x38 }
  - { offset: 0x456AA, size: 0x8, addend: 0x0, symName: __ZNSt3__18ios_base8setstateB8ne180100Ej, symObjAddr: 0xDCB0, symBinAddr: 0x1000104C8, symSize: 0x34 }
  - { offset: 0x456E1, size: 0x8, addend: 0x0, symName: __ZN8nlohmann16json_abi_v3_11_210basic_jsonINSt3__13mapENS2_6vectorENS2_12basic_stringIcNS2_11char_traitsIcEENS2_9allocatorIcEEEEbxydS8_NS0_14adl_serializerENS4_IhNS8_IhEEEEED2Ev, symObjAddr: 0xDCE4, symBinAddr: 0x1000104FC, symSize: 0x4C }
  - { offset: 0x4570B, size: 0x8, addend: 0x0, symName: __ZNK8nlohmann16json_abi_v3_11_210basic_jsonINSt3__13mapENS2_6vectorENS2_12basic_stringIcNS2_11char_traitsIcEENS2_9allocatorIcEEEEbxydS8_NS0_14adl_serializerENS4_IhNS8_IhEEEEE16assert_invariantEb, symObjAddr: 0xDD30, symBinAddr: 0x100010548, symSize: 0x1F0 }
  - { offset: 0x45740, size: 0x8, addend: 0x0, symName: __ZN8nlohmann16json_abi_v3_11_210basic_jsonINSt3__13mapENS2_6vectorENS2_12basic_stringIcNS2_11char_traitsIcEENS2_9allocatorIcEEEEbxydS8_NS0_14adl_serializerENS4_IhNS8_IhEEEEE10json_value7destroyENS0_6detail7value_tE, symObjAddr: 0xDF20, symBinAddr: 0x100010738, symSize: 0x464 }
  - { offset: 0x458CC, size: 0x8, addend: 0x0, symName: __ZNSt3__16vectorIN8nlohmann16json_abi_v3_11_210basic_jsonINS_3mapES0_NS_12basic_stringIcNS_11char_traitsIcEENS_9allocatorIcEEEEbxydS8_NS2_14adl_serializerENS0_IhNS8_IhEEEEEENS8_ISE_EEEC1B8ne180100Ev, symObjAddr: 0xE3AC, symBinAddr: 0x100010BC4, symSize: 0x2C }
  - { offset: 0x458F6, size: 0x8, addend: 0x0, symName: __ZNSt3__16vectorIN8nlohmann16json_abi_v3_11_210basic_jsonINS_3mapES0_NS_12basic_stringIcNS_11char_traitsIcEENS_9allocatorIcEEEEbxydS8_NS2_14adl_serializerENS0_IhNS8_IhEEEEEENS8_ISE_EEE7reserveEm, symObjAddr: 0xE3D8, symBinAddr: 0x100010BF0, symSize: 0xE8 }
  - { offset: 0x45952, size: 0x8, addend: 0x0, symName: __ZNKSt3__16vectorIN8nlohmann16json_abi_v3_11_210basic_jsonINS_3mapES0_NS_12basic_stringIcNS_11char_traitsIcEENS_9allocatorIcEEEEbxydS8_NS2_14adl_serializerENS0_IhNS8_IhEEEEEENS8_ISE_EEE4sizeB8ne180100Ev, symObjAddr: 0xE4C0, symBinAddr: 0x100010CD8, symSize: 0x28 }
  - { offset: 0x45978, size: 0x8, addend: 0x0, symName: __ZNSt3__16vectorIN8nlohmann16json_abi_v3_11_210basic_jsonINS_3mapES0_NS_12basic_stringIcNS_11char_traitsIcEENS_9allocatorIcEEEEbxydS8_NS2_14adl_serializerENS0_IhNS8_IhEEEEEENS8_ISE_EEE5beginB8ne180100Ev, symObjAddr: 0xE548, symBinAddr: 0x100010D60, symSize: 0x30 }
  - { offset: 0x459A0, size: 0x8, addend: 0x0, symName: __ZNSt3__16vectorIN8nlohmann16json_abi_v3_11_210basic_jsonINS_3mapES0_NS_12basic_stringIcNS_11char_traitsIcEENS_9allocatorIcEEEEbxydS8_NS2_14adl_serializerENS0_IhNS8_IhEEEEEENS8_ISE_EEE3endB8ne180100Ev, symObjAddr: 0xE578, symBinAddr: 0x100010D90, symSize: 0x30 }
  - { offset: 0x459C8, size: 0x8, addend: 0x0, symName: __ZNKSt3__13mapINS_12basic_stringIcNS_11char_traitsIcEENS_9allocatorIcEEEEN8nlohmann16json_abi_v3_11_210basic_jsonIS0_NS_6vectorES6_bxydS4_NS8_14adl_serializerENSA_IhNS4_IhEEEEEENS_4lessIvEENS4_INS_4pairIKS6_SE_EEEEE4sizeB8ne180100Ev, symObjAddr: 0xE5D4, symBinAddr: 0x100010DEC, symSize: 0x28 }
  - { offset: 0x459EE, size: 0x8, addend: 0x0, symName: __ZNSt3__13mapINS_12basic_stringIcNS_11char_traitsIcEENS_9allocatorIcEEEEN8nlohmann16json_abi_v3_11_210basic_jsonIS0_NS_6vectorES6_bxydS4_NS8_14adl_serializerENSA_IhNS4_IhEEEEEENS_4lessIvEENS4_INS_4pairIKS6_SE_EEEEE5beginB8ne180100Ev, symObjAddr: 0xE5FC, symBinAddr: 0x100010E14, symSize: 0x38 }
  - { offset: 0x45A14, size: 0x8, addend: 0x0, symName: __ZNSt3__13mapINS_12basic_stringIcNS_11char_traitsIcEENS_9allocatorIcEEEEN8nlohmann16json_abi_v3_11_210basic_jsonIS0_NS_6vectorES6_bxydS4_NS8_14adl_serializerENSA_IhNS4_IhEEEEEENS_4lessIvEENS4_INS_4pairIKS6_SE_EEEEE3endB8ne180100Ev, symObjAddr: 0xE634, symBinAddr: 0x100010E4C, symSize: 0x38 }
  - { offset: 0x45A3A, size: 0x8, addend: 0x0, symName: __ZNKSt3__114__map_iteratorINS_15__tree_iteratorINS_12__value_typeINS_12basic_stringIcNS_11char_traitsIcEENS_9allocatorIcEEEEN8nlohmann16json_abi_v3_11_210basic_jsonINS_3mapENS_6vectorES8_bxydS6_NSA_14adl_serializerENSD_IhNS6_IhEEEEEEEEPNS_11__tree_nodeISI_PvEElEEEdeB8ne180100Ev, symObjAddr: 0xE69C, symBinAddr: 0x100010EB4, symSize: 0x28 }
  - { offset: 0x45A60, size: 0x8, addend: 0x0, symName: __ZNSt3__16vectorIN8nlohmann16json_abi_v3_11_210basic_jsonINS_3mapES0_NS_12basic_stringIcNS_11char_traitsIcEENS_9allocatorIcEEEEbxydS8_NS2_14adl_serializerENS0_IhNS8_IhEEEEEENS8_ISE_EEE9push_backB8ne180100EOSE_, symObjAddr: 0xE6C4, symBinAddr: 0x100010EDC, symSize: 0x90 }
  - { offset: 0x45AA6, size: 0x8, addend: 0x0, symName: __ZNSt3__114__map_iteratorINS_15__tree_iteratorINS_12__value_typeINS_12basic_stringIcNS_11char_traitsIcEENS_9allocatorIcEEEEN8nlohmann16json_abi_v3_11_210basic_jsonINS_3mapENS_6vectorES8_bxydS6_NSA_14adl_serializerENSD_IhNS6_IhEEEEEEEEPNS_11__tree_nodeISI_PvEElEEEppB8ne180100Ev, symObjAddr: 0xE754, symBinAddr: 0x100010F6C, symSize: 0x2C }
  - { offset: 0x45ACC, size: 0x8, addend: 0x0, symName: __ZNKSt3__16vectorIN8nlohmann16json_abi_v3_11_210basic_jsonINS_3mapES0_NS_12basic_stringIcNS_11char_traitsIcEENS_9allocatorIcEEEEbxydS8_NS2_14adl_serializerENS0_IhNS8_IhEEEEEENS8_ISE_EEE5emptyB8ne180100Ev, symObjAddr: 0xE780, symBinAddr: 0x100010F98, symSize: 0x28 }
  - { offset: 0x45AF2, size: 0x8, addend: 0x0, symName: __ZNSt3__16vectorIN8nlohmann16json_abi_v3_11_210basic_jsonINS_3mapES0_NS_12basic_stringIcNS_11char_traitsIcEENS_9allocatorIcEEEEbxydS8_NS2_14adl_serializerENS0_IhNS8_IhEEEEEENS8_ISE_EEE4backB8ne180100Ev, symObjAddr: 0xE7A8, symBinAddr: 0x100010FC0, symSize: 0x1C }
  - { offset: 0x45B18, size: 0x8, addend: 0x0, symName: __ZN8nlohmann16json_abi_v3_11_210basic_jsonINSt3__13mapENS2_6vectorENS2_12basic_stringIcNS2_11char_traitsIcEENS2_9allocatorIcEEEEbxydS8_NS0_14adl_serializerENS4_IhNS8_IhEEEEEC1EOSE_, symObjAddr: 0xE7C4, symBinAddr: 0x100010FDC, symSize: 0x34 }
  - { offset: 0x45B51, size: 0x8, addend: 0x0, symName: __ZNSt3__16vectorIN8nlohmann16json_abi_v3_11_210basic_jsonINS_3mapES0_NS_12basic_stringIcNS_11char_traitsIcEENS_9allocatorIcEEEEbxydS8_NS2_14adl_serializerENS0_IhNS8_IhEEEEEENS8_ISE_EEE8pop_backEv, symObjAddr: 0xE7F8, symBinAddr: 0x100011010, symSize: 0x2C }
  - { offset: 0x45B79, size: 0x8, addend: 0x0, symName: __ZNK8nlohmann16json_abi_v3_11_210basic_jsonINSt3__13mapENS2_6vectorENS2_12basic_stringIcNS2_11char_traitsIcEENS2_9allocatorIcEEEEbxydS8_NS0_14adl_serializerENS4_IhNS8_IhEEEEE8is_arrayEv, symObjAddr: 0xE824, symBinAddr: 0x10001103C, symSize: 0x24 }
  - { offset: 0x45B9F, size: 0x8, addend: 0x0, symName: __ZNSt3__16vectorIN8nlohmann16json_abi_v3_11_210basic_jsonINS_3mapES0_NS_12basic_stringIcNS_11char_traitsIcEENS_9allocatorIcEEEEbxydS8_NS2_14adl_serializerENS0_IhNS8_IhEEEEEENS8_ISE_EEE5clearB8ne180100Ev, symObjAddr: 0xE848, symBinAddr: 0x100011060, symSize: 0x44 }
  - { offset: 0x45BD4, size: 0x8, addend: 0x0, symName: __ZNK8nlohmann16json_abi_v3_11_210basic_jsonINSt3__13mapENS2_6vectorENS2_12basic_stringIcNS2_11char_traitsIcEENS2_9allocatorIcEEEEbxydS8_NS0_14adl_serializerENS4_IhNS8_IhEEEEE9is_objectEv, symObjAddr: 0xE88C, symBinAddr: 0x1000110A4, symSize: 0x24 }
  - { offset: 0x45BFA, size: 0x8, addend: 0x0, symName: __ZNSt3__13mapINS_12basic_stringIcNS_11char_traitsIcEENS_9allocatorIcEEEEN8nlohmann16json_abi_v3_11_210basic_jsonIS0_NS_6vectorES6_bxydS4_NS8_14adl_serializerENSA_IhNS4_IhEEEEEENS_4lessIvEENS4_INS_4pairIKS6_SE_EEEEE5clearB8ne180100Ev, symObjAddr: 0xE8B0, symBinAddr: 0x1000110C8, symSize: 0x24 }
  - { offset: 0x45C20, size: 0x8, addend: 0x0, symName: __ZNSt3__16vectorIN8nlohmann16json_abi_v3_11_210basic_jsonINS_3mapES0_NS_12basic_stringIcNS_11char_traitsIcEENS_9allocatorIcEEEEbxydS8_NS2_14adl_serializerENS0_IhNS8_IhEEEEEENS8_ISE_EEED1B8ne180100Ev, symObjAddr: 0xE8D4, symBinAddr: 0x1000110EC, symSize: 0x2C }
  - { offset: 0x45C67, size: 0x8, addend: 0x0, symName: __ZNSt3__19allocatorINS_3mapINS_12basic_stringIcNS_11char_traitsIcEENS0_IcEEEEN8nlohmann16json_abi_v3_11_210basic_jsonIS1_NS_6vectorES6_bxydS0_NS8_14adl_serializerENSA_IhNS0_IhEEEEEENS_4lessIvEENS0_INS_4pairIKS6_SE_EEEEEEEC1B8ne180100Ev, symObjAddr: 0xE900, symBinAddr: 0x100011118, symSize: 0x2C }
  - { offset: 0x45C97, size: 0x8, addend: 0x0, symName: __ZNSt3__116allocator_traitsINS_9allocatorINS_3mapINS_12basic_stringIcNS_11char_traitsIcEENS1_IcEEEEN8nlohmann16json_abi_v3_11_210basic_jsonIS2_NS_6vectorES7_bxydS1_NS9_14adl_serializerENSB_IhNS1_IhEEEEEENS_4lessIvEENS1_INS_4pairIKS7_SF_EEEEEEEEE7destroyB8ne180100ISM_vEEvRSN_PT_, symObjAddr: 0xE92C, symBinAddr: 0x100011144, symSize: 0x2C }
  - { offset: 0x45CD4, size: 0x8, addend: 0x0, symName: __ZNSt3__116allocator_traitsINS_9allocatorINS_3mapINS_12basic_stringIcNS_11char_traitsIcEENS1_IcEEEEN8nlohmann16json_abi_v3_11_210basic_jsonIS2_NS_6vectorES7_bxydS1_NS9_14adl_serializerENSB_IhNS1_IhEEEEEENS_4lessIvEENS1_INS_4pairIKS7_SF_EEEEEEEEE10deallocateB8ne180100ERSN_PSM_m, symObjAddr: 0xE958, symBinAddr: 0x100011170, symSize: 0x34 }
  - { offset: 0x45D33, size: 0x8, addend: 0x0, symName: __ZNSt3__19allocatorINS_6vectorIN8nlohmann16json_abi_v3_11_210basic_jsonINS_3mapES1_NS_12basic_stringIcNS_11char_traitsIcEENS0_IcEEEEbxydS0_NS3_14adl_serializerENS1_IhNS0_IhEEEEEENS0_ISE_EEEEEC1B8ne180100Ev, symObjAddr: 0xE98C, symBinAddr: 0x1000111A4, symSize: 0x2C }
  - { offset: 0x45D63, size: 0x8, addend: 0x0, symName: __ZNSt3__116allocator_traitsINS_9allocatorINS_6vectorIN8nlohmann16json_abi_v3_11_210basic_jsonINS_3mapES2_NS_12basic_stringIcNS_11char_traitsIcEENS1_IcEEEEbxydS1_NS4_14adl_serializerENS2_IhNS1_IhEEEEEENS1_ISF_EEEEEEE7destroyB8ne180100ISH_vEEvRSI_PT_, symObjAddr: 0xE9B8, symBinAddr: 0x1000111D0, symSize: 0x2C }
  - { offset: 0x45DA0, size: 0x8, addend: 0x0, symName: __ZNSt3__116allocator_traitsINS_9allocatorINS_6vectorIN8nlohmann16json_abi_v3_11_210basic_jsonINS_3mapES2_NS_12basic_stringIcNS_11char_traitsIcEENS1_IcEEEEbxydS1_NS4_14adl_serializerENS2_IhNS1_IhEEEEEENS1_ISF_EEEEEEE10deallocateB8ne180100ERSI_PSH_m, symObjAddr: 0xE9E4, symBinAddr: 0x1000111FC, symSize: 0x34 }
  - { offset: 0x45DE2, size: 0x8, addend: 0x0, symName: __ZNSt3__19allocatorINS_12basic_stringIcNS_11char_traitsIcEENS0_IcEEEEEC1B8ne180100Ev, symObjAddr: 0xEA18, symBinAddr: 0x100011230, symSize: 0x2C }
  - { offset: 0x45E0C, size: 0x8, addend: 0x0, symName: __ZNSt3__116allocator_traitsINS_9allocatorINS_12basic_stringIcNS_11char_traitsIcEENS1_IcEEEEEEE7destroyB8ne180100IS6_vEEvRS7_PT_, symObjAddr: 0xEA44, symBinAddr: 0x10001125C, symSize: 0x2C }
  - { offset: 0x45E49, size: 0x8, addend: 0x0, symName: __ZNSt3__116allocator_traitsINS_9allocatorINS_12basic_stringIcNS_11char_traitsIcEENS1_IcEEEEEEE10deallocateB8ne180100ERS7_PS6_m, symObjAddr: 0xEA70, symBinAddr: 0x100011288, symSize: 0x34 }
  - { offset: 0x45EAE, size: 0x8, addend: 0x0, symName: __ZNSt3__19allocatorIN8nlohmann16json_abi_v3_11_227byte_container_with_subtypeINS_6vectorIhNS0_IhEEEEEEEC1B8ne180100Ev, symObjAddr: 0xEAA4, symBinAddr: 0x1000112BC, symSize: 0x2C }
  - { offset: 0x45EDE, size: 0x8, addend: 0x0, symName: __ZNSt3__116allocator_traitsINS_9allocatorIN8nlohmann16json_abi_v3_11_227byte_container_with_subtypeINS_6vectorIhNS1_IhEEEEEEEEE7destroyB8ne180100IS8_vEEvRS9_PT_, symObjAddr: 0xEAD0, symBinAddr: 0x1000112E8, symSize: 0x2C }
  - { offset: 0x45F1B, size: 0x8, addend: 0x0, symName: __ZNSt3__116allocator_traitsINS_9allocatorIN8nlohmann16json_abi_v3_11_227byte_container_with_subtypeINS_6vectorIhNS1_IhEEEEEEEEE10deallocateB8ne180100ERS9_PS8_m, symObjAddr: 0xEAFC, symBinAddr: 0x100011314, symSize: 0x34 }
  - { offset: 0x45F5D, size: 0x8, addend: 0x0, symName: __ZNSt3__16vectorIN8nlohmann16json_abi_v3_11_210basic_jsonINS_3mapES0_NS_12basic_stringIcNS_11char_traitsIcEENS_9allocatorIcEEEEbxydS8_NS2_14adl_serializerENS0_IhNS8_IhEEEEEENS8_ISE_EEEC2B8ne180100Ev, symObjAddr: 0xEB30, symBinAddr: 0x100011348, symSize: 0x4C }
  - { offset: 0x45F87, size: 0x8, addend: 0x0, symName: __ZNSt3__117__compressed_pairIPN8nlohmann16json_abi_v3_11_210basic_jsonINS_3mapENS_6vectorENS_12basic_stringIcNS_11char_traitsIcEENS_9allocatorIcEEEEbxydS9_NS2_14adl_serializerENS5_IhNS9_IhEEEEEENS9_ISF_EEEC1B8ne180100IDnNS_18__default_init_tagEEEOT_OT0_, symObjAddr: 0xEB7C, symBinAddr: 0x100011394, symSize: 0x3C }
  - { offset: 0x45FDF, size: 0x8, addend: 0x0, symName: __ZNSt3__117__compressed_pairIPN8nlohmann16json_abi_v3_11_210basic_jsonINS_3mapENS_6vectorENS_12basic_stringIcNS_11char_traitsIcEENS_9allocatorIcEEEEbxydS9_NS2_14adl_serializerENS5_IhNS9_IhEEEEEENS9_ISF_EEEC2B8ne180100IDnNS_18__default_init_tagEEEOT_OT0_, symObjAddr: 0xEBB8, symBinAddr: 0x1000113D0, symSize: 0x40 }
  - { offset: 0x46037, size: 0x8, addend: 0x0, symName: __ZNSt3__122__compressed_pair_elemIPN8nlohmann16json_abi_v3_11_210basic_jsonINS_3mapENS_6vectorENS_12basic_stringIcNS_11char_traitsIcEENS_9allocatorIcEEEEbxydS9_NS2_14adl_serializerENS5_IhNS9_IhEEEEEELi0ELb0EEC2B8ne180100IDnvEEOT_, symObjAddr: 0xEBF8, symBinAddr: 0x100011410, symSize: 0x1C }
  - { offset: 0x46079, size: 0x8, addend: 0x0, symName: __ZNSt3__122__compressed_pair_elemINS_9allocatorIN8nlohmann16json_abi_v3_11_210basic_jsonINS_3mapENS_6vectorENS_12basic_stringIcNS_11char_traitsIcEENS1_IcEEEEbxydS1_NS3_14adl_serializerENS6_IhNS1_IhEEEEEEEELi1ELb1EEC2B8ne180100ENS_18__default_init_tagE, symObjAddr: 0xEC14, symBinAddr: 0x10001142C, symSize: 0x2C }
  - { offset: 0x460AE, size: 0x8, addend: 0x0, symName: __ZNSt3__19allocatorIN8nlohmann16json_abi_v3_11_210basic_jsonINS_3mapENS_6vectorENS_12basic_stringIcNS_11char_traitsIcEENS0_IcEEEEbxydS0_NS2_14adl_serializerENS5_IhNS0_IhEEEEEEEC2B8ne180100Ev, symObjAddr: 0xEC40, symBinAddr: 0x100011458, symSize: 0x2C }
  - { offset: 0x460D8, size: 0x8, addend: 0x0, symName: __ZNSt3__116__non_trivial_ifILb1ENS_9allocatorIN8nlohmann16json_abi_v3_11_210basic_jsonINS_3mapENS_6vectorENS_12basic_stringIcNS_11char_traitsIcEENS1_IcEEEEbxydS1_NS3_14adl_serializerENS6_IhNS1_IhEEEEEEEEEC2B8ne180100Ev, symObjAddr: 0xEC6C, symBinAddr: 0x100011484, symSize: 0x14 }
  - { offset: 0x46102, size: 0x8, addend: 0x0, symName: __ZNKSt3__16vectorIN8nlohmann16json_abi_v3_11_210basic_jsonINS_3mapES0_NS_12basic_stringIcNS_11char_traitsIcEENS_9allocatorIcEEEEbxydS8_NS2_14adl_serializerENS0_IhNS8_IhEEEEEENS8_ISE_EEE8capacityB8ne180100Ev, symObjAddr: 0xEC80, symBinAddr: 0x100011498, symSize: 0x40 }
  - { offset: 0x46128, size: 0x8, addend: 0x0, symName: __ZNKSt3__16vectorIN8nlohmann16json_abi_v3_11_210basic_jsonINS_3mapES0_NS_12basic_stringIcNS_11char_traitsIcEENS_9allocatorIcEEEEbxydS8_NS2_14adl_serializerENS0_IhNS8_IhEEEEEENS8_ISE_EEE8max_sizeEv, symObjAddr: 0xECC0, symBinAddr: 0x1000114D8, symSize: 0x60 }
  - { offset: 0x46150, size: 0x8, addend: 0x0, symName: __ZNKSt3__16vectorIN8nlohmann16json_abi_v3_11_210basic_jsonINS_3mapES0_NS_12basic_stringIcNS_11char_traitsIcEENS_9allocatorIcEEEEbxydS8_NS2_14adl_serializerENS0_IhNS8_IhEEEEEENS8_ISE_EEE20__throw_length_errorB8ne180100Ev, symObjAddr: 0xED20, symBinAddr: 0x100011538, symSize: 0x1C }
  - { offset: 0x46176, size: 0x8, addend: 0x0, symName: __ZNSt3__16vectorIN8nlohmann16json_abi_v3_11_210basic_jsonINS_3mapES0_NS_12basic_stringIcNS_11char_traitsIcEENS_9allocatorIcEEEEbxydS8_NS2_14adl_serializerENS0_IhNS8_IhEEEEEENS8_ISE_EEE7__allocB8ne180100Ev, symObjAddr: 0xED3C, symBinAddr: 0x100011554, symSize: 0x28 }
  - { offset: 0x4619C, size: 0x8, addend: 0x0, symName: __ZNSt3__114__split_bufferIN8nlohmann16json_abi_v3_11_210basic_jsonINS_3mapENS_6vectorENS_12basic_stringIcNS_11char_traitsIcEENS_9allocatorIcEEEEbxydS9_NS2_14adl_serializerENS5_IhNS9_IhEEEEEERNS9_ISF_EEEC1EmmSH_, symObjAddr: 0xED64, symBinAddr: 0x10001157C, symSize: 0x44 }
  - { offset: 0x461F2, size: 0x8, addend: 0x0, symName: __ZNSt3__114__split_bufferIN8nlohmann16json_abi_v3_11_210basic_jsonINS_3mapENS_6vectorENS_12basic_stringIcNS_11char_traitsIcEENS_9allocatorIcEEEEbxydS9_NS2_14adl_serializerENS5_IhNS9_IhEEEEEERNS9_ISF_EEED1Ev, symObjAddr: 0xEEB8, symBinAddr: 0x1000116D0, symSize: 0x2C }
  - { offset: 0x4621E, size: 0x8, addend: 0x0, symName: __ZNKSt3__16vectorIN8nlohmann16json_abi_v3_11_210basic_jsonINS_3mapES0_NS_12basic_stringIcNS_11char_traitsIcEENS_9allocatorIcEEEEbxydS8_NS2_14adl_serializerENS0_IhNS8_IhEEEEEENS8_ISE_EEE9__end_capB8ne180100Ev, symObjAddr: 0xEEE4, symBinAddr: 0x1000116FC, symSize: 0x28 }
  - { offset: 0x46244, size: 0x8, addend: 0x0, symName: __ZNKSt3__117__compressed_pairIPN8nlohmann16json_abi_v3_11_210basic_jsonINS_3mapENS_6vectorENS_12basic_stringIcNS_11char_traitsIcEENS_9allocatorIcEEEEbxydS9_NS2_14adl_serializerENS5_IhNS9_IhEEEEEENS9_ISF_EEE5firstB8ne180100Ev, symObjAddr: 0xEF0C, symBinAddr: 0x100011724, symSize: 0x24 }
  - { offset: 0x4626A, size: 0x8, addend: 0x0, symName: __ZNKSt3__122__compressed_pair_elemIPN8nlohmann16json_abi_v3_11_210basic_jsonINS_3mapENS_6vectorENS_12basic_stringIcNS_11char_traitsIcEENS_9allocatorIcEEEEbxydS9_NS2_14adl_serializerENS5_IhNS9_IhEEEEEELi0ELb0EE5__getB8ne180100Ev, symObjAddr: 0xEF30, symBinAddr: 0x100011748, symSize: 0x14 }
  - { offset: 0x4629B, size: 0x8, addend: 0x0, symName: __ZNSt3__116allocator_traitsINS_9allocatorIN8nlohmann16json_abi_v3_11_210basic_jsonINS_3mapENS_6vectorENS_12basic_stringIcNS_11char_traitsIcEENS1_IcEEEEbxydS1_NS3_14adl_serializerENS6_IhNS1_IhEEEEEEEEE8max_sizeB8ne180100ISG_vEEmRKSG_, symObjAddr: 0xEF44, symBinAddr: 0x10001175C, symSize: 0x24 }
  - { offset: 0x462C9, size: 0x8, addend: 0x0, symName: __ZNKSt3__16vectorIN8nlohmann16json_abi_v3_11_210basic_jsonINS_3mapES0_NS_12basic_stringIcNS_11char_traitsIcEENS_9allocatorIcEEEEbxydS8_NS2_14adl_serializerENS0_IhNS8_IhEEEEEENS8_ISE_EEE7__allocB8ne180100Ev, symObjAddr: 0xEF68, symBinAddr: 0x100011780, symSize: 0x28 }
  - { offset: 0x462EF, size: 0x8, addend: 0x0, symName: __ZNKSt3__19allocatorIN8nlohmann16json_abi_v3_11_210basic_jsonINS_3mapENS_6vectorENS_12basic_stringIcNS_11char_traitsIcEENS0_IcEEEEbxydS0_NS2_14adl_serializerENS5_IhNS0_IhEEEEEEE8max_sizeB8ne180100Ev, symObjAddr: 0xEF90, symBinAddr: 0x1000117A8, symSize: 0x14 }
  - { offset: 0x46315, size: 0x8, addend: 0x0, symName: __ZNKSt3__117__compressed_pairIPN8nlohmann16json_abi_v3_11_210basic_jsonINS_3mapENS_6vectorENS_12basic_stringIcNS_11char_traitsIcEENS_9allocatorIcEEEEbxydS9_NS2_14adl_serializerENS5_IhNS9_IhEEEEEENS9_ISF_EEE6secondB8ne180100Ev, symObjAddr: 0xEFA4, symBinAddr: 0x1000117BC, symSize: 0x24 }
  - { offset: 0x4633B, size: 0x8, addend: 0x0, symName: __ZNKSt3__122__compressed_pair_elemINS_9allocatorIN8nlohmann16json_abi_v3_11_210basic_jsonINS_3mapENS_6vectorENS_12basic_stringIcNS_11char_traitsIcEENS1_IcEEEEbxydS1_NS3_14adl_serializerENS6_IhNS1_IhEEEEEEEELi1ELb1EE5__getB8ne180100Ev, symObjAddr: 0xEFC8, symBinAddr: 0x1000117E0, symSize: 0x14 }
  - { offset: 0x46361, size: 0x8, addend: 0x0, symName: __ZNSt3__117__compressed_pairIPN8nlohmann16json_abi_v3_11_210basic_jsonINS_3mapENS_6vectorENS_12basic_stringIcNS_11char_traitsIcEENS_9allocatorIcEEEEbxydS9_NS2_14adl_serializerENS5_IhNS9_IhEEEEEENS9_ISF_EEE6secondB8ne180100Ev, symObjAddr: 0xEFDC, symBinAddr: 0x1000117F4, symSize: 0x24 }
  - { offset: 0x46387, size: 0x8, addend: 0x0, symName: __ZNSt3__122__compressed_pair_elemINS_9allocatorIN8nlohmann16json_abi_v3_11_210basic_jsonINS_3mapENS_6vectorENS_12basic_stringIcNS_11char_traitsIcEENS1_IcEEEEbxydS1_NS3_14adl_serializerENS6_IhNS1_IhEEEEEEEELi1ELb1EE5__getB8ne180100Ev, symObjAddr: 0xF000, symBinAddr: 0x100011818, symSize: 0x14 }
  - { offset: 0x463AD, size: 0x8, addend: 0x0, symName: __ZNSt3__114__split_bufferIN8nlohmann16json_abi_v3_11_210basic_jsonINS_3mapENS_6vectorENS_12basic_stringIcNS_11char_traitsIcEENS_9allocatorIcEEEEbxydS9_NS2_14adl_serializerENS5_IhNS9_IhEEEEEERNS9_ISF_EEEC2EmmSH_, symObjAddr: 0xF014, symBinAddr: 0x10001182C, symSize: 0xD4 }
  - { offset: 0x46421, size: 0x8, addend: 0x0, symName: __ZNSt3__117__compressed_pairIPN8nlohmann16json_abi_v3_11_210basic_jsonINS_3mapENS_6vectorENS_12basic_stringIcNS_11char_traitsIcEENS_9allocatorIcEEEEbxydS9_NS2_14adl_serializerENS5_IhNS9_IhEEEEEERNS9_ISF_EEEC1B8ne180100IDnSI_EEOT_OT0_, symObjAddr: 0xF0E8, symBinAddr: 0x100011900, symSize: 0x3C }
  - { offset: 0x46479, size: 0x8, addend: 0x0, symName: __ZNSt3__114__split_bufferIN8nlohmann16json_abi_v3_11_210basic_jsonINS_3mapENS_6vectorENS_12basic_stringIcNS_11char_traitsIcEENS_9allocatorIcEEEEbxydS9_NS2_14adl_serializerENS5_IhNS9_IhEEEEEERNS9_ISF_EEE7__allocB8ne180100Ev, symObjAddr: 0xF164, symBinAddr: 0x10001197C, symSize: 0x28 }
  - { offset: 0x4649F, size: 0x8, addend: 0x0, symName: __ZNSt3__114__split_bufferIN8nlohmann16json_abi_v3_11_210basic_jsonINS_3mapENS_6vectorENS_12basic_stringIcNS_11char_traitsIcEENS_9allocatorIcEEEEbxydS9_NS2_14adl_serializerENS5_IhNS9_IhEEEEEERNS9_ISF_EEE9__end_capB8ne180100Ev, symObjAddr: 0xF18C, symBinAddr: 0x1000119A4, symSize: 0x28 }
  - { offset: 0x464C5, size: 0x8, addend: 0x0, symName: __ZNSt3__117__compressed_pairIPN8nlohmann16json_abi_v3_11_210basic_jsonINS_3mapENS_6vectorENS_12basic_stringIcNS_11char_traitsIcEENS_9allocatorIcEEEEbxydS9_NS2_14adl_serializerENS5_IhNS9_IhEEEEEERNS9_ISF_EEEC2B8ne180100IDnSI_EEOT_OT0_, symObjAddr: 0xF1B4, symBinAddr: 0x1000119CC, symSize: 0x48 }
  - { offset: 0x4651D, size: 0x8, addend: 0x0, symName: __ZNSt3__122__compressed_pair_elemIRNS_9allocatorIN8nlohmann16json_abi_v3_11_210basic_jsonINS_3mapENS_6vectorENS_12basic_stringIcNS_11char_traitsIcEENS1_IcEEEEbxydS1_NS3_14adl_serializerENS6_IhNS1_IhEEEEEEEELi1ELb0EEC2B8ne180100ISH_vEEOT_, symObjAddr: 0xF1FC, symBinAddr: 0x100011A14, symSize: 0x20 }
  - { offset: 0x4655F, size: 0x8, addend: 0x0, symName: __ZNSt3__19allocatorIN8nlohmann16json_abi_v3_11_210basic_jsonINS_3mapENS_6vectorENS_12basic_stringIcNS_11char_traitsIcEENS0_IcEEEEbxydS0_NS2_14adl_serializerENS5_IhNS0_IhEEEEEEE8allocateB8ne180100Em, symObjAddr: 0xF21C, symBinAddr: 0x100011A34, symSize: 0x58 }
  - { offset: 0x46593, size: 0x8, addend: 0x0, symName: __ZNSt3__117__compressed_pairIPN8nlohmann16json_abi_v3_11_210basic_jsonINS_3mapENS_6vectorENS_12basic_stringIcNS_11char_traitsIcEENS_9allocatorIcEEEEbxydS9_NS2_14adl_serializerENS5_IhNS9_IhEEEEEERNS9_ISF_EEE6secondB8ne180100Ev, symObjAddr: 0xF274, symBinAddr: 0x100011A8C, symSize: 0x28 }
  - { offset: 0x465B9, size: 0x8, addend: 0x0, symName: __ZNSt3__122__compressed_pair_elemIRNS_9allocatorIN8nlohmann16json_abi_v3_11_210basic_jsonINS_3mapENS_6vectorENS_12basic_stringIcNS_11char_traitsIcEENS1_IcEEEEbxydS1_NS3_14adl_serializerENS6_IhNS1_IhEEEEEEEELi1ELb0EE5__getB8ne180100Ev, symObjAddr: 0xF29C, symBinAddr: 0x100011AB4, symSize: 0x18 }
  - { offset: 0x465DF, size: 0x8, addend: 0x0, symName: __ZNSt3__117__compressed_pairIPN8nlohmann16json_abi_v3_11_210basic_jsonINS_3mapENS_6vectorENS_12basic_stringIcNS_11char_traitsIcEENS_9allocatorIcEEEEbxydS9_NS2_14adl_serializerENS5_IhNS9_IhEEEEEERNS9_ISF_EEE5firstB8ne180100Ev, symObjAddr: 0xF2B4, symBinAddr: 0x100011ACC, symSize: 0x24 }
  - { offset: 0x46605, size: 0x8, addend: 0x0, symName: __ZNSt3__122__compressed_pair_elemIPN8nlohmann16json_abi_v3_11_210basic_jsonINS_3mapENS_6vectorENS_12basic_stringIcNS_11char_traitsIcEENS_9allocatorIcEEEEbxydS9_NS2_14adl_serializerENS5_IhNS9_IhEEEEEELi0ELb0EE5__getB8ne180100Ev, symObjAddr: 0xF2D8, symBinAddr: 0x100011AF0, symSize: 0x14 }
  - { offset: 0x4662B, size: 0x8, addend: 0x0, symName: __ZNKSt3__16vectorIN8nlohmann16json_abi_v3_11_210basic_jsonINS_3mapES0_NS_12basic_stringIcNS_11char_traitsIcEENS_9allocatorIcEEEEbxydS8_NS2_14adl_serializerENS0_IhNS8_IhEEEEEENS8_ISE_EEE17__annotate_deleteB8ne180100Ev, symObjAddr: 0xF2EC, symBinAddr: 0x100011B04, symSize: 0x10 }
  - { offset: 0x46651, size: 0x8, addend: 0x0, symName: __ZNSt3__116reverse_iteratorIPN8nlohmann16json_abi_v3_11_210basic_jsonINS_3mapENS_6vectorENS_12basic_stringIcNS_11char_traitsIcEENS_9allocatorIcEEEEbxydS9_NS2_14adl_serializerENS5_IhNS9_IhEEEEEEEC1B8ne180100ESG_, symObjAddr: 0xF428, symBinAddr: 0x100011C40, symSize: 0x34 }
  - { offset: 0x46689, size: 0x8, addend: 0x0, symName: __ZNKSt3__116reverse_iteratorIPN8nlohmann16json_abi_v3_11_210basic_jsonINS_3mapENS_6vectorENS_12basic_stringIcNS_11char_traitsIcEENS_9allocatorIcEEEEbxydS9_NS2_14adl_serializerENS5_IhNS9_IhEEEEEEE4baseB8ne180100Ev, symObjAddr: 0xF45C, symBinAddr: 0x100011C74, symSize: 0x18 }
  - { offset: 0x466AF, size: 0x8, addend: 0x0, symName: __ZNSt3__16vectorIN8nlohmann16json_abi_v3_11_210basic_jsonINS_3mapES0_NS_12basic_stringIcNS_11char_traitsIcEENS_9allocatorIcEEEEbxydS8_NS2_14adl_serializerENS0_IhNS8_IhEEEEEENS8_ISE_EEE9__end_capB8ne180100Ev, symObjAddr: 0xF4B0, symBinAddr: 0x100011CC8, symSize: 0x28 }
  - { offset: 0x466D5, size: 0x8, addend: 0x0, symName: __ZNKSt3__16vectorIN8nlohmann16json_abi_v3_11_210basic_jsonINS_3mapES0_NS_12basic_stringIcNS_11char_traitsIcEENS_9allocatorIcEEEEbxydS8_NS2_14adl_serializerENS0_IhNS8_IhEEEEEENS8_ISE_EEE14__annotate_newB8ne180100Em, symObjAddr: 0xF4D8, symBinAddr: 0x100011CF0, symSize: 0x14 }
  - { offset: 0x4670A, size: 0x8, addend: 0x0, symName: __ZNSt3__129_AllocatorDestroyRangeReverseINS_9allocatorIN8nlohmann16json_abi_v3_11_210basic_jsonINS_3mapENS_6vectorENS_12basic_stringIcNS_11char_traitsIcEENS1_IcEEEEbxydS1_NS3_14adl_serializerENS6_IhNS1_IhEEEEEEEENS_16reverse_iteratorIPSF_EEEC1B8ne180100ERSG_RSJ_SM_, symObjAddr: 0xF538, symBinAddr: 0x100011D50, symSize: 0x44 }
  - { offset: 0x46761, size: 0x8, addend: 0x0, symName: __ZNSt3__116allocator_traitsINS_9allocatorIN8nlohmann16json_abi_v3_11_210basic_jsonINS_3mapENS_6vectorENS_12basic_stringIcNS_11char_traitsIcEENS1_IcEEEEbxydS1_NS3_14adl_serializerENS6_IhNS1_IhEEEEEEEEE9constructB8ne180100ISF_JSF_EvEEvRSG_PT_DpOT0_, symObjAddr: 0xF5C4, symBinAddr: 0x100011DDC, symSize: 0x34 }
  - { offset: 0x467B8, size: 0x8, addend: 0x0, symName: __ZNKSt3__116reverse_iteratorIPN8nlohmann16json_abi_v3_11_210basic_jsonINS_3mapENS_6vectorENS_12basic_stringIcNS_11char_traitsIcEENS_9allocatorIcEEEEbxydS9_NS2_14adl_serializerENS5_IhNS9_IhEEEEEEEdeB8ne180100Ev, symObjAddr: 0xF61C, symBinAddr: 0x100011E34, symSize: 0x28 }
  - { offset: 0x467EC, size: 0x8, addend: 0x0, symName: __ZNSt3__116reverse_iteratorIPN8nlohmann16json_abi_v3_11_210basic_jsonINS_3mapENS_6vectorENS_12basic_stringIcNS_11char_traitsIcEENS_9allocatorIcEEEEbxydS9_NS2_14adl_serializerENS5_IhNS9_IhEEEEEEEppB8ne180100Ev, symObjAddr: 0xF644, symBinAddr: 0x100011E5C, symSize: 0x20 }
  - { offset: 0x46812, size: 0x8, addend: 0x0, symName: __ZNSt3__128__exception_guard_exceptionsINS_29_AllocatorDestroyRangeReverseINS_9allocatorIN8nlohmann16json_abi_v3_11_210basic_jsonINS_3mapENS_6vectorENS_12basic_stringIcNS_11char_traitsIcEENS2_IcEEEEbxydS2_NS4_14adl_serializerENS7_IhNS2_IhEEEEEEEENS_16reverse_iteratorIPSG_EEEEE10__completeB8ne180100Ev, symObjAddr: 0xF664, symBinAddr: 0x100011E7C, symSize: 0x1C }
  - { offset: 0x46838, size: 0x8, addend: 0x0, symName: __ZNSt3__128__exception_guard_exceptionsINS_29_AllocatorDestroyRangeReverseINS_9allocatorIN8nlohmann16json_abi_v3_11_210basic_jsonINS_3mapENS_6vectorENS_12basic_stringIcNS_11char_traitsIcEENS2_IcEEEEbxydS2_NS4_14adl_serializerENS7_IhNS2_IhEEEEEEEENS_16reverse_iteratorIPSG_EEEEED1B8ne180100Ev, symObjAddr: 0xF680, symBinAddr: 0x100011E98, symSize: 0x2C }
  - { offset: 0x46862, size: 0x8, addend: 0x0, symName: __ZNSt3__128__exception_guard_exceptionsINS_29_AllocatorDestroyRangeReverseINS_9allocatorIN8nlohmann16json_abi_v3_11_210basic_jsonINS_3mapENS_6vectorENS_12basic_stringIcNS_11char_traitsIcEENS2_IcEEEEbxydS2_NS4_14adl_serializerENS7_IhNS2_IhEEEEEEEENS_16reverse_iteratorIPSG_EEEEEC1B8ne180100ESL_, symObjAddr: 0xF6AC, symBinAddr: 0x100011EC4, symSize: 0x34 }
  - { offset: 0x4689B, size: 0x8, addend: 0x0, symName: __ZNSt3__128__exception_guard_exceptionsINS_29_AllocatorDestroyRangeReverseINS_9allocatorIN8nlohmann16json_abi_v3_11_210basic_jsonINS_3mapENS_6vectorENS_12basic_stringIcNS_11char_traitsIcEENS2_IcEEEEbxydS2_NS4_14adl_serializerENS7_IhNS2_IhEEEEEEEENS_16reverse_iteratorIPSG_EEEEEC2B8ne180100ESL_, symObjAddr: 0xF6E0, symBinAddr: 0x100011EF8, symSize: 0x30 }
  - { offset: 0x468D4, size: 0x8, addend: 0x0, symName: __ZNSt3__129_AllocatorDestroyRangeReverseINS_9allocatorIN8nlohmann16json_abi_v3_11_210basic_jsonINS_3mapENS_6vectorENS_12basic_stringIcNS_11char_traitsIcEENS1_IcEEEEbxydS1_NS3_14adl_serializerENS6_IhNS1_IhEEEEEEEENS_16reverse_iteratorIPSF_EEEC2B8ne180100ERSG_RSJ_SM_, symObjAddr: 0xF710, symBinAddr: 0x100011F28, symSize: 0x38 }
  - { offset: 0x4692B, size: 0x8, addend: 0x0, symName: __ZNSt3__19allocatorIN8nlohmann16json_abi_v3_11_210basic_jsonINS_3mapENS_6vectorENS_12basic_stringIcNS_11char_traitsIcEENS0_IcEEEEbxydS0_NS2_14adl_serializerENS5_IhNS0_IhEEEEEEE9constructB8ne180100ISE_JSE_EEEvPT_DpOT0_, symObjAddr: 0xF748, symBinAddr: 0x100011F60, symSize: 0x30 }
  - { offset: 0x46987, size: 0x8, addend: 0x0, symName: __ZNSt3__119__to_address_helperINS_16reverse_iteratorIPN8nlohmann16json_abi_v3_11_210basic_jsonINS_3mapENS_6vectorENS_12basic_stringIcNS_11char_traitsIcEENS_9allocatorIcEEEEbxydSA_NS3_14adl_serializerENS6_IhNSA_IhEEEEEEEEvE6__callB8ne180100ERKSI_, symObjAddr: 0xF778, symBinAddr: 0x100011F90, symSize: 0x38 }
  - { offset: 0x469AA, size: 0x8, addend: 0x0, symName: __ZNKSt3__116reverse_iteratorIPN8nlohmann16json_abi_v3_11_210basic_jsonINS_3mapENS_6vectorENS_12basic_stringIcNS_11char_traitsIcEENS_9allocatorIcEEEEbxydS9_NS2_14adl_serializerENS5_IhNS9_IhEEEEEEEptB8ne180100Ev, symObjAddr: 0xF7C4, symBinAddr: 0x100011FDC, symSize: 0x24 }
  - { offset: 0x469D0, size: 0x8, addend: 0x0, symName: __ZNSt3__128__exception_guard_exceptionsINS_29_AllocatorDestroyRangeReverseINS_9allocatorIN8nlohmann16json_abi_v3_11_210basic_jsonINS_3mapENS_6vectorENS_12basic_stringIcNS_11char_traitsIcEENS2_IcEEEEbxydS2_NS4_14adl_serializerENS7_IhNS2_IhEEEEEEEENS_16reverse_iteratorIPSG_EEEEED2B8ne180100Ev, symObjAddr: 0xF7E8, symBinAddr: 0x100012000, symSize: 0x50 }
  - { offset: 0x469FA, size: 0x8, addend: 0x0, symName: __ZNKSt3__129_AllocatorDestroyRangeReverseINS_9allocatorIN8nlohmann16json_abi_v3_11_210basic_jsonINS_3mapENS_6vectorENS_12basic_stringIcNS_11char_traitsIcEENS1_IcEEEEbxydS1_NS3_14adl_serializerENS6_IhNS1_IhEEEEEEEENS_16reverse_iteratorIPSF_EEEclB8ne180100Ev, symObjAddr: 0xF838, symBinAddr: 0x100012050, symSize: 0xB4 }
  - { offset: 0x46A21, size: 0x8, addend: 0x0, symName: __ZNSt3__116reverse_iteratorINS0_IPN8nlohmann16json_abi_v3_11_210basic_jsonINS_3mapENS_6vectorENS_12basic_stringIcNS_11char_traitsIcEENS_9allocatorIcEEEEbxydS9_NS2_14adl_serializerENS5_IhNS9_IhEEEEEEEEEC1B8ne180100ESH_, symObjAddr: 0xF95C, symBinAddr: 0x100012174, symSize: 0x3C }
  - { offset: 0x46A59, size: 0x8, addend: 0x0, symName: __ZNSt3__116allocator_traitsINS_9allocatorIN8nlohmann16json_abi_v3_11_210basic_jsonINS_3mapENS_6vectorENS_12basic_stringIcNS_11char_traitsIcEENS1_IcEEEEbxydS1_NS3_14adl_serializerENS6_IhNS1_IhEEEEEEEEE7destroyB8ne180100ISF_vEEvRSG_PT_, symObjAddr: 0xF9F8, symBinAddr: 0x100012210, symSize: 0x2C }
  - { offset: 0x46A96, size: 0x8, addend: 0x0, symName: __ZNSt3__116reverse_iteratorINS0_IPN8nlohmann16json_abi_v3_11_210basic_jsonINS_3mapENS_6vectorENS_12basic_stringIcNS_11char_traitsIcEENS_9allocatorIcEEEEbxydS9_NS2_14adl_serializerENS5_IhNS9_IhEEEEEEEEEppB8ne180100Ev, symObjAddr: 0xFA48, symBinAddr: 0x100012260, symSize: 0x30 }
  - { offset: 0x46ABC, size: 0x8, addend: 0x0, symName: __ZNKSt3__116reverse_iteratorINS0_IPN8nlohmann16json_abi_v3_11_210basic_jsonINS_3mapENS_6vectorENS_12basic_stringIcNS_11char_traitsIcEENS_9allocatorIcEEEEbxydS9_NS2_14adl_serializerENS5_IhNS9_IhEEEEEEEEE4baseB8ne180100Ev, symObjAddr: 0xFA78, symBinAddr: 0x100012290, symSize: 0x24 }
  - { offset: 0x46AE2, size: 0x8, addend: 0x0, symName: __ZNSt3__19allocatorIN8nlohmann16json_abi_v3_11_210basic_jsonINS_3mapENS_6vectorENS_12basic_stringIcNS_11char_traitsIcEENS0_IcEEEEbxydS0_NS2_14adl_serializerENS5_IhNS0_IhEEEEEEE7destroyB8ne180100EPSE_, symObjAddr: 0xFA9C, symBinAddr: 0x1000122B4, symSize: 0x28 }
  - { offset: 0x46B1C, size: 0x8, addend: 0x0, symName: __ZNSt3__119__to_address_helperINS_16reverse_iteratorINS1_IPN8nlohmann16json_abi_v3_11_210basic_jsonINS_3mapENS_6vectorENS_12basic_stringIcNS_11char_traitsIcEENS_9allocatorIcEEEEbxydSA_NS3_14adl_serializerENS6_IhNSA_IhEEEEEEEEEEvE6__callB8ne180100ERKSJ_, symObjAddr: 0xFAC4, symBinAddr: 0x1000122DC, symSize: 0x38 }
  - { offset: 0x46B3F, size: 0x8, addend: 0x0, symName: __ZNKSt3__116reverse_iteratorINS0_IPN8nlohmann16json_abi_v3_11_210basic_jsonINS_3mapENS_6vectorENS_12basic_stringIcNS_11char_traitsIcEENS_9allocatorIcEEEEbxydS9_NS2_14adl_serializerENS5_IhNS9_IhEEEEEEEEEptB8ne180100Ev, symObjAddr: 0xFAFC, symBinAddr: 0x100012314, symSize: 0x24 }
  - { offset: 0x46B65, size: 0x8, addend: 0x0, symName: __ZNKSt3__116reverse_iteratorINS0_IPN8nlohmann16json_abi_v3_11_210basic_jsonINS_3mapENS_6vectorENS_12basic_stringIcNS_11char_traitsIcEENS_9allocatorIcEEEEbxydS9_NS2_14adl_serializerENS5_IhNS9_IhEEEEEEEEEdeB8ne180100Ev, symObjAddr: 0xFB20, symBinAddr: 0x100012338, symSize: 0x34 }
  - { offset: 0x46B99, size: 0x8, addend: 0x0, symName: __ZNSt3__116reverse_iteratorIPN8nlohmann16json_abi_v3_11_210basic_jsonINS_3mapENS_6vectorENS_12basic_stringIcNS_11char_traitsIcEENS_9allocatorIcEEEEbxydS9_NS2_14adl_serializerENS5_IhNS9_IhEEEEEEEmmB8ne180100Ev, symObjAddr: 0xFB54, symBinAddr: 0x10001236C, symSize: 0x20 }
  - { offset: 0x46BBF, size: 0x8, addend: 0x0, symName: __ZNSt3__116reverse_iteratorINS0_IPN8nlohmann16json_abi_v3_11_210basic_jsonINS_3mapENS_6vectorENS_12basic_stringIcNS_11char_traitsIcEENS_9allocatorIcEEEEbxydS9_NS2_14adl_serializerENS5_IhNS9_IhEEEEEEEEEC2B8ne180100ESH_, symObjAddr: 0xFB74, symBinAddr: 0x10001238C, symSize: 0x2C }
  - { offset: 0x46BF7, size: 0x8, addend: 0x0, symName: __ZNSt3__116reverse_iteratorIPN8nlohmann16json_abi_v3_11_210basic_jsonINS_3mapENS_6vectorENS_12basic_stringIcNS_11char_traitsIcEENS_9allocatorIcEEEEbxydS9_NS2_14adl_serializerENS5_IhNS9_IhEEEEEEEC2B8ne180100ESG_, symObjAddr: 0xFBA0, symBinAddr: 0x1000123B8, symSize: 0x28 }
  - { offset: 0x46C2F, size: 0x8, addend: 0x0, symName: __ZNSt3__117__compressed_pairIPN8nlohmann16json_abi_v3_11_210basic_jsonINS_3mapENS_6vectorENS_12basic_stringIcNS_11char_traitsIcEENS_9allocatorIcEEEEbxydS9_NS2_14adl_serializerENS5_IhNS9_IhEEEEEENS9_ISF_EEE5firstB8ne180100Ev, symObjAddr: 0xFBC8, symBinAddr: 0x1000123E0, symSize: 0x24 }
  - { offset: 0x46C55, size: 0x8, addend: 0x0, symName: __ZNSt3__114__split_bufferIN8nlohmann16json_abi_v3_11_210basic_jsonINS_3mapENS_6vectorENS_12basic_stringIcNS_11char_traitsIcEENS_9allocatorIcEEEEbxydS9_NS2_14adl_serializerENS5_IhNS9_IhEEEEEERNS9_ISF_EEED2Ev, symObjAddr: 0xFBEC, symBinAddr: 0x100012404, symSize: 0x8C }
  - { offset: 0x46C81, size: 0x8, addend: 0x0, symName: __ZNSt3__114__split_bufferIN8nlohmann16json_abi_v3_11_210basic_jsonINS_3mapENS_6vectorENS_12basic_stringIcNS_11char_traitsIcEENS_9allocatorIcEEEEbxydS9_NS2_14adl_serializerENS5_IhNS9_IhEEEEEERNS9_ISF_EEE5clearB8ne180100Ev, symObjAddr: 0xFC78, symBinAddr: 0x100012490, symSize: 0x28 }
  - { offset: 0x46CA7, size: 0x8, addend: 0x0, symName: __ZNSt3__116allocator_traitsINS_9allocatorIN8nlohmann16json_abi_v3_11_210basic_jsonINS_3mapENS_6vectorENS_12basic_stringIcNS_11char_traitsIcEENS1_IcEEEEbxydS1_NS3_14adl_serializerENS6_IhNS1_IhEEEEEEEEE10deallocateB8ne180100ERSG_PSF_m, symObjAddr: 0xFCA0, symBinAddr: 0x1000124B8, symSize: 0x34 }
  - { offset: 0x46CE9, size: 0x8, addend: 0x0, symName: __ZNKSt3__114__split_bufferIN8nlohmann16json_abi_v3_11_210basic_jsonINS_3mapENS_6vectorENS_12basic_stringIcNS_11char_traitsIcEENS_9allocatorIcEEEEbxydS9_NS2_14adl_serializerENS5_IhNS9_IhEEEEEERNS9_ISF_EEE8capacityB8ne180100Ev, symObjAddr: 0xFCD4, symBinAddr: 0x1000124EC, symSize: 0x40 }
  - { offset: 0x46D0F, size: 0x8, addend: 0x0, symName: __ZNSt3__114__split_bufferIN8nlohmann16json_abi_v3_11_210basic_jsonINS_3mapENS_6vectorENS_12basic_stringIcNS_11char_traitsIcEENS_9allocatorIcEEEEbxydS9_NS2_14adl_serializerENS5_IhNS9_IhEEEEEERNS9_ISF_EEE17__destruct_at_endB8ne180100EPSF_, symObjAddr: 0xFD14, symBinAddr: 0x10001252C, symSize: 0x2C }
  - { offset: 0x46D43, size: 0x8, addend: 0x0, symName: __ZNSt3__114__split_bufferIN8nlohmann16json_abi_v3_11_210basic_jsonINS_3mapENS_6vectorENS_12basic_stringIcNS_11char_traitsIcEENS_9allocatorIcEEEEbxydS9_NS2_14adl_serializerENS5_IhNS9_IhEEEEEERNS9_ISF_EEE17__destruct_at_endB8ne180100EPSF_NS_17integral_constantIbLb0EEE, symObjAddr: 0xFD40, symBinAddr: 0x100012558, symSize: 0x80 }
  - { offset: 0x46D84, size: 0x8, addend: 0x0, symName: __ZNSt3__19allocatorIN8nlohmann16json_abi_v3_11_210basic_jsonINS_3mapENS_6vectorENS_12basic_stringIcNS_11char_traitsIcEENS0_IcEEEEbxydS0_NS2_14adl_serializerENS5_IhNS0_IhEEEEEEE10deallocateB8ne180100EPSE_m, symObjAddr: 0xFDC0, symBinAddr: 0x1000125D8, symSize: 0x40 }
  - { offset: 0x46DC6, size: 0x8, addend: 0x0, symName: __ZNKSt3__114__split_bufferIN8nlohmann16json_abi_v3_11_210basic_jsonINS_3mapENS_6vectorENS_12basic_stringIcNS_11char_traitsIcEENS_9allocatorIcEEEEbxydS9_NS2_14adl_serializerENS5_IhNS9_IhEEEEEERNS9_ISF_EEE9__end_capB8ne180100Ev, symObjAddr: 0xFE00, symBinAddr: 0x100012618, symSize: 0x28 }
  - { offset: 0x46DEC, size: 0x8, addend: 0x0, symName: __ZNKSt3__117__compressed_pairIPN8nlohmann16json_abi_v3_11_210basic_jsonINS_3mapENS_6vectorENS_12basic_stringIcNS_11char_traitsIcEENS_9allocatorIcEEEEbxydS9_NS2_14adl_serializerENS5_IhNS9_IhEEEEEERNS9_ISF_EEE5firstB8ne180100Ev, symObjAddr: 0xFE28, symBinAddr: 0x100012640, symSize: 0x24 }
  - { offset: 0x46E3A, size: 0x8, addend: 0x0, symName: __ZNKSt3__111__move_loopINS_17_ClassicAlgPolicyEEclB8ne180100IPN8nlohmann16json_abi_v3_11_210basic_jsonINS_3mapENS_6vectorENS_12basic_stringIcNS_11char_traitsIcEENS_9allocatorIcEEEEbxydSC_NS5_14adl_serializerENS8_IhNSC_IhEEEEEESJ_NS_20back_insert_iteratorINS8_ISI_NSC_ISI_EEEEEEEENS_4pairIT_T1_EESP_T0_SQ_, symObjAddr: 0x1005C, symBinAddr: 0x100012874, symSize: 0x98 }
  - { offset: 0x46EC8, size: 0x8, addend: 0x0, symName: __ZNSt3__14pairIPN8nlohmann16json_abi_v3_11_210basic_jsonINS_3mapENS_6vectorENS_12basic_stringIcNS_11char_traitsIcEENS_9allocatorIcEEEEbxydS9_NS2_14adl_serializerENS5_IhNS9_IhEEEEEESG_EC1B8ne180100ISG_SG_Li0EEEOT_OT0_, symObjAddr: 0x10254, symBinAddr: 0x100012A6C, symSize: 0x3C }
  - { offset: 0x46F26, size: 0x8, addend: 0x0, symName: __ZNSt3__14pairIPN8nlohmann16json_abi_v3_11_210basic_jsonINS_3mapENS_6vectorENS_12basic_stringIcNS_11char_traitsIcEENS_9allocatorIcEEEEbxydS9_NS2_14adl_serializerENS5_IhNS9_IhEEEEEESG_EC2B8ne180100ISG_SG_Li0EEEOT_OT0_, symObjAddr: 0x10290, symBinAddr: 0x100012AA8, symSize: 0x34 }
  - { offset: 0x46F84, size: 0x8, addend: 0x0, symName: __ZNSt3__118__unwrap_iter_implINS_11__wrap_iterIPN8nlohmann16json_abi_v3_11_210basic_jsonINS_3mapENS_6vectorENS_12basic_stringIcNS_11char_traitsIcEENS_9allocatorIcEEEEbxydSA_NS3_14adl_serializerENS6_IhNSA_IhEEEEEEEELb1EE8__unwrapB8ne180100ESI_, symObjAddr: 0x102C4, symBinAddr: 0x100012ADC, symSize: 0x28 }
  - { offset: 0x46FB3, size: 0x8, addend: 0x0, symName: __ZNSt3__119__to_address_helperINS_11__wrap_iterIPN8nlohmann16json_abi_v3_11_210basic_jsonINS_3mapENS_6vectorENS_12basic_stringIcNS_11char_traitsIcEENS_9allocatorIcEEEEbxydSA_NS3_14adl_serializerENS6_IhNSA_IhEEEEEEEEvE6__callB8ne180100ERKSI_, symObjAddr: 0x10310, symBinAddr: 0x100012B28, symSize: 0x30 }
  - { offset: 0x46FD6, size: 0x8, addend: 0x0, symName: __ZNSt3__114pointer_traitsINS_11__wrap_iterIPN8nlohmann16json_abi_v3_11_210basic_jsonINS_3mapENS_6vectorENS_12basic_stringIcNS_11char_traitsIcEENS_9allocatorIcEEEEbxydSA_NS3_14adl_serializerENS6_IhNSA_IhEEEEEEEEE10to_addressB8ne180100ESI_, symObjAddr: 0x10340, symBinAddr: 0x100012B58, symSize: 0x2C }
  - { offset: 0x46FF9, size: 0x8, addend: 0x0, symName: __ZNKSt3__111__wrap_iterIPN8nlohmann16json_abi_v3_11_210basic_jsonINS_3mapENS_6vectorENS_12basic_stringIcNS_11char_traitsIcEENS_9allocatorIcEEEEbxydS9_NS2_14adl_serializerENS5_IhNS9_IhEEEEEEE4baseB8ne180100Ev, symObjAddr: 0x1036C, symBinAddr: 0x100012B84, symSize: 0x18 }
  - { offset: 0x47025, size: 0x8, addend: 0x0, symName: __ZNSt3__18_IterOpsINS_17_ClassicAlgPolicyEE11__iter_moveB8ne180100IRPN8nlohmann16json_abi_v3_11_210basic_jsonINS_3mapENS_6vectorENS_12basic_stringIcNS_11char_traitsIcEENS_9allocatorIcEEEEbxydSC_NS5_14adl_serializerENS8_IhNSC_IhEEEEEELi0EEEDTclsr3stdE4movedeclsr3stdE7declvalIRT_EEEEOSL_, symObjAddr: 0x10384, symBinAddr: 0x100012B9C, symSize: 0x28 }
  - { offset: 0x47057, size: 0x8, addend: 0x0, symName: __ZNSt3__120back_insert_iteratorINS_6vectorIN8nlohmann16json_abi_v3_11_210basic_jsonINS_3mapES1_NS_12basic_stringIcNS_11char_traitsIcEENS_9allocatorIcEEEEbxydS9_NS3_14adl_serializerENS1_IhNS9_IhEEEEEENS9_ISF_EEEEEdeB8ne180100Ev, symObjAddr: 0x103AC, symBinAddr: 0x100012BC4, symSize: 0x14 }
  - { offset: 0x4707D, size: 0x8, addend: 0x0, symName: __ZNSt3__120back_insert_iteratorINS_6vectorIN8nlohmann16json_abi_v3_11_210basic_jsonINS_3mapES1_NS_12basic_stringIcNS_11char_traitsIcEENS_9allocatorIcEEEEbxydS9_NS3_14adl_serializerENS1_IhNS9_IhEEEEEENS9_ISF_EEEEEaSB8ne180100EOSF_, symObjAddr: 0x103C0, symBinAddr: 0x100012BD8, symSize: 0x38 }
  - { offset: 0x470B1, size: 0x8, addend: 0x0, symName: __ZNSt3__120back_insert_iteratorINS_6vectorIN8nlohmann16json_abi_v3_11_210basic_jsonINS_3mapES1_NS_12basic_stringIcNS_11char_traitsIcEENS_9allocatorIcEEEEbxydS9_NS3_14adl_serializerENS1_IhNS9_IhEEEEEENS9_ISF_EEEEEppB8ne180100Ev, symObjAddr: 0x103F8, symBinAddr: 0x100012C10, symSize: 0x14 }
  - { offset: 0x470D7, size: 0x8, addend: 0x0, symName: __ZNSt3__18_IterOpsINS_17_ClassicAlgPolicyEE25__validate_iter_referenceB8ne180100IRPN8nlohmann16json_abi_v3_11_210basic_jsonINS_3mapENS_6vectorENS_12basic_stringIcNS_11char_traitsIcEENS_9allocatorIcEEEEbxydSC_NS5_14adl_serializerENS8_IhNSC_IhEEEEEEEEvv, symObjAddr: 0x10444, symBinAddr: 0x100012C5C, symSize: 0x4 }
  - { offset: 0x470FB, size: 0x8, addend: 0x0, symName: __ZNSt3__14pairIPN8nlohmann16json_abi_v3_11_210basic_jsonINS_3mapENS_6vectorENS_12basic_stringIcNS_11char_traitsIcEENS_9allocatorIcEEEEbxydS9_NS2_14adl_serializerENS5_IhNS9_IhEEEEEENS_20back_insert_iteratorINS5_ISF_NS9_ISF_EEEEEEEC1B8ne180100ISG_SK_Li0EEEOT_OT0_, symObjAddr: 0x10448, symBinAddr: 0x100012C60, symSize: 0x3C }
  - { offset: 0x47159, size: 0x8, addend: 0x0, symName: __ZNSt3__14pairIPN8nlohmann16json_abi_v3_11_210basic_jsonINS_3mapENS_6vectorENS_12basic_stringIcNS_11char_traitsIcEENS_9allocatorIcEEEEbxydS9_NS2_14adl_serializerENS5_IhNS9_IhEEEEEENS_20back_insert_iteratorINS5_ISF_NS9_ISF_EEEEEEEC2B8ne180100ISG_SK_Li0EEEOT_OT0_, symObjAddr: 0x10484, symBinAddr: 0x100012C9C, symSize: 0x34 }
  - { offset: 0x471B7, size: 0x8, addend: 0x0, symName: __ZNSt3__118__unwrap_iter_implINS_20back_insert_iteratorINS_6vectorIN8nlohmann16json_abi_v3_11_210basic_jsonINS_3mapES2_NS_12basic_stringIcNS_11char_traitsIcEENS_9allocatorIcEEEEbxydSA_NS4_14adl_serializerENS2_IhNSA_IhEEEEEENSA_ISG_EEEEEELb0EE8__unwrapB8ne180100ESJ_, symObjAddr: 0x104B8, symBinAddr: 0x100012CD0, symSize: 0x1C }
  - { offset: 0x471FD, size: 0x8, addend: 0x0, symName: __ZNSt3__14pairINS_11__wrap_iterIPN8nlohmann16json_abi_v3_11_210basic_jsonINS_3mapENS_6vectorENS_12basic_stringIcNS_11char_traitsIcEENS_9allocatorIcEEEEbxydSA_NS3_14adl_serializerENS6_IhNSA_IhEEEEEEEENS_20back_insert_iteratorINS6_ISG_NSA_ISG_EEEEEEEC1B8ne180100ISI_SM_Li0EEEOT_OT0_, symObjAddr: 0x104D4, symBinAddr: 0x100012CEC, symSize: 0x3C }
  - { offset: 0x4725B, size: 0x8, addend: 0x0, symName: __ZNSt3__14pairINS_11__wrap_iterIPN8nlohmann16json_abi_v3_11_210basic_jsonINS_3mapENS_6vectorENS_12basic_stringIcNS_11char_traitsIcEENS_9allocatorIcEEEEbxydSA_NS3_14adl_serializerENS6_IhNSA_IhEEEEEEEENS_20back_insert_iteratorINS6_ISG_NSA_ISG_EEEEEEEC2B8ne180100ISI_SM_Li0EEEOT_OT0_, symObjAddr: 0x10510, symBinAddr: 0x100012D28, symSize: 0x34 }
  - { offset: 0x472B9, size: 0x8, addend: 0x0, symName: __ZNSt3__118__unwrap_iter_implINS_11__wrap_iterIPN8nlohmann16json_abi_v3_11_210basic_jsonINS_3mapENS_6vectorENS_12basic_stringIcNS_11char_traitsIcEENS_9allocatorIcEEEEbxydSA_NS3_14adl_serializerENS6_IhNSA_IhEEEEEEEELb1EE8__rewrapB8ne180100ESI_SH_, symObjAddr: 0x10590, symBinAddr: 0x100012DA8, symSize: 0x5C }
  - { offset: 0x472EA, size: 0x8, addend: 0x0, symName: __ZNKSt3__111__wrap_iterIPN8nlohmann16json_abi_v3_11_210basic_jsonINS_3mapENS_6vectorENS_12basic_stringIcNS_11char_traitsIcEENS_9allocatorIcEEEEbxydS9_NS2_14adl_serializerENS5_IhNS9_IhEEEEEEEplB8ne180100El, symObjAddr: 0x105EC, symBinAddr: 0x100012E04, symSize: 0x3C }
  - { offset: 0x4732C, size: 0x8, addend: 0x0, symName: __ZNSt3__111__wrap_iterIPN8nlohmann16json_abi_v3_11_210basic_jsonINS_3mapENS_6vectorENS_12basic_stringIcNS_11char_traitsIcEENS_9allocatorIcEEEEbxydS9_NS2_14adl_serializerENS5_IhNS9_IhEEEEEEEpLB8ne180100El, symObjAddr: 0x10628, symBinAddr: 0x100012E40, symSize: 0x28 }
  - { offset: 0x47360, size: 0x8, addend: 0x0, symName: __ZNSt3__118__unwrap_iter_implINS_20back_insert_iteratorINS_6vectorIN8nlohmann16json_abi_v3_11_210basic_jsonINS_3mapES2_NS_12basic_stringIcNS_11char_traitsIcEENS_9allocatorIcEEEEbxydSA_NS4_14adl_serializerENS2_IhNSA_IhEEEEEENSA_ISG_EEEEEELb0EE8__rewrapB8ne180100ESJ_SJ_, symObjAddr: 0x10650, symBinAddr: 0x100012E68, symSize: 0x20 }
  - { offset: 0x4738E, size: 0x8, addend: 0x0, symName: __ZNSt3__16vectorIN8nlohmann16json_abi_v3_11_210basic_jsonINS_3mapES0_NS_12basic_stringIcNS_11char_traitsIcEENS_9allocatorIcEEEEbxydS8_NS2_14adl_serializerENS0_IhNS8_IhEEEEEENS8_ISE_EEE11__make_iterB8ne180100EPSE_, symObjAddr: 0x10670, symBinAddr: 0x100012E88, symSize: 0x30 }
  - { offset: 0x473C3, size: 0x8, addend: 0x0, symName: __ZNSt3__111__wrap_iterIPN8nlohmann16json_abi_v3_11_210basic_jsonINS_3mapENS_6vectorENS_12basic_stringIcNS_11char_traitsIcEENS_9allocatorIcEEEEbxydS9_NS2_14adl_serializerENS5_IhNS9_IhEEEEEEEC1B8ne180100ESG_, symObjAddr: 0x106A0, symBinAddr: 0x100012EB8, symSize: 0x34 }
  - { offset: 0x473FB, size: 0x8, addend: 0x0, symName: __ZNSt3__111__wrap_iterIPN8nlohmann16json_abi_v3_11_210basic_jsonINS_3mapENS_6vectorENS_12basic_stringIcNS_11char_traitsIcEENS_9allocatorIcEEEEbxydS9_NS2_14adl_serializerENS5_IhNS9_IhEEEEEEEC2B8ne180100ESG_, symObjAddr: 0x106D4, symBinAddr: 0x100012EEC, symSize: 0x20 }
  - { offset: 0x47433, size: 0x8, addend: 0x0, symName: __ZNSt3__120back_insert_iteratorINS_6vectorIN8nlohmann16json_abi_v3_11_210basic_jsonINS_3mapES1_NS_12basic_stringIcNS_11char_traitsIcEENS_9allocatorIcEEEEbxydS9_NS3_14adl_serializerENS1_IhNS9_IhEEEEEENS9_ISF_EEEEEC1B8ne180100ERSH_, symObjAddr: 0x106F4, symBinAddr: 0x100012F0C, symSize: 0x34 }
  - { offset: 0x4746B, size: 0x8, addend: 0x0, symName: __ZNSt3__120back_insert_iteratorINS_6vectorIN8nlohmann16json_abi_v3_11_210basic_jsonINS_3mapES1_NS_12basic_stringIcNS_11char_traitsIcEENS_9allocatorIcEEEEbxydS9_NS3_14adl_serializerENS1_IhNS9_IhEEEEEENS9_ISF_EEEEEC2B8ne180100ERSH_, symObjAddr: 0x10728, symBinAddr: 0x100012F40, symSize: 0x20 }
  - { offset: 0x474A3, size: 0x8, addend: 0x0, symName: __ZNKSt3__16__treeINS_12__value_typeINS_12basic_stringIcNS_11char_traitsIcEENS_9allocatorIcEEEEN8nlohmann16json_abi_v3_11_210basic_jsonINS_3mapENS_6vectorES7_bxydS5_NS9_14adl_serializerENSC_IhNS5_IhEEEEEEEENS_19__map_value_compareIS7_SH_NS_4lessIvEELb1EEENS5_ISH_EEE4sizeB8ne180100Ev, symObjAddr: 0x10748, symBinAddr: 0x100012F60, symSize: 0x28 }
  - { offset: 0x474C9, size: 0x8, addend: 0x0, symName: __ZNKSt3__117__compressed_pairImNS_19__map_value_compareINS_12basic_stringIcNS_11char_traitsIcEENS_9allocatorIcEEEENS_12__value_typeIS7_N8nlohmann16json_abi_v3_11_210basic_jsonINS_3mapENS_6vectorES7_bxydS5_NSA_14adl_serializerENSD_IhNS5_IhEEEEEEEENS_4lessIvEELb1EEEE5firstB8ne180100Ev, symObjAddr: 0x10770, symBinAddr: 0x100012F88, symSize: 0x24 }
  - { offset: 0x474EF, size: 0x8, addend: 0x0, symName: __ZNSt3__16__treeINS_12__value_typeINS_12basic_stringIcNS_11char_traitsIcEENS_9allocatorIcEEEEN8nlohmann16json_abi_v3_11_210basic_jsonINS_3mapENS_6vectorES7_bxydS5_NS9_14adl_serializerENSC_IhNS5_IhEEEEEEEENS_19__map_value_compareIS7_SH_NS_4lessIvEELb1EEENS5_ISH_EEE5beginB8ne180100Ev, symObjAddr: 0x10794, symBinAddr: 0x100012FAC, symSize: 0x34 }
  - { offset: 0x47515, size: 0x8, addend: 0x0, symName: __ZNSt3__114__map_iteratorINS_15__tree_iteratorINS_12__value_typeINS_12basic_stringIcNS_11char_traitsIcEENS_9allocatorIcEEEEN8nlohmann16json_abi_v3_11_210basic_jsonINS_3mapENS_6vectorES8_bxydS6_NSA_14adl_serializerENSD_IhNS6_IhEEEEEEEEPNS_11__tree_nodeISI_PvEElEEEC1B8ne180100ESN_, symObjAddr: 0x107C8, symBinAddr: 0x100012FE0, symSize: 0x34 }
  - { offset: 0x4754E, size: 0x8, addend: 0x0, symName: __ZNSt3__16__treeINS_12__value_typeINS_12basic_stringIcNS_11char_traitsIcEENS_9allocatorIcEEEEN8nlohmann16json_abi_v3_11_210basic_jsonINS_3mapENS_6vectorES7_bxydS5_NS9_14adl_serializerENSC_IhNS5_IhEEEEEEEENS_19__map_value_compareIS7_SH_NS_4lessIvEELb1EEENS5_ISH_EEE12__begin_nodeB8ne180100Ev, symObjAddr: 0x107FC, symBinAddr: 0x100013014, symSize: 0x14 }
  - { offset: 0x47574, size: 0x8, addend: 0x0, symName: __ZNSt3__115__tree_iteratorINS_12__value_typeINS_12basic_stringIcNS_11char_traitsIcEENS_9allocatorIcEEEEN8nlohmann16json_abi_v3_11_210basic_jsonINS_3mapENS_6vectorES7_bxydS5_NS9_14adl_serializerENSC_IhNS5_IhEEEEEEEEPNS_11__tree_nodeISH_PvEElEC1B8ne180100EPNS_15__tree_end_nodeIPNS_16__tree_node_baseISJ_EEEE, symObjAddr: 0x10810, symBinAddr: 0x100013028, symSize: 0x34 }
  - { offset: 0x475AD, size: 0x8, addend: 0x0, symName: __ZNSt3__115__tree_iteratorINS_12__value_typeINS_12basic_stringIcNS_11char_traitsIcEENS_9allocatorIcEEEEN8nlohmann16json_abi_v3_11_210basic_jsonINS_3mapENS_6vectorES7_bxydS5_NS9_14adl_serializerENSC_IhNS5_IhEEEEEEEEPNS_11__tree_nodeISH_PvEElEC2B8ne180100EPNS_15__tree_end_nodeIPNS_16__tree_node_baseISJ_EEEE, symObjAddr: 0x10844, symBinAddr: 0x10001305C, symSize: 0x20 }
  - { offset: 0x475E6, size: 0x8, addend: 0x0, symName: __ZNSt3__114__map_iteratorINS_15__tree_iteratorINS_12__value_typeINS_12basic_stringIcNS_11char_traitsIcEENS_9allocatorIcEEEEN8nlohmann16json_abi_v3_11_210basic_jsonINS_3mapENS_6vectorES8_bxydS6_NSA_14adl_serializerENSD_IhNS6_IhEEEEEEEEPNS_11__tree_nodeISI_PvEElEEEC2B8ne180100ESN_, symObjAddr: 0x10864, symBinAddr: 0x10001307C, symSize: 0x20 }
  - { offset: 0x4761F, size: 0x8, addend: 0x0, symName: __ZNSt3__16__treeINS_12__value_typeINS_12basic_stringIcNS_11char_traitsIcEENS_9allocatorIcEEEEN8nlohmann16json_abi_v3_11_210basic_jsonINS_3mapENS_6vectorES7_bxydS5_NS9_14adl_serializerENSC_IhNS5_IhEEEEEEEENS_19__map_value_compareIS7_SH_NS_4lessIvEELb1EEENS5_ISH_EEE3endB8ne180100Ev, symObjAddr: 0x10884, symBinAddr: 0x10001309C, symSize: 0x34 }
  - { offset: 0x47645, size: 0x8, addend: 0x0, symName: __ZNSt3__16__treeINS_12__value_typeINS_12basic_stringIcNS_11char_traitsIcEENS_9allocatorIcEEEEN8nlohmann16json_abi_v3_11_210basic_jsonINS_3mapENS_6vectorES7_bxydS5_NS9_14adl_serializerENSC_IhNS5_IhEEEEEEEENS_19__map_value_compareIS7_SH_NS_4lessIvEELb1EEENS5_ISH_EEE10__end_nodeB8ne180100Ev, symObjAddr: 0x108B8, symBinAddr: 0x1000130D0, symSize: 0x2C }
  - { offset: 0x4766B, size: 0x8, addend: 0x0, symName: __ZNSt3__114pointer_traitsIPNS_15__tree_end_nodeIPNS_16__tree_node_baseIPvEEEEE10pointer_toB8ne180100ERS6_, symObjAddr: 0x108E4, symBinAddr: 0x1000130FC, symSize: 0x14 }
  - { offset: 0x4768E, size: 0x8, addend: 0x0, symName: __ZNSt3__117__compressed_pairINS_15__tree_end_nodeIPNS_16__tree_node_baseIPvEEEENS_9allocatorINS_11__tree_nodeINS_12__value_typeINS_12basic_stringIcNS_11char_traitsIcEENS7_IcEEEEN8nlohmann16json_abi_v3_11_210basic_jsonINS_3mapENS_6vectorESE_bxydS7_NSG_14adl_serializerENSJ_IhNS7_IhEEEEEEEES3_EEEEE5firstB8ne180100Ev, symObjAddr: 0x108F8, symBinAddr: 0x100013110, symSize: 0x24 }
  - { offset: 0x476B4, size: 0x8, addend: 0x0, symName: __ZNSt3__122__compressed_pair_elemINS_15__tree_end_nodeIPNS_16__tree_node_baseIPvEEEELi0ELb0EE5__getB8ne180100Ev, symObjAddr: 0x1091C, symBinAddr: 0x100013134, symSize: 0x14 }
  - { offset: 0x476DA, size: 0x8, addend: 0x0, symName: __ZNKSt3__115__tree_iteratorINS_12__value_typeINS_12basic_stringIcNS_11char_traitsIcEENS_9allocatorIcEEEEN8nlohmann16json_abi_v3_11_210basic_jsonINS_3mapENS_6vectorES7_bxydS5_NS9_14adl_serializerENSC_IhNS5_IhEEEEEEEEPNS_11__tree_nodeISH_PvEElEptB8ne180100Ev, symObjAddr: 0x10994, symBinAddr: 0x1000131AC, symSize: 0x2C }
  - { offset: 0x47700, size: 0x8, addend: 0x0, symName: __ZNSt3__112__value_typeINS_12basic_stringIcNS_11char_traitsIcEENS_9allocatorIcEEEEN8nlohmann16json_abi_v3_11_210basic_jsonINS_3mapENS_6vectorES6_bxydS4_NS8_14adl_serializerENSB_IhNS4_IhEEEEEEE11__get_valueB8ne180100Ev, symObjAddr: 0x109C0, symBinAddr: 0x1000131D8, symSize: 0x24 }
  - { offset: 0x47726, size: 0x8, addend: 0x0, symName: __ZNSt3__114pointer_traitsIPNS_12__value_typeINS_12basic_stringIcNS_11char_traitsIcEENS_9allocatorIcEEEEN8nlohmann16json_abi_v3_11_210basic_jsonINS_3mapENS_6vectorES7_bxydS5_NS9_14adl_serializerENSC_IhNS5_IhEEEEEEEEE10pointer_toB8ne180100ERSH_, symObjAddr: 0x109E4, symBinAddr: 0x1000131FC, symSize: 0x14 }
  - { offset: 0x47749, size: 0x8, addend: 0x0, symName: __ZNKSt3__115__tree_iteratorINS_12__value_typeINS_12basic_stringIcNS_11char_traitsIcEENS_9allocatorIcEEEEN8nlohmann16json_abi_v3_11_210basic_jsonINS_3mapENS_6vectorES7_bxydS5_NS9_14adl_serializerENSC_IhNS5_IhEEEEEEEEPNS_11__tree_nodeISH_PvEElE8__get_npB8ne180100Ev, symObjAddr: 0x109F8, symBinAddr: 0x100013210, symSize: 0x18 }
  - { offset: 0x4776F, size: 0x8, addend: 0x0, symName: __ZNSt3__16vectorIN8nlohmann16json_abi_v3_11_210basic_jsonINS_3mapES0_NS_12basic_stringIcNS_11char_traitsIcEENS_9allocatorIcEEEEbxydS8_NS2_14adl_serializerENS0_IhNS8_IhEEEEEENS8_ISE_EEE22__construct_one_at_endB8ne180100IJSE_EEEvDpOT_, symObjAddr: 0x10A48, symBinAddr: 0x100013260, symSize: 0x90 }
  - { offset: 0x477BE, size: 0x8, addend: 0x0, symName: __ZNSt3__16vectorIN8nlohmann16json_abi_v3_11_210basic_jsonINS_3mapES0_NS_12basic_stringIcNS_11char_traitsIcEENS_9allocatorIcEEEEbxydS8_NS2_14adl_serializerENS0_IhNS8_IhEEEEEENS8_ISE_EEE21__push_back_slow_pathISE_EEPSE_OT_, symObjAddr: 0x10AD8, symBinAddr: 0x1000132F0, symSize: 0xE8 }
  - { offset: 0x47838, size: 0x8, addend: 0x0, symName: __ZNSt3__16vectorIN8nlohmann16json_abi_v3_11_210basic_jsonINS_3mapES0_NS_12basic_stringIcNS_11char_traitsIcEENS_9allocatorIcEEEEbxydS8_NS2_14adl_serializerENS0_IhNS8_IhEEEEEENS8_ISE_EEE21_ConstructTransactionC1B8ne180100ERSG_m, symObjAddr: 0x10BC0, symBinAddr: 0x1000133D8, symSize: 0x3C }
  - { offset: 0x47880, size: 0x8, addend: 0x0, symName: __ZNSt3__16vectorIN8nlohmann16json_abi_v3_11_210basic_jsonINS_3mapES0_NS_12basic_stringIcNS_11char_traitsIcEENS_9allocatorIcEEEEbxydS8_NS2_14adl_serializerENS0_IhNS8_IhEEEEEENS8_ISE_EEE21_ConstructTransactionD1B8ne180100Ev, symObjAddr: 0x10BFC, symBinAddr: 0x100013414, symSize: 0x2C }
  - { offset: 0x478AA, size: 0x8, addend: 0x0, symName: __ZNSt3__16vectorIN8nlohmann16json_abi_v3_11_210basic_jsonINS_3mapES0_NS_12basic_stringIcNS_11char_traitsIcEENS_9allocatorIcEEEEbxydS8_NS2_14adl_serializerENS0_IhNS8_IhEEEEEENS8_ISE_EEE21_ConstructTransactionC2B8ne180100ERSG_m, symObjAddr: 0x10C28, symBinAddr: 0x100013440, symSize: 0x44 }
  - { offset: 0x478F2, size: 0x8, addend: 0x0, symName: __ZNSt3__16vectorIN8nlohmann16json_abi_v3_11_210basic_jsonINS_3mapES0_NS_12basic_stringIcNS_11char_traitsIcEENS_9allocatorIcEEEEbxydS8_NS2_14adl_serializerENS0_IhNS8_IhEEEEEENS8_ISE_EEE21_ConstructTransactionD2B8ne180100Ev, symObjAddr: 0x10C6C, symBinAddr: 0x100013484, symSize: 0x20 }
  - { offset: 0x4791C, size: 0x8, addend: 0x0, symName: __ZNKSt3__16vectorIN8nlohmann16json_abi_v3_11_210basic_jsonINS_3mapES0_NS_12basic_stringIcNS_11char_traitsIcEENS_9allocatorIcEEEEbxydS8_NS2_14adl_serializerENS0_IhNS8_IhEEEEEENS8_ISE_EEE11__recommendB8ne180100Em, symObjAddr: 0x10C8C, symBinAddr: 0x1000134A4, symSize: 0xB4 }
  - { offset: 0x47971, size: 0x8, addend: 0x0, symName: __ZNSt3__115__tree_iteratorINS_12__value_typeINS_12basic_stringIcNS_11char_traitsIcEENS_9allocatorIcEEEEN8nlohmann16json_abi_v3_11_210basic_jsonINS_3mapENS_6vectorES7_bxydS5_NS9_14adl_serializerENSC_IhNS5_IhEEEEEEEEPNS_11__tree_nodeISH_PvEElEppB8ne180100Ev, symObjAddr: 0x10D40, symBinAddr: 0x100013558, symSize: 0x38 }
  - { offset: 0x47997, size: 0x8, addend: 0x0, symName: __ZNKSt3__116__tree_node_baseIPvE15__parent_unsafeB8ne180100Ev, symObjAddr: 0x10E74, symBinAddr: 0x10001368C, symSize: 0x18 }
  - { offset: 0x479BD, size: 0x8, addend: 0x0, symName: __ZN8nlohmann16json_abi_v3_11_210basic_jsonINSt3__13mapENS2_6vectorENS2_12basic_stringIcNS2_11char_traitsIcEENS2_9allocatorIcEEEEbxydS8_NS0_14adl_serializerENS4_IhNS8_IhEEEEEC2EOSE_, symObjAddr: 0x10E8C, symBinAddr: 0x1000136A4, symSize: 0x8C }
  - { offset: 0x479F6, size: 0x8, addend: 0x0, symName: __ZN8nlohmann16json_abi_v3_11_210basic_jsonINSt3__13mapENS2_6vectorENS2_12basic_stringIcNS2_11char_traitsIcEENS2_9allocatorIcEEEEbxydS8_NS0_14adl_serializerENS4_IhNS8_IhEEEEE11set_parentsEv, symObjAddr: 0x10F18, symBinAddr: 0x100013730, symSize: 0x10 }
  - { offset: 0x47A1C, size: 0x8, addend: 0x0, symName: __ZNSt3__16vectorIN8nlohmann16json_abi_v3_11_210basic_jsonINS_3mapES0_NS_12basic_stringIcNS_11char_traitsIcEENS_9allocatorIcEEEEbxydS8_NS2_14adl_serializerENS0_IhNS8_IhEEEEEENS8_ISE_EEE17__destruct_at_endB8ne180100EPSE_, symObjAddr: 0x10F28, symBinAddr: 0x100013740, symSize: 0x4C }
  - { offset: 0x47A60, size: 0x8, addend: 0x0, symName: __ZNSt3__16vectorIN8nlohmann16json_abi_v3_11_210basic_jsonINS_3mapES0_NS_12basic_stringIcNS_11char_traitsIcEENS_9allocatorIcEEEEbxydS8_NS2_14adl_serializerENS0_IhNS8_IhEEEEEENS8_ISE_EEE22__base_destruct_at_endB8ne180100EPSE_, symObjAddr: 0x10F74, symBinAddr: 0x10001378C, symSize: 0x8C }
  - { offset: 0x47AA4, size: 0x8, addend: 0x0, symName: __ZNKSt3__16vectorIN8nlohmann16json_abi_v3_11_210basic_jsonINS_3mapES0_NS_12basic_stringIcNS_11char_traitsIcEENS_9allocatorIcEEEEbxydS8_NS2_14adl_serializerENS0_IhNS8_IhEEEEEENS8_ISE_EEE17__annotate_shrinkB8ne180100Em, symObjAddr: 0x11000, symBinAddr: 0x100013818, symSize: 0x14 }
  - { offset: 0x47AD9, size: 0x8, addend: 0x0, symName: __ZNSt3__16vectorIN8nlohmann16json_abi_v3_11_210basic_jsonINS_3mapES0_NS_12basic_stringIcNS_11char_traitsIcEENS_9allocatorIcEEEEbxydS8_NS2_14adl_serializerENS0_IhNS8_IhEEEEEENS8_ISE_EEE7__clearB8ne180100Ev, symObjAddr: 0x11014, symBinAddr: 0x10001382C, symSize: 0x28 }
  - { offset: 0x47AFF, size: 0x8, addend: 0x0, symName: __ZNSt3__16__treeINS_12__value_typeINS_12basic_stringIcNS_11char_traitsIcEENS_9allocatorIcEEEEN8nlohmann16json_abi_v3_11_210basic_jsonINS_3mapENS_6vectorES7_bxydS5_NS9_14adl_serializerENSC_IhNS5_IhEEEEEEEENS_19__map_value_compareIS7_SH_NS_4lessIvEELb1EEENS5_ISH_EEE5clearEv, symObjAddr: 0x1103C, symBinAddr: 0x100013854, symSize: 0x74 }
  - { offset: 0x47B27, size: 0x8, addend: 0x0, symName: __ZNSt3__16__treeINS_12__value_typeINS_12basic_stringIcNS_11char_traitsIcEENS_9allocatorIcEEEEN8nlohmann16json_abi_v3_11_210basic_jsonINS_3mapENS_6vectorES7_bxydS5_NS9_14adl_serializerENSC_IhNS5_IhEEEEEEEENS_19__map_value_compareIS7_SH_NS_4lessIvEELb1EEENS5_ISH_EEE7destroyEPNS_11__tree_nodeISH_PvEE, symObjAddr: 0x110B0, symBinAddr: 0x1000138C8, symSize: 0xAC }
  - { offset: 0x47B73, size: 0x8, addend: 0x0, symName: __ZNKSt3__16__treeINS_12__value_typeINS_12basic_stringIcNS_11char_traitsIcEENS_9allocatorIcEEEEN8nlohmann16json_abi_v3_11_210basic_jsonINS_3mapENS_6vectorES7_bxydS5_NS9_14adl_serializerENSC_IhNS5_IhEEEEEEEENS_19__map_value_compareIS7_SH_NS_4lessIvEELb1EEENS5_ISH_EEE6__rootB8ne180100Ev, symObjAddr: 0x1115C, symBinAddr: 0x100013974, symSize: 0x28 }
  - { offset: 0x47B99, size: 0x8, addend: 0x0, symName: __ZNSt3__16__treeINS_12__value_typeINS_12basic_stringIcNS_11char_traitsIcEENS_9allocatorIcEEEEN8nlohmann16json_abi_v3_11_210basic_jsonINS_3mapENS_6vectorES7_bxydS5_NS9_14adl_serializerENSC_IhNS5_IhEEEEEEEENS_19__map_value_compareIS7_SH_NS_4lessIvEELb1EEENS5_ISH_EEE4sizeB8ne180100Ev, symObjAddr: 0x11184, symBinAddr: 0x10001399C, symSize: 0x28 }
  - { offset: 0x47BBF, size: 0x8, addend: 0x0, symName: __ZNSt3__16__treeINS_12__value_typeINS_12basic_stringIcNS_11char_traitsIcEENS_9allocatorIcEEEEN8nlohmann16json_abi_v3_11_210basic_jsonINS_3mapENS_6vectorES7_bxydS5_NS9_14adl_serializerENSC_IhNS5_IhEEEEEEEENS_19__map_value_compareIS7_SH_NS_4lessIvEELb1EEENS5_ISH_EEE12__node_allocB8ne180100Ev, symObjAddr: 0x111AC, symBinAddr: 0x1000139C4, symSize: 0x28 }
  - { offset: 0x47BE5, size: 0x8, addend: 0x0, symName: __ZNSt3__116allocator_traitsINS_9allocatorINS_11__tree_nodeINS_12__value_typeINS_12basic_stringIcNS_11char_traitsIcEENS1_IcEEEEN8nlohmann16json_abi_v3_11_210basic_jsonINS_3mapENS_6vectorES8_bxydS1_NSA_14adl_serializerENSD_IhNS1_IhEEEEEEEEPvEEEEE7destroyB8ne180100INS_4pairIKS8_SH_EEvvEEvRSL_PT_, symObjAddr: 0x111D4, symBinAddr: 0x1000139EC, symSize: 0x28 }
  - { offset: 0x47C20, size: 0x8, addend: 0x0, symName: __ZNSt3__122__tree_key_value_typesINS_12__value_typeINS_12basic_stringIcNS_11char_traitsIcEENS_9allocatorIcEEEEN8nlohmann16json_abi_v3_11_210basic_jsonINS_3mapENS_6vectorES7_bxydS5_NS9_14adl_serializerENSC_IhNS5_IhEEEEEEEEE9__get_ptrB8ne180100ERSH_, symObjAddr: 0x111FC, symBinAddr: 0x100013A14, symSize: 0x24 }
  - { offset: 0x47C44, size: 0x8, addend: 0x0, symName: __ZNSt3__116allocator_traitsINS_9allocatorINS_11__tree_nodeINS_12__value_typeINS_12basic_stringIcNS_11char_traitsIcEENS1_IcEEEEN8nlohmann16json_abi_v3_11_210basic_jsonINS_3mapENS_6vectorES8_bxydS1_NSA_14adl_serializerENSD_IhNS1_IhEEEEEEEEPvEEEEE10deallocateB8ne180100ERSL_PSK_m, symObjAddr: 0x11220, symBinAddr: 0x100013A38, symSize: 0x34 }
  - { offset: 0x47C86, size: 0x8, addend: 0x0, symName: __ZNSt3__117__compressed_pairINS_15__tree_end_nodeIPNS_16__tree_node_baseIPvEEEENS_9allocatorINS_11__tree_nodeINS_12__value_typeINS_12basic_stringIcNS_11char_traitsIcEENS7_IcEEEEN8nlohmann16json_abi_v3_11_210basic_jsonINS_3mapENS_6vectorESE_bxydS7_NSG_14adl_serializerENSJ_IhNS7_IhEEEEEEEES3_EEEEE6secondB8ne180100Ev, symObjAddr: 0x11254, symBinAddr: 0x100013A6C, symSize: 0x24 }
  - { offset: 0x47CAC, size: 0x8, addend: 0x0, symName: __ZNSt3__122__compressed_pair_elemINS_9allocatorINS_11__tree_nodeINS_12__value_typeINS_12basic_stringIcNS_11char_traitsIcEENS1_IcEEEEN8nlohmann16json_abi_v3_11_210basic_jsonINS_3mapENS_6vectorES8_bxydS1_NSA_14adl_serializerENSD_IhNS1_IhEEEEEEEEPvEEEELi1ELb1EE5__getB8ne180100Ev, symObjAddr: 0x11278, symBinAddr: 0x100013A90, symSize: 0x14 }
  - { offset: 0x47CD2, size: 0x8, addend: 0x0, symName: __ZNSt3__14pairIKNS_12basic_stringIcNS_11char_traitsIcEENS_9allocatorIcEEEEN8nlohmann16json_abi_v3_11_210basic_jsonINS_3mapENS_6vectorES6_bxydS4_NS9_14adl_serializerENSC_IhNS4_IhEEEEEEED1Ev, symObjAddr: 0x112B0, symBinAddr: 0x100013AC8, symSize: 0x2C }
  - { offset: 0x47CFE, size: 0x8, addend: 0x0, symName: __ZNSt3__14pairIKNS_12basic_stringIcNS_11char_traitsIcEENS_9allocatorIcEEEEN8nlohmann16json_abi_v3_11_210basic_jsonINS_3mapENS_6vectorES6_bxydS4_NS9_14adl_serializerENSC_IhNS4_IhEEEEEEED2Ev, symObjAddr: 0x112DC, symBinAddr: 0x100013AF4, symSize: 0x38 }
  - { offset: 0x47D2A, size: 0x8, addend: 0x0, symName: __ZNSt3__19allocatorINS_11__tree_nodeINS_12__value_typeINS_12basic_stringIcNS_11char_traitsIcEENS0_IcEEEEN8nlohmann16json_abi_v3_11_210basic_jsonINS_3mapENS_6vectorES7_bxydS0_NS9_14adl_serializerENSC_IhNS0_IhEEEEEEEEPvEEE10deallocateB8ne180100EPSJ_m, symObjAddr: 0x11314, symBinAddr: 0x100013B2C, symSize: 0x44 }
  - { offset: 0x47D6C, size: 0x8, addend: 0x0, symName: __ZNKSt3__16__treeINS_12__value_typeINS_12basic_stringIcNS_11char_traitsIcEENS_9allocatorIcEEEEN8nlohmann16json_abi_v3_11_210basic_jsonINS_3mapENS_6vectorES7_bxydS5_NS9_14adl_serializerENSC_IhNS5_IhEEEEEEEENS_19__map_value_compareIS7_SH_NS_4lessIvEELb1EEENS5_ISH_EEE10__end_nodeB8ne180100Ev, symObjAddr: 0x11358, symBinAddr: 0x100013B70, symSize: 0x2C }
  - { offset: 0x47D92, size: 0x8, addend: 0x0, symName: __ZNKSt3__117__compressed_pairINS_15__tree_end_nodeIPNS_16__tree_node_baseIPvEEEENS_9allocatorINS_11__tree_nodeINS_12__value_typeINS_12basic_stringIcNS_11char_traitsIcEENS7_IcEEEEN8nlohmann16json_abi_v3_11_210basic_jsonINS_3mapENS_6vectorESE_bxydS7_NSG_14adl_serializerENSJ_IhNS7_IhEEEEEEEES3_EEEEE5firstB8ne180100Ev, symObjAddr: 0x11384, symBinAddr: 0x100013B9C, symSize: 0x24 }
  - { offset: 0x47DB8, size: 0x8, addend: 0x0, symName: __ZNKSt3__122__compressed_pair_elemINS_15__tree_end_nodeIPNS_16__tree_node_baseIPvEEEELi0ELb0EE5__getB8ne180100Ev, symObjAddr: 0x113A8, symBinAddr: 0x100013BC0, symSize: 0x14 }
  - { offset: 0x47DDE, size: 0x8, addend: 0x0, symName: __ZNSt3__117__compressed_pairImNS_19__map_value_compareINS_12basic_stringIcNS_11char_traitsIcEENS_9allocatorIcEEEENS_12__value_typeIS7_N8nlohmann16json_abi_v3_11_210basic_jsonINS_3mapENS_6vectorES7_bxydS5_NSA_14adl_serializerENSD_IhNS5_IhEEEEEEEENS_4lessIvEELb1EEEE5firstB8ne180100Ev, symObjAddr: 0x113BC, symBinAddr: 0x100013BD4, symSize: 0x24 }
  - { offset: 0x47E04, size: 0x8, addend: 0x0, symName: __ZNSt3__16vectorIN8nlohmann16json_abi_v3_11_210basic_jsonINS_3mapES0_NS_12basic_stringIcNS_11char_traitsIcEENS_9allocatorIcEEEEbxydS8_NS2_14adl_serializerENS0_IhNS8_IhEEEEEENS8_ISE_EEED2B8ne180100Ev, symObjAddr: 0x113E0, symBinAddr: 0x100013BF8, symSize: 0x44 }
  - { offset: 0x47E2E, size: 0x8, addend: 0x0, symName: __ZNSt3__16vectorIN8nlohmann16json_abi_v3_11_210basic_jsonINS_3mapES0_NS_12basic_stringIcNS_11char_traitsIcEENS_9allocatorIcEEEEbxydS8_NS2_14adl_serializerENS0_IhNS8_IhEEEEEENS8_ISE_EEE16__destroy_vectorC1B8ne180100ERSG_, symObjAddr: 0x11424, symBinAddr: 0x100013C3C, symSize: 0x34 }
  - { offset: 0x47E67, size: 0x8, addend: 0x0, symName: __ZNSt3__16vectorIN8nlohmann16json_abi_v3_11_210basic_jsonINS_3mapES0_NS_12basic_stringIcNS_11char_traitsIcEENS_9allocatorIcEEEEbxydS8_NS2_14adl_serializerENS0_IhNS8_IhEEEEEENS8_ISE_EEE16__destroy_vectorclB8ne180100Ev, symObjAddr: 0x11458, symBinAddr: 0x100013C70, symSize: 0x90 }
  - { offset: 0x47E8D, size: 0x8, addend: 0x0, symName: __ZNSt3__16vectorIN8nlohmann16json_abi_v3_11_210basic_jsonINS_3mapES0_NS_12basic_stringIcNS_11char_traitsIcEENS_9allocatorIcEEEEbxydS8_NS2_14adl_serializerENS0_IhNS8_IhEEEEEENS8_ISE_EEE16__destroy_vectorC2B8ne180100ERSG_, symObjAddr: 0x114E8, symBinAddr: 0x100013D00, symSize: 0x20 }
  - { offset: 0x47EC6, size: 0x8, addend: 0x0, symName: __ZNSt3__19allocatorINS_3mapINS_12basic_stringIcNS_11char_traitsIcEENS0_IcEEEEN8nlohmann16json_abi_v3_11_210basic_jsonIS1_NS_6vectorES6_bxydS0_NS8_14adl_serializerENSA_IhNS0_IhEEEEEENS_4lessIvEENS0_INS_4pairIKS6_SE_EEEEEEEC2B8ne180100Ev, symObjAddr: 0x11508, symBinAddr: 0x100013D20, symSize: 0x2C }
  - { offset: 0x47EF0, size: 0x8, addend: 0x0, symName: __ZNSt3__116__non_trivial_ifILb1ENS_9allocatorINS_3mapINS_12basic_stringIcNS_11char_traitsIcEENS1_IcEEEEN8nlohmann16json_abi_v3_11_210basic_jsonIS2_NS_6vectorES7_bxydS1_NS9_14adl_serializerENSB_IhNS1_IhEEEEEENS_4lessIvEENS1_INS_4pairIKS7_SF_EEEEEEEEEC2B8ne180100Ev, symObjAddr: 0x11534, symBinAddr: 0x100013D4C, symSize: 0x14 }
  - { offset: 0x47F1A, size: 0x8, addend: 0x0, symName: __ZNSt3__19allocatorINS_3mapINS_12basic_stringIcNS_11char_traitsIcEENS0_IcEEEEN8nlohmann16json_abi_v3_11_210basic_jsonIS1_NS_6vectorES6_bxydS0_NS8_14adl_serializerENSA_IhNS0_IhEEEEEENS_4lessIvEENS0_INS_4pairIKS6_SE_EEEEEEE7destroyB8ne180100EPSL_, symObjAddr: 0x11548, symBinAddr: 0x100013D60, symSize: 0x28 }
  - { offset: 0x47F4E, size: 0x8, addend: 0x0, symName: __ZNSt3__13mapINS_12basic_stringIcNS_11char_traitsIcEENS_9allocatorIcEEEEN8nlohmann16json_abi_v3_11_210basic_jsonIS0_NS_6vectorES6_bxydS4_NS8_14adl_serializerENSA_IhNS4_IhEEEEEENS_4lessIvEENS4_INS_4pairIKS6_SE_EEEEED1B8ne180100Ev, symObjAddr: 0x11570, symBinAddr: 0x100013D88, symSize: 0x2C }
  - { offset: 0x47F78, size: 0x8, addend: 0x0, symName: __ZNSt3__13mapINS_12basic_stringIcNS_11char_traitsIcEENS_9allocatorIcEEEEN8nlohmann16json_abi_v3_11_210basic_jsonIS0_NS_6vectorES6_bxydS4_NS8_14adl_serializerENSA_IhNS4_IhEEEEEENS_4lessIvEENS4_INS_4pairIKS6_SE_EEEEED2B8ne180100Ev, symObjAddr: 0x1159C, symBinAddr: 0x100013DB4, symSize: 0x2C }
  - { offset: 0x47FA2, size: 0x8, addend: 0x0, symName: __ZNSt3__16__treeINS_12__value_typeINS_12basic_stringIcNS_11char_traitsIcEENS_9allocatorIcEEEEN8nlohmann16json_abi_v3_11_210basic_jsonINS_3mapENS_6vectorES7_bxydS5_NS9_14adl_serializerENSC_IhNS5_IhEEEEEEEENS_19__map_value_compareIS7_SH_NS_4lessIvEELb1EEENS5_ISH_EEED1Ev, symObjAddr: 0x115C8, symBinAddr: 0x100013DE0, symSize: 0x2C }
  - { offset: 0x47FCE, size: 0x8, addend: 0x0, symName: __ZNSt3__16__treeINS_12__value_typeINS_12basic_stringIcNS_11char_traitsIcEENS_9allocatorIcEEEEN8nlohmann16json_abi_v3_11_210basic_jsonINS_3mapENS_6vectorES7_bxydS5_NS9_14adl_serializerENSC_IhNS5_IhEEEEEEEENS_19__map_value_compareIS7_SH_NS_4lessIvEELb1EEENS5_ISH_EEED2Ev, symObjAddr: 0x115F4, symBinAddr: 0x100013E0C, symSize: 0x38 }
  - { offset: 0x47FFA, size: 0x8, addend: 0x0, symName: __ZNSt3__19allocatorINS_3mapINS_12basic_stringIcNS_11char_traitsIcEENS0_IcEEEEN8nlohmann16json_abi_v3_11_210basic_jsonIS1_NS_6vectorES6_bxydS0_NS8_14adl_serializerENSA_IhNS0_IhEEEEEENS_4lessIvEENS0_INS_4pairIKS6_SE_EEEEEEE10deallocateB8ne180100EPSL_m, symObjAddr: 0x1162C, symBinAddr: 0x100013E44, symSize: 0x44 }
  - { offset: 0x4803C, size: 0x8, addend: 0x0, symName: __ZNSt3__19allocatorINS_6vectorIN8nlohmann16json_abi_v3_11_210basic_jsonINS_3mapES1_NS_12basic_stringIcNS_11char_traitsIcEENS0_IcEEEEbxydS0_NS3_14adl_serializerENS1_IhNS0_IhEEEEEENS0_ISE_EEEEEC2B8ne180100Ev, symObjAddr: 0x11670, symBinAddr: 0x100013E88, symSize: 0x2C }
  - { offset: 0x48066, size: 0x8, addend: 0x0, symName: __ZNSt3__116__non_trivial_ifILb1ENS_9allocatorINS_6vectorIN8nlohmann16json_abi_v3_11_210basic_jsonINS_3mapES2_NS_12basic_stringIcNS_11char_traitsIcEENS1_IcEEEEbxydS1_NS4_14adl_serializerENS2_IhNS1_IhEEEEEENS1_ISF_EEEEEEEC2B8ne180100Ev, symObjAddr: 0x1169C, symBinAddr: 0x100013EB4, symSize: 0x14 }
  - { offset: 0x48090, size: 0x8, addend: 0x0, symName: __ZNSt3__19allocatorINS_6vectorIN8nlohmann16json_abi_v3_11_210basic_jsonINS_3mapES1_NS_12basic_stringIcNS_11char_traitsIcEENS0_IcEEEEbxydS0_NS3_14adl_serializerENS1_IhNS0_IhEEEEEENS0_ISE_EEEEE7destroyB8ne180100EPSG_, symObjAddr: 0x116B0, symBinAddr: 0x100013EC8, symSize: 0x28 }
  - { offset: 0x480C4, size: 0x8, addend: 0x0, symName: __ZNSt3__19allocatorINS_6vectorIN8nlohmann16json_abi_v3_11_210basic_jsonINS_3mapES1_NS_12basic_stringIcNS_11char_traitsIcEENS0_IcEEEEbxydS0_NS3_14adl_serializerENS1_IhNS0_IhEEEEEENS0_ISE_EEEEE10deallocateB8ne180100EPSG_m, symObjAddr: 0x116D8, symBinAddr: 0x100013EF0, symSize: 0x44 }
  - { offset: 0x48106, size: 0x8, addend: 0x0, symName: __ZNSt3__19allocatorINS_12basic_stringIcNS_11char_traitsIcEENS0_IcEEEEEC2B8ne180100Ev, symObjAddr: 0x1171C, symBinAddr: 0x100013F34, symSize: 0x2C }
  - { offset: 0x48130, size: 0x8, addend: 0x0, symName: __ZNSt3__116__non_trivial_ifILb1ENS_9allocatorINS_12basic_stringIcNS_11char_traitsIcEENS1_IcEEEEEEEC2B8ne180100Ev, symObjAddr: 0x11748, symBinAddr: 0x100013F60, symSize: 0x14 }
  - { offset: 0x4815A, size: 0x8, addend: 0x0, symName: __ZNSt3__19allocatorINS_12basic_stringIcNS_11char_traitsIcEENS0_IcEEEEE7destroyB8ne180100EPS5_, symObjAddr: 0x1175C, symBinAddr: 0x100013F74, symSize: 0x28 }
  - { offset: 0x4818E, size: 0x8, addend: 0x0, symName: __ZNSt3__19allocatorINS_12basic_stringIcNS_11char_traitsIcEENS0_IcEEEEE10deallocateB8ne180100EPS5_m, symObjAddr: 0x11784, symBinAddr: 0x100013F9C, symSize: 0x44 }
  - { offset: 0x481D0, size: 0x8, addend: 0x0, symName: __ZNSt3__19allocatorIN8nlohmann16json_abi_v3_11_227byte_container_with_subtypeINS_6vectorIhNS0_IhEEEEEEEC2B8ne180100Ev, symObjAddr: 0x117C8, symBinAddr: 0x100013FE0, symSize: 0x2C }
  - { offset: 0x481FA, size: 0x8, addend: 0x0, symName: __ZNSt3__116__non_trivial_ifILb1ENS_9allocatorIN8nlohmann16json_abi_v3_11_227byte_container_with_subtypeINS_6vectorIhNS1_IhEEEEEEEEEC2B8ne180100Ev, symObjAddr: 0x117F4, symBinAddr: 0x10001400C, symSize: 0x14 }
  - { offset: 0x48224, size: 0x8, addend: 0x0, symName: __ZNSt3__19allocatorIN8nlohmann16json_abi_v3_11_227byte_container_with_subtypeINS_6vectorIhNS0_IhEEEEEEE7destroyB8ne180100EPS7_, symObjAddr: 0x11808, symBinAddr: 0x100014020, symSize: 0x28 }
  - { offset: 0x48258, size: 0x8, addend: 0x0, symName: __ZN8nlohmann16json_abi_v3_11_227byte_container_with_subtypeINSt3__16vectorIhNS2_9allocatorIhEEEEED1Ev, symObjAddr: 0x11830, symBinAddr: 0x100014048, symSize: 0x2C }
  - { offset: 0x48285, size: 0x8, addend: 0x0, symName: __ZN8nlohmann16json_abi_v3_11_227byte_container_with_subtypeINSt3__16vectorIhNS2_9allocatorIhEEEEED2Ev, symObjAddr: 0x1185C, symBinAddr: 0x100014074, symSize: 0x2C }
  - { offset: 0x482B2, size: 0x8, addend: 0x0, symName: __ZNSt3__16vectorIhNS_9allocatorIhEEED2B8ne180100Ev, symObjAddr: 0x11888, symBinAddr: 0x1000140A0, symSize: 0x44 }
  - { offset: 0x482DC, size: 0x8, addend: 0x0, symName: __ZNSt3__16vectorIhNS_9allocatorIhEEE16__destroy_vectorC1B8ne180100ERS3_, symObjAddr: 0x118CC, symBinAddr: 0x1000140E4, symSize: 0x34 }
  - { offset: 0x48315, size: 0x8, addend: 0x0, symName: __ZNSt3__16vectorIhNS_9allocatorIhEEE16__destroy_vectorclB8ne180100Ev, symObjAddr: 0x11900, symBinAddr: 0x100014118, symSize: 0x90 }
  - { offset: 0x4833B, size: 0x8, addend: 0x0, symName: __ZNSt3__16vectorIhNS_9allocatorIhEEE16__destroy_vectorC2B8ne180100ERS3_, symObjAddr: 0x11990, symBinAddr: 0x1000141A8, symSize: 0x20 }
  - { offset: 0x48374, size: 0x8, addend: 0x0, symName: __ZNSt3__16vectorIhNS_9allocatorIhEEE7__clearB8ne180100Ev, symObjAddr: 0x119B0, symBinAddr: 0x1000141C8, symSize: 0x28 }
  - { offset: 0x4839A, size: 0x8, addend: 0x0, symName: __ZNKSt3__16vectorIhNS_9allocatorIhEEE17__annotate_deleteB8ne180100Ev, symObjAddr: 0x119D8, symBinAddr: 0x1000141F0, symSize: 0x10 }
  - { offset: 0x483C0, size: 0x8, addend: 0x0, symName: __ZNSt3__116allocator_traitsINS_9allocatorIhEEE10deallocateB8ne180100ERS2_Phm, symObjAddr: 0x119E8, symBinAddr: 0x100014200, symSize: 0x34 }
  - { offset: 0x48402, size: 0x8, addend: 0x0, symName: __ZNSt3__16vectorIhNS_9allocatorIhEEE7__allocB8ne180100Ev, symObjAddr: 0x11A1C, symBinAddr: 0x100014234, symSize: 0x28 }
  - { offset: 0x48428, size: 0x8, addend: 0x0, symName: __ZNKSt3__16vectorIhNS_9allocatorIhEEE8capacityB8ne180100Ev, symObjAddr: 0x11A44, symBinAddr: 0x10001425C, symSize: 0x38 }
  - { offset: 0x4844E, size: 0x8, addend: 0x0, symName: __ZNSt3__16vectorIhNS_9allocatorIhEEE22__base_destruct_at_endB8ne180100EPh, symObjAddr: 0x11A7C, symBinAddr: 0x100014294, symSize: 0x8C }
  - { offset: 0x48492, size: 0x8, addend: 0x0, symName: __ZNSt3__116allocator_traitsINS_9allocatorIhEEE7destroyB8ne180100IhvEEvRS2_PT_, symObjAddr: 0x11B08, symBinAddr: 0x100014320, symSize: 0x2C }
  - { offset: 0x484CF, size: 0x8, addend: 0x0, symName: __ZNSt3__19allocatorIhE7destroyB8ne180100EPh, symObjAddr: 0x11B48, symBinAddr: 0x100014360, symSize: 0x14 }
  - { offset: 0x48503, size: 0x8, addend: 0x0, symName: __ZNSt3__19allocatorIhE10deallocateB8ne180100EPhm, symObjAddr: 0x11B5C, symBinAddr: 0x100014374, symSize: 0x40 }
  - { offset: 0x48545, size: 0x8, addend: 0x0, symName: __ZNSt3__117__compressed_pairIPhNS_9allocatorIhEEE6secondB8ne180100Ev, symObjAddr: 0x11B9C, symBinAddr: 0x1000143B4, symSize: 0x24 }
  - { offset: 0x4856B, size: 0x8, addend: 0x0, symName: __ZNSt3__122__compressed_pair_elemINS_9allocatorIhEELi1ELb1EE5__getB8ne180100Ev, symObjAddr: 0x11BC0, symBinAddr: 0x1000143D8, symSize: 0x14 }
  - { offset: 0x48591, size: 0x8, addend: 0x0, symName: __ZNKSt3__16vectorIhNS_9allocatorIhEEE9__end_capB8ne180100Ev, symObjAddr: 0x11BD4, symBinAddr: 0x1000143EC, symSize: 0x28 }
  - { offset: 0x485B7, size: 0x8, addend: 0x0, symName: __ZNKSt3__117__compressed_pairIPhNS_9allocatorIhEEE5firstB8ne180100Ev, symObjAddr: 0x11BFC, symBinAddr: 0x100014414, symSize: 0x24 }
  - { offset: 0x485DD, size: 0x8, addend: 0x0, symName: __ZNKSt3__122__compressed_pair_elemIPhLi0ELb0EE5__getB8ne180100Ev, symObjAddr: 0x11C20, symBinAddr: 0x100014438, symSize: 0x14 }
  - { offset: 0x48603, size: 0x8, addend: 0x0, symName: __ZNSt3__19allocatorIN8nlohmann16json_abi_v3_11_227byte_container_with_subtypeINS_6vectorIhNS0_IhEEEEEEE10deallocateB8ne180100EPS7_m, symObjAddr: 0x11C34, symBinAddr: 0x10001444C, symSize: 0x44 }
  - { offset: 0x48645, size: 0x8, addend: 0x0, symName: __ZNSt3__16vectorINS_12basic_stringIcNS_11char_traitsIcEENS_9allocatorIcEEEENS4_IS6_EEED2B8ne180100Ev, symObjAddr: 0x11C78, symBinAddr: 0x100014490, symSize: 0x44 }
  - { offset: 0x4866F, size: 0x8, addend: 0x0, symName: __ZNSt3__16vectorINS_12basic_stringIcNS_11char_traitsIcEENS_9allocatorIcEEEENS4_IS6_EEE16__destroy_vectorC1B8ne180100ERS8_, symObjAddr: 0x11CBC, symBinAddr: 0x1000144D4, symSize: 0x34 }
  - { offset: 0x486A8, size: 0x8, addend: 0x0, symName: __ZNSt3__16vectorINS_12basic_stringIcNS_11char_traitsIcEENS_9allocatorIcEEEENS4_IS6_EEE16__destroy_vectorclB8ne180100Ev, symObjAddr: 0x11CF0, symBinAddr: 0x100014508, symSize: 0x90 }
  - { offset: 0x486CE, size: 0x8, addend: 0x0, symName: __ZNSt3__16vectorINS_12basic_stringIcNS_11char_traitsIcEENS_9allocatorIcEEEENS4_IS6_EEE16__destroy_vectorC2B8ne180100ERS8_, symObjAddr: 0x11D80, symBinAddr: 0x100014598, symSize: 0x20 }
  - { offset: 0x48707, size: 0x8, addend: 0x0, symName: __ZNSt3__16vectorINS_12basic_stringIcNS_11char_traitsIcEENS_9allocatorIcEEEENS4_IS6_EEE7__clearB8ne180100Ev, symObjAddr: 0x11DA0, symBinAddr: 0x1000145B8, symSize: 0x28 }
  - { offset: 0x4872D, size: 0x8, addend: 0x0, symName: __ZNKSt3__16vectorINS_12basic_stringIcNS_11char_traitsIcEENS_9allocatorIcEEEENS4_IS6_EEE17__annotate_deleteB8ne180100Ev, symObjAddr: 0x11DC8, symBinAddr: 0x1000145E0, symSize: 0x10 }
  - { offset: 0x48753, size: 0x8, addend: 0x0, symName: __ZNSt3__16vectorINS_12basic_stringIcNS_11char_traitsIcEENS_9allocatorIcEEEENS4_IS6_EEE7__allocB8ne180100Ev, symObjAddr: 0x11DD8, symBinAddr: 0x1000145F0, symSize: 0x28 }
  - { offset: 0x48779, size: 0x8, addend: 0x0, symName: __ZNKSt3__16vectorINS_12basic_stringIcNS_11char_traitsIcEENS_9allocatorIcEEEENS4_IS6_EEE8capacityB8ne180100Ev, symObjAddr: 0x11E00, symBinAddr: 0x100014618, symSize: 0x40 }
  - { offset: 0x4879F, size: 0x8, addend: 0x0, symName: __ZNSt3__16vectorINS_12basic_stringIcNS_11char_traitsIcEENS_9allocatorIcEEEENS4_IS6_EEE22__base_destruct_at_endB8ne180100EPS6_, symObjAddr: 0x11E40, symBinAddr: 0x100014658, symSize: 0x8C }
  - { offset: 0x487E3, size: 0x8, addend: 0x0, symName: __ZNSt3__117__compressed_pairIPNS_12basic_stringIcNS_11char_traitsIcEENS_9allocatorIcEEEENS4_IS6_EEE6secondB8ne180100Ev, symObjAddr: 0x11EE0, symBinAddr: 0x1000146F8, symSize: 0x24 }
  - { offset: 0x48809, size: 0x8, addend: 0x0, symName: __ZNSt3__122__compressed_pair_elemINS_9allocatorINS_12basic_stringIcNS_11char_traitsIcEENS1_IcEEEEEELi1ELb1EE5__getB8ne180100Ev, symObjAddr: 0x11F04, symBinAddr: 0x10001471C, symSize: 0x14 }
  - { offset: 0x4882F, size: 0x8, addend: 0x0, symName: __ZNKSt3__16vectorINS_12basic_stringIcNS_11char_traitsIcEENS_9allocatorIcEEEENS4_IS6_EEE9__end_capB8ne180100Ev, symObjAddr: 0x11F18, symBinAddr: 0x100014730, symSize: 0x28 }
  - { offset: 0x48855, size: 0x8, addend: 0x0, symName: __ZNKSt3__117__compressed_pairIPNS_12basic_stringIcNS_11char_traitsIcEENS_9allocatorIcEEEENS4_IS6_EEE5firstB8ne180100Ev, symObjAddr: 0x11F40, symBinAddr: 0x100014758, symSize: 0x24 }
  - { offset: 0x4887B, size: 0x8, addend: 0x0, symName: __ZNKSt3__122__compressed_pair_elemIPNS_12basic_stringIcNS_11char_traitsIcEENS_9allocatorIcEEEELi0ELb0EE5__getB8ne180100Ev, symObjAddr: 0x11F64, symBinAddr: 0x10001477C, symSize: 0x14 }
  - { offset: 0x488A1, size: 0x8, addend: 0x0, symName: __ZNKSt3__110shared_ptrI8TreeNodeE3getB8ne180100Ev, symObjAddr: 0x11F78, symBinAddr: 0x100014790, symSize: 0x18 }
  - { offset: 0x488C7, size: 0x8, addend: 0x0, symName: __ZNSt3__19basic_iosIcNS_11char_traitsIcEEEC2B8ne180100Ev, symObjAddr: 0x11F90, symBinAddr: 0x1000147A8, symSize: 0x3C }
  - { offset: 0x488F1, size: 0x8, addend: 0x0, symName: __ZNSt3__113basic_istreamIcNS_11char_traitsIcEEEC2B8ne180100EPNS_15basic_streambufIcS2_EE, symObjAddr: 0x11FCC, symBinAddr: 0x1000147E4, symSize: 0x64 }
  - { offset: 0x48936, size: 0x8, addend: 0x0, symName: __ZNSt3__113basic_filebufIcNS_11char_traitsIcEEE4openERKNS_12basic_stringIcS2_NS_9allocatorIcEEEEj, symObjAddr: 0x12030, symBinAddr: 0x100014848, symSize: 0x44 }
  - { offset: 0x4897C, size: 0x8, addend: 0x0, symName: __ZNSt3__18ios_baseC2B8ne180100Ev, symObjAddr: 0x12074, symBinAddr: 0x10001488C, symSize: 0x24 }
  - { offset: 0x489A6, size: 0x8, addend: 0x0, symName: __ZNSt3__19basic_iosIcNS_11char_traitsIcEEE4initB8ne180100EPNS_15basic_streambufIcS2_EE, symObjAddr: 0x12098, symBinAddr: 0x1000148B0, symSize: 0x44 }
  - { offset: 0x489DD, size: 0x8, addend: 0x0, symName: __ZNKSt3__112basic_stringIcNS_11char_traitsIcEENS_9allocatorIcEEE5c_strB8ne180100Ev, symObjAddr: 0x120DC, symBinAddr: 0x1000148F4, symSize: 0x24 }
  - { offset: 0x48A03, size: 0x8, addend: 0x0, symName: __ZNKSt3__113basic_filebufIcNS_11char_traitsIcEEE7is_openEv, symObjAddr: 0x12100, symBinAddr: 0x100014918, symSize: 0x24 }
  - { offset: 0x48A2B, size: 0x8, addend: 0x0, symName: __ZN8nlohmann16json_abi_v3_11_210basic_jsonINSt3__13mapENS2_6vectorENS2_12basic_stringIcNS2_11char_traitsIcEENS2_9allocatorIcEEEEbxydS8_NS0_14adl_serializerENS4_IhNS8_IhEEEEEC1ENS0_6detail7value_tE, symObjAddr: 0x12124, symBinAddr: 0x10001493C, symSize: 0x34 }
  - { offset: 0x48A64, size: 0x8, addend: 0x0, symName: __ZN8nlohmann16json_abi_v3_11_210basic_jsonINSt3__13mapENS2_6vectorENS2_12basic_stringIcNS2_11char_traitsIcEENS2_9allocatorIcEEEEbxydS8_NS0_14adl_serializerENS4_IhNS8_IhEEEEEC2ENS0_6detail7value_tE, symObjAddr: 0x12158, symBinAddr: 0x100014970, symSize: 0x50 }
  - { offset: 0x48A9D, size: 0x8, addend: 0x0, symName: __ZN8nlohmann16json_abi_v3_11_210basic_jsonINSt3__13mapENS2_6vectorENS2_12basic_stringIcNS2_11char_traitsIcEENS2_9allocatorIcEEEEbxydS8_NS0_14adl_serializerENS4_IhNS8_IhEEEEE10json_valueC1ENS0_6detail7value_tE, symObjAddr: 0x121A8, symBinAddr: 0x1000149C0, symSize: 0x34 }
  - { offset: 0x48AD6, size: 0x8, addend: 0x0, symName: __ZN8nlohmann16json_abi_v3_11_210basic_jsonINSt3__13mapENS2_6vectorENS2_12basic_stringIcNS2_11char_traitsIcEENS2_9allocatorIcEEEEbxydS8_NS0_14adl_serializerENS4_IhNS8_IhEEEEE10json_valueC2ENS0_6detail7value_tE, symObjAddr: 0x121DC, symBinAddr: 0x1000149F4, symSize: 0x1DC }
  - { offset: 0x48B0F, size: 0x8, addend: 0x0, symName: __ZN8nlohmann16json_abi_v3_11_210basic_jsonINSt3__13mapENS2_6vectorENS2_12basic_stringIcNS2_11char_traitsIcEENS2_9allocatorIcEEEEbxydS8_NS0_14adl_serializerENS4_IhNS8_IhEEEEE6createINS3_ISA_SE_NS2_4lessIvEENS8_INS2_4pairIKSA_SE_EEEEEEJEEEPT_DpOT0_, symObjAddr: 0x123E0, symBinAddr: 0x100014BF8, symSize: 0xEC }
  - { offset: 0x48B88, size: 0x8, addend: 0x0, symName: __ZN8nlohmann16json_abi_v3_11_210basic_jsonINSt3__13mapENS2_6vectorENS2_12basic_stringIcNS2_11char_traitsIcEENS2_9allocatorIcEEEEbxydS8_NS0_14adl_serializerENS4_IhNS8_IhEEEEE6createINS4_ISE_NS8_ISE_EEEEJEEEPT_DpOT0_, symObjAddr: 0x124CC, symBinAddr: 0x100014CE4, symSize: 0xEC }
  - { offset: 0x48C1A, size: 0x8, addend: 0x0, symName: __ZN8nlohmann16json_abi_v3_11_210basic_jsonINSt3__13mapENS2_6vectorENS2_12basic_stringIcNS2_11char_traitsIcEENS2_9allocatorIcEEEEbxydS8_NS0_14adl_serializerENS4_IhNS8_IhEEEEE6createISA_JRA1_KcEEEPT_DpOT0_, symObjAddr: 0x125B8, symBinAddr: 0x100014DD0, symSize: 0xF4 }
  - { offset: 0x48CA8, size: 0x8, addend: 0x0, symName: __ZN8nlohmann16json_abi_v3_11_210basic_jsonINSt3__13mapENS2_6vectorENS2_12basic_stringIcNS2_11char_traitsIcEENS2_9allocatorIcEEEEbxydS8_NS0_14adl_serializerENS4_IhNS8_IhEEEEE6createINS0_27byte_container_with_subtypeISD_EEJEEEPT_DpOT0_, symObjAddr: 0x126AC, symBinAddr: 0x100014EC4, symSize: 0xEC }
  - { offset: 0x48D55, size: 0x8, addend: 0x0, symName: __ZN8nlohmann16json_abi_v3_11_26detail11other_error6createIDnLi0EEES2_iRKNSt3__112basic_stringIcNS4_11char_traitsIcEENS4_9allocatorIcEEEET_, symObjAddr: 0x12798, symBinAddr: 0x100014FB0, symSize: 0x130 }
  - { offset: 0x48DB5, size: 0x8, addend: 0x0, symName: __ZN8nlohmann16json_abi_v3_11_26detail11other_errorD1Ev, symObjAddr: 0x128C8, symBinAddr: 0x1000150E0, symSize: 0x2C }
  - { offset: 0x48DE2, size: 0x8, addend: 0x0, symName: __ZNSt3__116allocator_traitsINS_9allocatorINS_3mapINS_12basic_stringIcNS_11char_traitsIcEENS1_IcEEEEN8nlohmann16json_abi_v3_11_210basic_jsonIS2_NS_6vectorES7_bxydS1_NS9_14adl_serializerENSB_IhNS1_IhEEEEEENS_4lessIvEENS1_INS_4pairIKS7_SF_EEEEEEEEE8allocateB8ne180100ERSN_m, symObjAddr: 0x128F4, symBinAddr: 0x10001510C, symSize: 0x2C }
  - { offset: 0x48EB6, size: 0x8, addend: 0x0, symName: __ZNSt3__110unique_ptrINS_3mapINS_12basic_stringIcNS_11char_traitsIcEENS_9allocatorIcEEEEN8nlohmann16json_abi_v3_11_210basic_jsonIS1_NS_6vectorES7_bxydS5_NS9_14adl_serializerENSB_IhNS5_IhEEEEEENS_4lessIvEENS5_INS_4pairIKS7_SF_EEEEEEZNSF_6createISM_JEEEPT_DpOT0_EUlPSM_E_EC1B8ne180100ILb1EvEEST_NS_16__dependent_typeINS_27__unique_ptr_deleter_sfinaeISU_EEXT_EE15__lval_ref_typeE, symObjAddr: 0x12920, symBinAddr: 0x100015138, symSize: 0x3C }
  - { offset: 0x48F07, size: 0x8, addend: 0x0, symName: __ZNSt3__116allocator_traitsINS_9allocatorINS_3mapINS_12basic_stringIcNS_11char_traitsIcEENS1_IcEEEEN8nlohmann16json_abi_v3_11_210basic_jsonIS2_NS_6vectorES7_bxydS1_NS9_14adl_serializerENSB_IhNS1_IhEEEEEENS_4lessIvEENS1_INS_4pairIKS7_SF_EEEEEEEEE9constructB8ne180100ISM_JEvEEvRSN_PT_DpOT0_, symObjAddr: 0x1295C, symBinAddr: 0x100015174, symSize: 0x2C }
  - { offset: 0x48F49, size: 0x8, addend: 0x0, symName: __ZNKSt3__110unique_ptrINS_3mapINS_12basic_stringIcNS_11char_traitsIcEENS_9allocatorIcEEEEN8nlohmann16json_abi_v3_11_210basic_jsonIS1_NS_6vectorES7_bxydS5_NS9_14adl_serializerENSB_IhNS5_IhEEEEEENS_4lessIvEENS5_INS_4pairIKS7_SF_EEEEEEZNSF_6createISM_JEEEPT_DpOT0_EUlPSM_E_E3getB8ne180100Ev, symObjAddr: 0x12988, symBinAddr: 0x1000151A0, symSize: 0x28 }
  - { offset: 0x48F6F, size: 0x8, addend: 0x0, symName: __ZNSt3__110unique_ptrINS_3mapINS_12basic_stringIcNS_11char_traitsIcEENS_9allocatorIcEEEEN8nlohmann16json_abi_v3_11_210basic_jsonIS1_NS_6vectorES7_bxydS5_NS9_14adl_serializerENSB_IhNS5_IhEEEEEENS_4lessIvEENS5_INS_4pairIKS7_SF_EEEEEEZNSF_6createISM_JEEEPT_DpOT0_EUlPSM_E_E7releaseB8ne180100Ev, symObjAddr: 0x129DC, symBinAddr: 0x1000151F4, symSize: 0x44 }
  - { offset: 0x48FA4, size: 0x8, addend: 0x0, symName: __ZNSt3__110unique_ptrINS_3mapINS_12basic_stringIcNS_11char_traitsIcEENS_9allocatorIcEEEEN8nlohmann16json_abi_v3_11_210basic_jsonIS1_NS_6vectorES7_bxydS5_NS9_14adl_serializerENSB_IhNS5_IhEEEEEENS_4lessIvEENS5_INS_4pairIKS7_SF_EEEEEEZNSF_6createISM_JEEEPT_DpOT0_EUlPSM_E_ED1B8ne180100Ev, symObjAddr: 0x12A20, symBinAddr: 0x100015238, symSize: 0x2C }
  - { offset: 0x48FCE, size: 0x8, addend: 0x0, symName: __ZNSt3__19allocatorINS_3mapINS_12basic_stringIcNS_11char_traitsIcEENS0_IcEEEEN8nlohmann16json_abi_v3_11_210basic_jsonIS1_NS_6vectorES6_bxydS0_NS8_14adl_serializerENSA_IhNS0_IhEEEEEENS_4lessIvEENS0_INS_4pairIKS6_SE_EEEEEEE8allocateB8ne180100Em, symObjAddr: 0x12A4C, symBinAddr: 0x100015264, symSize: 0x5C }
  - { offset: 0x4900D, size: 0x8, addend: 0x0, symName: __ZNSt3__116allocator_traitsINS_9allocatorINS_3mapINS_12basic_stringIcNS_11char_traitsIcEENS1_IcEEEEN8nlohmann16json_abi_v3_11_210basic_jsonIS2_NS_6vectorES7_bxydS1_NS9_14adl_serializerENSB_IhNS1_IhEEEEEENS_4lessIvEENS1_INS_4pairIKS7_SF_EEEEEEEEE8max_sizeB8ne180100ISN_vEEmRKSN_, symObjAddr: 0x12AA8, symBinAddr: 0x1000152C0, symSize: 0x24 }
  - { offset: 0x4903B, size: 0x8, addend: 0x0, symName: __ZNKSt3__19allocatorINS_3mapINS_12basic_stringIcNS_11char_traitsIcEENS0_IcEEEEN8nlohmann16json_abi_v3_11_210basic_jsonIS1_NS_6vectorES6_bxydS0_NS8_14adl_serializerENSA_IhNS0_IhEEEEEENS_4lessIvEENS0_INS_4pairIKS6_SE_EEEEEEE8max_sizeB8ne180100Ev, symObjAddr: 0x12ACC, symBinAddr: 0x1000152E4, symSize: 0x18 }
  - { offset: 0x49061, size: 0x8, addend: 0x0, symName: __ZNSt3__110unique_ptrINS_3mapINS_12basic_stringIcNS_11char_traitsIcEENS_9allocatorIcEEEEN8nlohmann16json_abi_v3_11_210basic_jsonIS1_NS_6vectorES7_bxydS5_NS9_14adl_serializerENSB_IhNS5_IhEEEEEENS_4lessIvEENS5_INS_4pairIKS7_SF_EEEEEEZNSF_6createISM_JEEEPT_DpOT0_EUlPSM_E_EC2B8ne180100ILb1EvEEST_NS_16__dependent_typeINS_27__unique_ptr_deleter_sfinaeISU_EEXT_EE15__lval_ref_typeE, symObjAddr: 0x12AE4, symBinAddr: 0x1000152FC, symSize: 0x48 }
  - { offset: 0x490B2, size: 0x8, addend: 0x0, symName: __ZNSt3__117__compressed_pairIPNS_3mapINS_12basic_stringIcNS_11char_traitsIcEENS_9allocatorIcEEEEN8nlohmann16json_abi_v3_11_210basic_jsonIS1_NS_6vectorES7_bxydS5_NS9_14adl_serializerENSB_IhNS5_IhEEEEEENS_4lessIvEENS5_INS_4pairIKS7_SF_EEEEEEZNSF_6createISM_JEEEPT_DpOT0_EUlSN_E_EC1B8ne180100IRSN_RKSU_EEOSP_OT0_, symObjAddr: 0x12B2C, symBinAddr: 0x100015344, symSize: 0x3C }
  - { offset: 0x4910A, size: 0x8, addend: 0x0, symName: __ZNSt3__117__compressed_pairIPNS_3mapINS_12basic_stringIcNS_11char_traitsIcEENS_9allocatorIcEEEEN8nlohmann16json_abi_v3_11_210basic_jsonIS1_NS_6vectorES7_bxydS5_NS9_14adl_serializerENSB_IhNS5_IhEEEEEENS_4lessIvEENS5_INS_4pairIKS7_SF_EEEEEEZNSF_6createISM_JEEEPT_DpOT0_EUlSN_E_EC2B8ne180100IRSN_RKSU_EEOSP_OT0_, symObjAddr: 0x12B68, symBinAddr: 0x100015380, symSize: 0x48 }
  - { offset: 0x49162, size: 0x8, addend: 0x0, symName: __ZNSt3__122__compressed_pair_elemIPNS_3mapINS_12basic_stringIcNS_11char_traitsIcEENS_9allocatorIcEEEEN8nlohmann16json_abi_v3_11_210basic_jsonIS1_NS_6vectorES7_bxydS5_NS9_14adl_serializerENSB_IhNS5_IhEEEEEENS_4lessIvEENS5_INS_4pairIKS7_SF_EEEEEELi0ELb0EEC2B8ne180100IRSN_vEEOT_, symObjAddr: 0x12BB0, symBinAddr: 0x1000153C8, symSize: 0x24 }
  - { offset: 0x491A4, size: 0x8, addend: 0x0, symName: __ZNSt3__122__compressed_pair_elemIZN8nlohmann16json_abi_v3_11_210basic_jsonINS_3mapENS_6vectorENS_12basic_stringIcNS_11char_traitsIcEENS_9allocatorIcEEEEbxydS9_NS2_14adl_serializerENS5_IhNS9_IhEEEEE6createINS4_ISB_SF_NS_4lessIvEENS9_INS_4pairIKSB_SF_EEEEEEJEEEPT_DpOT0_EUlPSN_E_Li1ELb0EEC2B8ne180100IRKSU_vEEOSO_, symObjAddr: 0x12BD4, symBinAddr: 0x1000153EC, symSize: 0x24 }
  - { offset: 0x491E6, size: 0x8, addend: 0x0, symName: __ZNSt3__19allocatorINS_3mapINS_12basic_stringIcNS_11char_traitsIcEENS0_IcEEEEN8nlohmann16json_abi_v3_11_210basic_jsonIS1_NS_6vectorES6_bxydS0_NS8_14adl_serializerENSA_IhNS0_IhEEEEEENS_4lessIvEENS0_INS_4pairIKS6_SE_EEEEEEE9constructB8ne180100ISL_JEEEvPT_DpOT0_, symObjAddr: 0x12BF8, symBinAddr: 0x100015410, symSize: 0x28 }
  - { offset: 0x49228, size: 0x8, addend: 0x0, symName: __ZNSt3__13mapINS_12basic_stringIcNS_11char_traitsIcEENS_9allocatorIcEEEEN8nlohmann16json_abi_v3_11_210basic_jsonIS0_NS_6vectorES6_bxydS4_NS8_14adl_serializerENSA_IhNS4_IhEEEEEENS_4lessIvEENS4_INS_4pairIKS6_SE_EEEEEC1B8ne180100Ev, symObjAddr: 0x12C20, symBinAddr: 0x100015438, symSize: 0x2C }
  - { offset: 0x49252, size: 0x8, addend: 0x0, symName: __ZNSt3__13mapINS_12basic_stringIcNS_11char_traitsIcEENS_9allocatorIcEEEEN8nlohmann16json_abi_v3_11_210basic_jsonIS0_NS_6vectorES6_bxydS4_NS8_14adl_serializerENSA_IhNS4_IhEEEEEENS_4lessIvEENS4_INS_4pairIKS6_SE_EEEEEC2B8ne180100Ev, symObjAddr: 0x12C4C, symBinAddr: 0x100015464, symSize: 0x40 }
  - { offset: 0x4927C, size: 0x8, addend: 0x0, symName: __ZNSt3__119__map_value_compareINS_12basic_stringIcNS_11char_traitsIcEENS_9allocatorIcEEEENS_12__value_typeIS6_N8nlohmann16json_abi_v3_11_210basic_jsonINS_3mapENS_6vectorES6_bxydS4_NS9_14adl_serializerENSC_IhNS4_IhEEEEEEEENS_4lessIvEELb1EEC1B8ne180100ESJ_, symObjAddr: 0x12C8C, symBinAddr: 0x1000154A4, symSize: 0x2C }
  - { offset: 0x492B5, size: 0x8, addend: 0x0, symName: __ZNSt3__16__treeINS_12__value_typeINS_12basic_stringIcNS_11char_traitsIcEENS_9allocatorIcEEEEN8nlohmann16json_abi_v3_11_210basic_jsonINS_3mapENS_6vectorES7_bxydS5_NS9_14adl_serializerENSC_IhNS5_IhEEEEEEEENS_19__map_value_compareIS7_SH_NS_4lessIvEELb1EEENS5_ISH_EEEC1ERKSL_, symObjAddr: 0x12CB8, symBinAddr: 0x1000154D0, symSize: 0x34 }
  - { offset: 0x492F0, size: 0x8, addend: 0x0, symName: __ZNSt3__119__map_value_compareINS_12basic_stringIcNS_11char_traitsIcEENS_9allocatorIcEEEENS_12__value_typeIS6_N8nlohmann16json_abi_v3_11_210basic_jsonINS_3mapENS_6vectorES6_bxydS4_NS9_14adl_serializerENSC_IhNS4_IhEEEEEEEENS_4lessIvEELb1EEC2B8ne180100ESJ_, symObjAddr: 0x12CEC, symBinAddr: 0x100015504, symSize: 0x14 }
  - { offset: 0x49329, size: 0x8, addend: 0x0, symName: __ZNSt3__16__treeINS_12__value_typeINS_12basic_stringIcNS_11char_traitsIcEENS_9allocatorIcEEEEN8nlohmann16json_abi_v3_11_210basic_jsonINS_3mapENS_6vectorES7_bxydS5_NS9_14adl_serializerENSC_IhNS5_IhEEEEEEEENS_19__map_value_compareIS7_SH_NS_4lessIvEELb1EEENS5_ISH_EEEC2ERKSL_, symObjAddr: 0x12D00, symBinAddr: 0x100015518, symSize: 0x7C }
  - { offset: 0x49364, size: 0x8, addend: 0x0, symName: __ZNSt3__117__compressed_pairINS_15__tree_end_nodeIPNS_16__tree_node_baseIPvEEEENS_9allocatorINS_11__tree_nodeINS_12__value_typeINS_12basic_stringIcNS_11char_traitsIcEENS7_IcEEEEN8nlohmann16json_abi_v3_11_210basic_jsonINS_3mapENS_6vectorESE_bxydS7_NSG_14adl_serializerENSJ_IhNS7_IhEEEEEEEES3_EEEEEC1B8ne180100ILb1EvEEv, symObjAddr: 0x12D7C, symBinAddr: 0x100015594, symSize: 0x2C }
  - { offset: 0x49399, size: 0x8, addend: 0x0, symName: __ZNSt3__117__compressed_pairImNS_19__map_value_compareINS_12basic_stringIcNS_11char_traitsIcEENS_9allocatorIcEEEENS_12__value_typeIS7_N8nlohmann16json_abi_v3_11_210basic_jsonINS_3mapENS_6vectorES7_bxydS5_NSA_14adl_serializerENSD_IhNS5_IhEEEEEEEENS_4lessIvEELb1EEEEC1B8ne180100IiRKSL_EEOT_OT0_, symObjAddr: 0x12DA8, symBinAddr: 0x1000155C0, symSize: 0x3C }
  - { offset: 0x493F1, size: 0x8, addend: 0x0, symName: __ZNSt3__117__compressed_pairINS_15__tree_end_nodeIPNS_16__tree_node_baseIPvEEEENS_9allocatorINS_11__tree_nodeINS_12__value_typeINS_12basic_stringIcNS_11char_traitsIcEENS7_IcEEEEN8nlohmann16json_abi_v3_11_210basic_jsonINS_3mapENS_6vectorESE_bxydS7_NSG_14adl_serializerENSJ_IhNS7_IhEEEEEEEES3_EEEEEC2B8ne180100ILb1EvEEv, symObjAddr: 0x12DE4, symBinAddr: 0x1000155FC, symSize: 0x34 }
  - { offset: 0x49426, size: 0x8, addend: 0x0, symName: __ZNSt3__122__compressed_pair_elemINS_15__tree_end_nodeIPNS_16__tree_node_baseIPvEEEELi0ELb0EEC2B8ne180100ENS_16__value_init_tagE, symObjAddr: 0x12E18, symBinAddr: 0x100015630, symSize: 0x2C }
  - { offset: 0x4945B, size: 0x8, addend: 0x0, symName: __ZNSt3__122__compressed_pair_elemINS_9allocatorINS_11__tree_nodeINS_12__value_typeINS_12basic_stringIcNS_11char_traitsIcEENS1_IcEEEEN8nlohmann16json_abi_v3_11_210basic_jsonINS_3mapENS_6vectorES8_bxydS1_NSA_14adl_serializerENSD_IhNS1_IhEEEEEEEEPvEEEELi1ELb1EEC2B8ne180100ENS_16__value_init_tagE, symObjAddr: 0x12E44, symBinAddr: 0x10001565C, symSize: 0x2C }
  - { offset: 0x49490, size: 0x8, addend: 0x0, symName: __ZNSt3__115__tree_end_nodeIPNS_16__tree_node_baseIPvEEEC1B8ne180100Ev, symObjAddr: 0x12E70, symBinAddr: 0x100015688, symSize: 0x2C }
  - { offset: 0x494BA, size: 0x8, addend: 0x0, symName: __ZNSt3__115__tree_end_nodeIPNS_16__tree_node_baseIPvEEEC2B8ne180100Ev, symObjAddr: 0x12E9C, symBinAddr: 0x1000156B4, symSize: 0x18 }
  - { offset: 0x494E4, size: 0x8, addend: 0x0, symName: __ZNSt3__19allocatorINS_11__tree_nodeINS_12__value_typeINS_12basic_stringIcNS_11char_traitsIcEENS0_IcEEEEN8nlohmann16json_abi_v3_11_210basic_jsonINS_3mapENS_6vectorES7_bxydS0_NS9_14adl_serializerENSC_IhNS0_IhEEEEEEEEPvEEEC2B8ne180100Ev, symObjAddr: 0x12EB4, symBinAddr: 0x1000156CC, symSize: 0x2C }
  - { offset: 0x4950E, size: 0x8, addend: 0x0, symName: __ZNSt3__116__non_trivial_ifILb1ENS_9allocatorINS_11__tree_nodeINS_12__value_typeINS_12basic_stringIcNS_11char_traitsIcEENS1_IcEEEEN8nlohmann16json_abi_v3_11_210basic_jsonINS_3mapENS_6vectorES8_bxydS1_NSA_14adl_serializerENSD_IhNS1_IhEEEEEEEEPvEEEEEC2B8ne180100Ev, symObjAddr: 0x12EE0, symBinAddr: 0x1000156F8, symSize: 0x14 }
  - { offset: 0x49538, size: 0x8, addend: 0x0, symName: __ZNSt3__117__compressed_pairImNS_19__map_value_compareINS_12basic_stringIcNS_11char_traitsIcEENS_9allocatorIcEEEENS_12__value_typeIS7_N8nlohmann16json_abi_v3_11_210basic_jsonINS_3mapENS_6vectorES7_bxydS5_NSA_14adl_serializerENSD_IhNS5_IhEEEEEEEENS_4lessIvEELb1EEEEC2B8ne180100IiRKSL_EEOT_OT0_, symObjAddr: 0x12EF4, symBinAddr: 0x10001570C, symSize: 0x44 }
  - { offset: 0x49590, size: 0x8, addend: 0x0, symName: __ZNSt3__122__compressed_pair_elemINS_19__map_value_compareINS_12basic_stringIcNS_11char_traitsIcEENS_9allocatorIcEEEENS_12__value_typeIS7_N8nlohmann16json_abi_v3_11_210basic_jsonINS_3mapENS_6vectorES7_bxydS5_NSA_14adl_serializerENSD_IhNS5_IhEEEEEEEENS_4lessIvEELb1EEELi1ELb1EEC2B8ne180100IRKSL_vEEOT_, symObjAddr: 0x12F38, symBinAddr: 0x100015750, symSize: 0x18 }
  - { offset: 0x495D2, size: 0x8, addend: 0x0, symName: __ZNKSt3__117__compressed_pairIPNS_3mapINS_12basic_stringIcNS_11char_traitsIcEENS_9allocatorIcEEEEN8nlohmann16json_abi_v3_11_210basic_jsonIS1_NS_6vectorES7_bxydS5_NS9_14adl_serializerENSB_IhNS5_IhEEEEEENS_4lessIvEENS5_INS_4pairIKS7_SF_EEEEEEZNSF_6createISM_JEEEPT_DpOT0_EUlSN_E_E5firstB8ne180100Ev, symObjAddr: 0x12F50, symBinAddr: 0x100015768, symSize: 0x24 }
  - { offset: 0x495F8, size: 0x8, addend: 0x0, symName: __ZNKSt3__122__compressed_pair_elemIPNS_3mapINS_12basic_stringIcNS_11char_traitsIcEENS_9allocatorIcEEEEN8nlohmann16json_abi_v3_11_210basic_jsonIS1_NS_6vectorES7_bxydS5_NS9_14adl_serializerENSB_IhNS5_IhEEEEEENS_4lessIvEENS5_INS_4pairIKS7_SF_EEEEEELi0ELb0EE5__getB8ne180100Ev, symObjAddr: 0x12F74, symBinAddr: 0x10001578C, symSize: 0x14 }
  - { offset: 0x4961E, size: 0x8, addend: 0x0, symName: __ZNKSt3__110unique_ptrINS_3mapINS_12basic_stringIcNS_11char_traitsIcEENS_9allocatorIcEEEEN8nlohmann16json_abi_v3_11_210basic_jsonIS1_NS_6vectorES7_bxydS5_NS9_14adl_serializerENSB_IhNS5_IhEEEEEENS_4lessIvEENS5_INS_4pairIKS7_SF_EEEEEEZNSF_6createISM_JEEEPT_DpOT0_EUlPSM_E_EcvbB8ne180100Ev, symObjAddr: 0x12F88, symBinAddr: 0x1000157A0, symSize: 0x34 }
  - { offset: 0x49644, size: 0x8, addend: 0x0, symName: __ZNSt3__117__compressed_pairIPNS_3mapINS_12basic_stringIcNS_11char_traitsIcEENS_9allocatorIcEEEEN8nlohmann16json_abi_v3_11_210basic_jsonIS1_NS_6vectorES7_bxydS5_NS9_14adl_serializerENSB_IhNS5_IhEEEEEENS_4lessIvEENS5_INS_4pairIKS7_SF_EEEEEEZNSF_6createISM_JEEEPT_DpOT0_EUlSN_E_E5firstB8ne180100Ev, symObjAddr: 0x12FBC, symBinAddr: 0x1000157D4, symSize: 0x24 }
  - { offset: 0x4966A, size: 0x8, addend: 0x0, symName: __ZNSt3__122__compressed_pair_elemIPNS_3mapINS_12basic_stringIcNS_11char_traitsIcEENS_9allocatorIcEEEEN8nlohmann16json_abi_v3_11_210basic_jsonIS1_NS_6vectorES7_bxydS5_NS9_14adl_serializerENSB_IhNS5_IhEEEEEENS_4lessIvEENS5_INS_4pairIKS7_SF_EEEEEELi0ELb0EE5__getB8ne180100Ev, symObjAddr: 0x12FE0, symBinAddr: 0x1000157F8, symSize: 0x14 }
  - { offset: 0x49690, size: 0x8, addend: 0x0, symName: __ZNSt3__110unique_ptrINS_3mapINS_12basic_stringIcNS_11char_traitsIcEENS_9allocatorIcEEEEN8nlohmann16json_abi_v3_11_210basic_jsonIS1_NS_6vectorES7_bxydS5_NS9_14adl_serializerENSB_IhNS5_IhEEEEEENS_4lessIvEENS5_INS_4pairIKS7_SF_EEEEEEZNSF_6createISM_JEEEPT_DpOT0_EUlPSM_E_ED2B8ne180100Ev, symObjAddr: 0x12FF4, symBinAddr: 0x10001580C, symSize: 0x30 }
  - { offset: 0x496BA, size: 0x8, addend: 0x0, symName: __ZNSt3__110unique_ptrINS_3mapINS_12basic_stringIcNS_11char_traitsIcEENS_9allocatorIcEEEEN8nlohmann16json_abi_v3_11_210basic_jsonIS1_NS_6vectorES7_bxydS5_NS9_14adl_serializerENSB_IhNS5_IhEEEEEENS_4lessIvEENS5_INS_4pairIKS7_SF_EEEEEEZNSF_6createISM_JEEEPT_DpOT0_EUlPSM_E_E5resetB8ne180100EST_, symObjAddr: 0x13024, symBinAddr: 0x10001583C, symSize: 0x80 }
  - { offset: 0x496FE, size: 0x8, addend: 0x0, symName: __ZNSt3__117__compressed_pairIPNS_3mapINS_12basic_stringIcNS_11char_traitsIcEENS_9allocatorIcEEEEN8nlohmann16json_abi_v3_11_210basic_jsonIS1_NS_6vectorES7_bxydS5_NS9_14adl_serializerENSB_IhNS5_IhEEEEEENS_4lessIvEENS5_INS_4pairIKS7_SF_EEEEEEZNSF_6createISM_JEEEPT_DpOT0_EUlSN_E_E6secondB8ne180100Ev, symObjAddr: 0x130A4, symBinAddr: 0x1000158BC, symSize: 0x28 }
  - { offset: 0x4972A, size: 0x8, addend: 0x0, symName: __ZZN8nlohmann16json_abi_v3_11_210basic_jsonINSt3__13mapENS2_6vectorENS2_12basic_stringIcNS2_11char_traitsIcEENS2_9allocatorIcEEEEbxydS8_NS0_14adl_serializerENS4_IhNS8_IhEEEEE6createINS3_ISA_SE_NS2_4lessIvEENS8_INS2_4pairIKSA_SE_EEEEEEJEEEPT_DpOT0_ENKUlPSM_E_clESS_, symObjAddr: 0x130CC, symBinAddr: 0x1000158E4, symSize: 0x34 }
  - { offset: 0x49763, size: 0x8, addend: 0x0, symName: __ZNSt3__122__compressed_pair_elemIZN8nlohmann16json_abi_v3_11_210basic_jsonINS_3mapENS_6vectorENS_12basic_stringIcNS_11char_traitsIcEENS_9allocatorIcEEEEbxydS9_NS2_14adl_serializerENS5_IhNS9_IhEEEEE6createINS4_ISB_SF_NS_4lessIvEENS9_INS_4pairIKSB_SF_EEEEEEJEEEPT_DpOT0_EUlPSN_E_Li1ELb0EE5__getB8ne180100Ev, symObjAddr: 0x13100, symBinAddr: 0x100015918, symSize: 0x14 }
  - { offset: 0x49789, size: 0x8, addend: 0x0, symName: __ZNSt3__116allocator_traitsINS_9allocatorINS_6vectorIN8nlohmann16json_abi_v3_11_210basic_jsonINS_3mapES2_NS_12basic_stringIcNS_11char_traitsIcEENS1_IcEEEEbxydS1_NS4_14adl_serializerENS2_IhNS1_IhEEEEEENS1_ISF_EEEEEEE8allocateB8ne180100ERSI_m, symObjAddr: 0x13114, symBinAddr: 0x10001592C, symSize: 0x2C }
  - { offset: 0x4985D, size: 0x8, addend: 0x0, symName: __ZNSt3__110unique_ptrINS_6vectorIN8nlohmann16json_abi_v3_11_210basic_jsonINS_3mapES1_NS_12basic_stringIcNS_11char_traitsIcEENS_9allocatorIcEEEEbxydS9_NS3_14adl_serializerENS1_IhNS9_IhEEEEEENS9_ISF_EEEEZNSF_6createISH_JEEEPT_DpOT0_EUlPSH_E_EC1B8ne180100ILb1EvEESO_NS_16__dependent_typeINS_27__unique_ptr_deleter_sfinaeISP_EEXT_EE15__lval_ref_typeE, symObjAddr: 0x13140, symBinAddr: 0x100015958, symSize: 0x3C }
  - { offset: 0x498AE, size: 0x8, addend: 0x0, symName: __ZNSt3__116allocator_traitsINS_9allocatorINS_6vectorIN8nlohmann16json_abi_v3_11_210basic_jsonINS_3mapES2_NS_12basic_stringIcNS_11char_traitsIcEENS1_IcEEEEbxydS1_NS4_14adl_serializerENS2_IhNS1_IhEEEEEENS1_ISF_EEEEEEE9constructB8ne180100ISH_JEvEEvRSI_PT_DpOT0_, symObjAddr: 0x1317C, symBinAddr: 0x100015994, symSize: 0x2C }
  - { offset: 0x498F0, size: 0x8, addend: 0x0, symName: __ZNKSt3__110unique_ptrINS_6vectorIN8nlohmann16json_abi_v3_11_210basic_jsonINS_3mapES1_NS_12basic_stringIcNS_11char_traitsIcEENS_9allocatorIcEEEEbxydS9_NS3_14adl_serializerENS1_IhNS9_IhEEEEEENS9_ISF_EEEEZNSF_6createISH_JEEEPT_DpOT0_EUlPSH_E_E3getB8ne180100Ev, symObjAddr: 0x131A8, symBinAddr: 0x1000159C0, symSize: 0x28 }
  - { offset: 0x49916, size: 0x8, addend: 0x0, symName: __ZNSt3__110unique_ptrINS_6vectorIN8nlohmann16json_abi_v3_11_210basic_jsonINS_3mapES1_NS_12basic_stringIcNS_11char_traitsIcEENS_9allocatorIcEEEEbxydS9_NS3_14adl_serializerENS1_IhNS9_IhEEEEEENS9_ISF_EEEEZNSF_6createISH_JEEEPT_DpOT0_EUlPSH_E_E7releaseB8ne180100Ev, symObjAddr: 0x131FC, symBinAddr: 0x100015A14, symSize: 0x44 }
  - { offset: 0x4994B, size: 0x8, addend: 0x0, symName: __ZNSt3__110unique_ptrINS_6vectorIN8nlohmann16json_abi_v3_11_210basic_jsonINS_3mapES1_NS_12basic_stringIcNS_11char_traitsIcEENS_9allocatorIcEEEEbxydS9_NS3_14adl_serializerENS1_IhNS9_IhEEEEEENS9_ISF_EEEEZNSF_6createISH_JEEEPT_DpOT0_EUlPSH_E_ED1B8ne180100Ev, symObjAddr: 0x13240, symBinAddr: 0x100015A58, symSize: 0x2C }
  - { offset: 0x49975, size: 0x8, addend: 0x0, symName: __ZNSt3__19allocatorINS_6vectorIN8nlohmann16json_abi_v3_11_210basic_jsonINS_3mapES1_NS_12basic_stringIcNS_11char_traitsIcEENS0_IcEEEEbxydS0_NS3_14adl_serializerENS1_IhNS0_IhEEEEEENS0_ISE_EEEEE8allocateB8ne180100Em, symObjAddr: 0x1326C, symBinAddr: 0x100015A84, symSize: 0x5C }
  - { offset: 0x499B4, size: 0x8, addend: 0x0, symName: __ZNSt3__116allocator_traitsINS_9allocatorINS_6vectorIN8nlohmann16json_abi_v3_11_210basic_jsonINS_3mapES2_NS_12basic_stringIcNS_11char_traitsIcEENS1_IcEEEEbxydS1_NS4_14adl_serializerENS2_IhNS1_IhEEEEEENS1_ISF_EEEEEEE8max_sizeB8ne180100ISI_vEEmRKSI_, symObjAddr: 0x132C8, symBinAddr: 0x100015AE0, symSize: 0x24 }
  - { offset: 0x499E2, size: 0x8, addend: 0x0, symName: __ZNKSt3__19allocatorINS_6vectorIN8nlohmann16json_abi_v3_11_210basic_jsonINS_3mapES1_NS_12basic_stringIcNS_11char_traitsIcEENS0_IcEEEEbxydS0_NS3_14adl_serializerENS1_IhNS0_IhEEEEEENS0_ISE_EEEEE8max_sizeB8ne180100Ev, symObjAddr: 0x132EC, symBinAddr: 0x100015B04, symSize: 0x18 }
  - { offset: 0x49A08, size: 0x8, addend: 0x0, symName: __ZNSt3__110unique_ptrINS_6vectorIN8nlohmann16json_abi_v3_11_210basic_jsonINS_3mapES1_NS_12basic_stringIcNS_11char_traitsIcEENS_9allocatorIcEEEEbxydS9_NS3_14adl_serializerENS1_IhNS9_IhEEEEEENS9_ISF_EEEEZNSF_6createISH_JEEEPT_DpOT0_EUlPSH_E_EC2B8ne180100ILb1EvEESO_NS_16__dependent_typeINS_27__unique_ptr_deleter_sfinaeISP_EEXT_EE15__lval_ref_typeE, symObjAddr: 0x13304, symBinAddr: 0x100015B1C, symSize: 0x48 }
  - { offset: 0x49A59, size: 0x8, addend: 0x0, symName: __ZNSt3__117__compressed_pairIPNS_6vectorIN8nlohmann16json_abi_v3_11_210basic_jsonINS_3mapES1_NS_12basic_stringIcNS_11char_traitsIcEENS_9allocatorIcEEEEbxydS9_NS3_14adl_serializerENS1_IhNS9_IhEEEEEENS9_ISF_EEEEZNSF_6createISH_JEEEPT_DpOT0_EUlSI_E_EC1B8ne180100IRSI_RKSP_EEOSK_OT0_, symObjAddr: 0x1334C, symBinAddr: 0x100015B64, symSize: 0x3C }
  - { offset: 0x49AB1, size: 0x8, addend: 0x0, symName: __ZNSt3__117__compressed_pairIPNS_6vectorIN8nlohmann16json_abi_v3_11_210basic_jsonINS_3mapES1_NS_12basic_stringIcNS_11char_traitsIcEENS_9allocatorIcEEEEbxydS9_NS3_14adl_serializerENS1_IhNS9_IhEEEEEENS9_ISF_EEEEZNSF_6createISH_JEEEPT_DpOT0_EUlSI_E_EC2B8ne180100IRSI_RKSP_EEOSK_OT0_, symObjAddr: 0x13388, symBinAddr: 0x100015BA0, symSize: 0x48 }
  - { offset: 0x49B09, size: 0x8, addend: 0x0, symName: __ZNSt3__122__compressed_pair_elemIPNS_6vectorIN8nlohmann16json_abi_v3_11_210basic_jsonINS_3mapES1_NS_12basic_stringIcNS_11char_traitsIcEENS_9allocatorIcEEEEbxydS9_NS3_14adl_serializerENS1_IhNS9_IhEEEEEENS9_ISF_EEEELi0ELb0EEC2B8ne180100IRSI_vEEOT_, symObjAddr: 0x133D0, symBinAddr: 0x100015BE8, symSize: 0x24 }
  - { offset: 0x49B4B, size: 0x8, addend: 0x0, symName: __ZNSt3__122__compressed_pair_elemIZN8nlohmann16json_abi_v3_11_210basic_jsonINS_3mapENS_6vectorENS_12basic_stringIcNS_11char_traitsIcEENS_9allocatorIcEEEEbxydS9_NS2_14adl_serializerENS5_IhNS9_IhEEEEE6createINS5_ISF_NS9_ISF_EEEEJEEEPT_DpOT0_EUlPSI_E_Li1ELb0EEC2B8ne180100IRKSP_vEEOSJ_, symObjAddr: 0x133F4, symBinAddr: 0x100015C0C, symSize: 0x24 }
  - { offset: 0x49B8D, size: 0x8, addend: 0x0, symName: __ZNSt3__19allocatorINS_6vectorIN8nlohmann16json_abi_v3_11_210basic_jsonINS_3mapES1_NS_12basic_stringIcNS_11char_traitsIcEENS0_IcEEEEbxydS0_NS3_14adl_serializerENS1_IhNS0_IhEEEEEENS0_ISE_EEEEE9constructB8ne180100ISG_JEEEvPT_DpOT0_, symObjAddr: 0x13418, symBinAddr: 0x100015C30, symSize: 0x28 }
  - { offset: 0x49BCF, size: 0x8, addend: 0x0, symName: __ZNKSt3__117__compressed_pairIPNS_6vectorIN8nlohmann16json_abi_v3_11_210basic_jsonINS_3mapES1_NS_12basic_stringIcNS_11char_traitsIcEENS_9allocatorIcEEEEbxydS9_NS3_14adl_serializerENS1_IhNS9_IhEEEEEENS9_ISF_EEEEZNSF_6createISH_JEEEPT_DpOT0_EUlSI_E_E5firstB8ne180100Ev, symObjAddr: 0x13440, symBinAddr: 0x100015C58, symSize: 0x24 }
  - { offset: 0x49BF5, size: 0x8, addend: 0x0, symName: __ZNKSt3__122__compressed_pair_elemIPNS_6vectorIN8nlohmann16json_abi_v3_11_210basic_jsonINS_3mapES1_NS_12basic_stringIcNS_11char_traitsIcEENS_9allocatorIcEEEEbxydS9_NS3_14adl_serializerENS1_IhNS9_IhEEEEEENS9_ISF_EEEELi0ELb0EE5__getB8ne180100Ev, symObjAddr: 0x13464, symBinAddr: 0x100015C7C, symSize: 0x14 }
  - { offset: 0x49C1B, size: 0x8, addend: 0x0, symName: __ZNKSt3__110unique_ptrINS_6vectorIN8nlohmann16json_abi_v3_11_210basic_jsonINS_3mapES1_NS_12basic_stringIcNS_11char_traitsIcEENS_9allocatorIcEEEEbxydS9_NS3_14adl_serializerENS1_IhNS9_IhEEEEEENS9_ISF_EEEEZNSF_6createISH_JEEEPT_DpOT0_EUlPSH_E_EcvbB8ne180100Ev, symObjAddr: 0x13478, symBinAddr: 0x100015C90, symSize: 0x34 }
  - { offset: 0x49C41, size: 0x8, addend: 0x0, symName: __ZNSt3__117__compressed_pairIPNS_6vectorIN8nlohmann16json_abi_v3_11_210basic_jsonINS_3mapES1_NS_12basic_stringIcNS_11char_traitsIcEENS_9allocatorIcEEEEbxydS9_NS3_14adl_serializerENS1_IhNS9_IhEEEEEENS9_ISF_EEEEZNSF_6createISH_JEEEPT_DpOT0_EUlSI_E_E5firstB8ne180100Ev, symObjAddr: 0x134AC, symBinAddr: 0x100015CC4, symSize: 0x24 }
  - { offset: 0x49C67, size: 0x8, addend: 0x0, symName: __ZNSt3__122__compressed_pair_elemIPNS_6vectorIN8nlohmann16json_abi_v3_11_210basic_jsonINS_3mapES1_NS_12basic_stringIcNS_11char_traitsIcEENS_9allocatorIcEEEEbxydS9_NS3_14adl_serializerENS1_IhNS9_IhEEEEEENS9_ISF_EEEELi0ELb0EE5__getB8ne180100Ev, symObjAddr: 0x134D0, symBinAddr: 0x100015CE8, symSize: 0x14 }
  - { offset: 0x49C8D, size: 0x8, addend: 0x0, symName: __ZNSt3__110unique_ptrINS_6vectorIN8nlohmann16json_abi_v3_11_210basic_jsonINS_3mapES1_NS_12basic_stringIcNS_11char_traitsIcEENS_9allocatorIcEEEEbxydS9_NS3_14adl_serializerENS1_IhNS9_IhEEEEEENS9_ISF_EEEEZNSF_6createISH_JEEEPT_DpOT0_EUlPSH_E_ED2B8ne180100Ev, symObjAddr: 0x134E4, symBinAddr: 0x100015CFC, symSize: 0x30 }
  - { offset: 0x49CB7, size: 0x8, addend: 0x0, symName: __ZNSt3__110unique_ptrINS_6vectorIN8nlohmann16json_abi_v3_11_210basic_jsonINS_3mapES1_NS_12basic_stringIcNS_11char_traitsIcEENS_9allocatorIcEEEEbxydS9_NS3_14adl_serializerENS1_IhNS9_IhEEEEEENS9_ISF_EEEEZNSF_6createISH_JEEEPT_DpOT0_EUlPSH_E_E5resetB8ne180100ESO_, symObjAddr: 0x13514, symBinAddr: 0x100015D2C, symSize: 0x80 }
  - { offset: 0x49CFB, size: 0x8, addend: 0x0, symName: __ZNSt3__117__compressed_pairIPNS_6vectorIN8nlohmann16json_abi_v3_11_210basic_jsonINS_3mapES1_NS_12basic_stringIcNS_11char_traitsIcEENS_9allocatorIcEEEEbxydS9_NS3_14adl_serializerENS1_IhNS9_IhEEEEEENS9_ISF_EEEEZNSF_6createISH_JEEEPT_DpOT0_EUlSI_E_E6secondB8ne180100Ev, symObjAddr: 0x13594, symBinAddr: 0x100015DAC, symSize: 0x28 }
  - { offset: 0x49D27, size: 0x8, addend: 0x0, symName: __ZZN8nlohmann16json_abi_v3_11_210basic_jsonINSt3__13mapENS2_6vectorENS2_12basic_stringIcNS2_11char_traitsIcEENS2_9allocatorIcEEEEbxydS8_NS0_14adl_serializerENS4_IhNS8_IhEEEEE6createINS4_ISE_NS8_ISE_EEEEJEEEPT_DpOT0_ENKUlPSH_E_clESN_, symObjAddr: 0x135BC, symBinAddr: 0x100015DD4, symSize: 0x34 }
  - { offset: 0x49D60, size: 0x8, addend: 0x0, symName: __ZNSt3__122__compressed_pair_elemIZN8nlohmann16json_abi_v3_11_210basic_jsonINS_3mapENS_6vectorENS_12basic_stringIcNS_11char_traitsIcEENS_9allocatorIcEEEEbxydS9_NS2_14adl_serializerENS5_IhNS9_IhEEEEE6createINS5_ISF_NS9_ISF_EEEEJEEEPT_DpOT0_EUlPSI_E_Li1ELb0EE5__getB8ne180100Ev, symObjAddr: 0x135F0, symBinAddr: 0x100015E08, symSize: 0x14 }
  - { offset: 0x49D86, size: 0x8, addend: 0x0, symName: __ZNSt3__116allocator_traitsINS_9allocatorINS_12basic_stringIcNS_11char_traitsIcEENS1_IcEEEEEEE8allocateB8ne180100ERS7_m, symObjAddr: 0x13604, symBinAddr: 0x100015E1C, symSize: 0x2C }
  - { offset: 0x49E2C, size: 0x8, addend: 0x0, symName: __ZNSt3__110unique_ptrINS_12basic_stringIcNS_11char_traitsIcEENS_9allocatorIcEEEEZN8nlohmann16json_abi_v3_11_210basic_jsonINS_3mapENS_6vectorES6_bxydS4_NS8_14adl_serializerENSB_IhNS4_IhEEEEE6createIS6_JRA1_KcEEEPT_DpOT0_EUlPS6_E_EC1B8ne180100ILb1EvEESP_NS_16__dependent_typeINS_27__unique_ptr_deleter_sfinaeISQ_EEXT_EE15__lval_ref_typeE, symObjAddr: 0x13630, symBinAddr: 0x100015E48, symSize: 0x3C }
  - { offset: 0x49E7D, size: 0x8, addend: 0x0, symName: __ZNSt3__116allocator_traitsINS_9allocatorINS_12basic_stringIcNS_11char_traitsIcEENS1_IcEEEEEEE9constructB8ne180100IS6_JRA1_KcEvEEvRS7_PT_DpOT0_, symObjAddr: 0x1366C, symBinAddr: 0x100015E84, symSize: 0x34 }
  - { offset: 0x49ED4, size: 0x8, addend: 0x0, symName: __ZNKSt3__110unique_ptrINS_12basic_stringIcNS_11char_traitsIcEENS_9allocatorIcEEEEZN8nlohmann16json_abi_v3_11_210basic_jsonINS_3mapENS_6vectorES6_bxydS4_NS8_14adl_serializerENSB_IhNS4_IhEEEEE6createIS6_JRA1_KcEEEPT_DpOT0_EUlPS6_E_E3getB8ne180100Ev, symObjAddr: 0x136A0, symBinAddr: 0x100015EB8, symSize: 0x28 }
  - { offset: 0x49EFA, size: 0x8, addend: 0x0, symName: __ZNSt3__110unique_ptrINS_12basic_stringIcNS_11char_traitsIcEENS_9allocatorIcEEEEZN8nlohmann16json_abi_v3_11_210basic_jsonINS_3mapENS_6vectorES6_bxydS4_NS8_14adl_serializerENSB_IhNS4_IhEEEEE6createIS6_JRA1_KcEEEPT_DpOT0_EUlPS6_E_E7releaseB8ne180100Ev, symObjAddr: 0x136F4, symBinAddr: 0x100015F0C, symSize: 0x44 }
  - { offset: 0x49F2F, size: 0x8, addend: 0x0, symName: __ZNSt3__110unique_ptrINS_12basic_stringIcNS_11char_traitsIcEENS_9allocatorIcEEEEZN8nlohmann16json_abi_v3_11_210basic_jsonINS_3mapENS_6vectorES6_bxydS4_NS8_14adl_serializerENSB_IhNS4_IhEEEEE6createIS6_JRA1_KcEEEPT_DpOT0_EUlPS6_E_ED1B8ne180100Ev, symObjAddr: 0x13738, symBinAddr: 0x100015F50, symSize: 0x2C }
  - { offset: 0x49F59, size: 0x8, addend: 0x0, symName: __ZNSt3__19allocatorINS_12basic_stringIcNS_11char_traitsIcEENS0_IcEEEEE8allocateB8ne180100Em, symObjAddr: 0x13764, symBinAddr: 0x100015F7C, symSize: 0x5C }
  - { offset: 0x49F98, size: 0x8, addend: 0x0, symName: __ZNSt3__116allocator_traitsINS_9allocatorINS_12basic_stringIcNS_11char_traitsIcEENS1_IcEEEEEEE8max_sizeB8ne180100IS7_vEEmRKS7_, symObjAddr: 0x137C0, symBinAddr: 0x100015FD8, symSize: 0x24 }
  - { offset: 0x49FC6, size: 0x8, addend: 0x0, symName: __ZNKSt3__19allocatorINS_12basic_stringIcNS_11char_traitsIcEENS0_IcEEEEE8max_sizeB8ne180100Ev, symObjAddr: 0x137E4, symBinAddr: 0x100015FFC, symSize: 0x18 }
  - { offset: 0x49FEC, size: 0x8, addend: 0x0, symName: __ZNSt3__110unique_ptrINS_12basic_stringIcNS_11char_traitsIcEENS_9allocatorIcEEEEZN8nlohmann16json_abi_v3_11_210basic_jsonINS_3mapENS_6vectorES6_bxydS4_NS8_14adl_serializerENSB_IhNS4_IhEEEEE6createIS6_JRA1_KcEEEPT_DpOT0_EUlPS6_E_EC2B8ne180100ILb1EvEESP_NS_16__dependent_typeINS_27__unique_ptr_deleter_sfinaeISQ_EEXT_EE15__lval_ref_typeE, symObjAddr: 0x137FC, symBinAddr: 0x100016014, symSize: 0x48 }
  - { offset: 0x4A03D, size: 0x8, addend: 0x0, symName: __ZNSt3__117__compressed_pairIPNS_12basic_stringIcNS_11char_traitsIcEENS_9allocatorIcEEEEZN8nlohmann16json_abi_v3_11_210basic_jsonINS_3mapENS_6vectorES6_bxydS4_NS9_14adl_serializerENSC_IhNS4_IhEEEEE6createIS6_JRA1_KcEEEPT_DpOT0_EUlS7_E_EC1B8ne180100IRS7_RKSQ_EEOSL_OT0_, symObjAddr: 0x13844, symBinAddr: 0x10001605C, symSize: 0x3C }
  - { offset: 0x4A095, size: 0x8, addend: 0x0, symName: __ZNSt3__117__compressed_pairIPNS_12basic_stringIcNS_11char_traitsIcEENS_9allocatorIcEEEEZN8nlohmann16json_abi_v3_11_210basic_jsonINS_3mapENS_6vectorES6_bxydS4_NS9_14adl_serializerENSC_IhNS4_IhEEEEE6createIS6_JRA1_KcEEEPT_DpOT0_EUlS7_E_EC2B8ne180100IRS7_RKSQ_EEOSL_OT0_, symObjAddr: 0x13880, symBinAddr: 0x100016098, symSize: 0x48 }
  - { offset: 0x4A0ED, size: 0x8, addend: 0x0, symName: __ZNSt3__122__compressed_pair_elemIPNS_12basic_stringIcNS_11char_traitsIcEENS_9allocatorIcEEEELi0ELb0EEC2B8ne180100IRS7_vEEOT_, symObjAddr: 0x138C8, symBinAddr: 0x1000160E0, symSize: 0x24 }
  - { offset: 0x4A12F, size: 0x8, addend: 0x0, symName: __ZNSt3__122__compressed_pair_elemIZN8nlohmann16json_abi_v3_11_210basic_jsonINS_3mapENS_6vectorENS_12basic_stringIcNS_11char_traitsIcEENS_9allocatorIcEEEEbxydS9_NS2_14adl_serializerENS5_IhNS9_IhEEEEE6createISB_JRA1_KcEEEPT_DpOT0_EUlPSB_E_Li1ELb0EEC2B8ne180100IRKSQ_vEEOSK_, symObjAddr: 0x138EC, symBinAddr: 0x100016104, symSize: 0x24 }
  - { offset: 0x4A171, size: 0x8, addend: 0x0, symName: __ZNSt3__19allocatorINS_12basic_stringIcNS_11char_traitsIcEENS0_IcEEEEE9constructB8ne180100IS5_JRA1_KcEEEvPT_DpOT0_, symObjAddr: 0x13910, symBinAddr: 0x100016128, symSize: 0x30 }
  - { offset: 0x4A1C7, size: 0x8, addend: 0x0, symName: __ZNKSt3__117__compressed_pairIPNS_12basic_stringIcNS_11char_traitsIcEENS_9allocatorIcEEEEZN8nlohmann16json_abi_v3_11_210basic_jsonINS_3mapENS_6vectorES6_bxydS4_NS9_14adl_serializerENSC_IhNS4_IhEEEEE6createIS6_JRA1_KcEEEPT_DpOT0_EUlS7_E_E5firstB8ne180100Ev, symObjAddr: 0x13940, symBinAddr: 0x100016158, symSize: 0x24 }
  - { offset: 0x4A1ED, size: 0x8, addend: 0x0, symName: __ZNKSt3__110unique_ptrINS_12basic_stringIcNS_11char_traitsIcEENS_9allocatorIcEEEEZN8nlohmann16json_abi_v3_11_210basic_jsonINS_3mapENS_6vectorES6_bxydS4_NS8_14adl_serializerENSB_IhNS4_IhEEEEE6createIS6_JRA1_KcEEEPT_DpOT0_EUlPS6_E_EcvbB8ne180100Ev, symObjAddr: 0x13964, symBinAddr: 0x10001617C, symSize: 0x34 }
  - { offset: 0x4A213, size: 0x8, addend: 0x0, symName: __ZNSt3__117__compressed_pairIPNS_12basic_stringIcNS_11char_traitsIcEENS_9allocatorIcEEEEZN8nlohmann16json_abi_v3_11_210basic_jsonINS_3mapENS_6vectorES6_bxydS4_NS9_14adl_serializerENSC_IhNS4_IhEEEEE6createIS6_JRA1_KcEEEPT_DpOT0_EUlS7_E_E5firstB8ne180100Ev, symObjAddr: 0x13998, symBinAddr: 0x1000161B0, symSize: 0x24 }
  - { offset: 0x4A239, size: 0x8, addend: 0x0, symName: __ZNSt3__122__compressed_pair_elemIPNS_12basic_stringIcNS_11char_traitsIcEENS_9allocatorIcEEEELi0ELb0EE5__getB8ne180100Ev, symObjAddr: 0x139BC, symBinAddr: 0x1000161D4, symSize: 0x14 }
  - { offset: 0x4A25F, size: 0x8, addend: 0x0, symName: __ZNSt3__110unique_ptrINS_12basic_stringIcNS_11char_traitsIcEENS_9allocatorIcEEEEZN8nlohmann16json_abi_v3_11_210basic_jsonINS_3mapENS_6vectorES6_bxydS4_NS8_14adl_serializerENSB_IhNS4_IhEEEEE6createIS6_JRA1_KcEEEPT_DpOT0_EUlPS6_E_ED2B8ne180100Ev, symObjAddr: 0x139D0, symBinAddr: 0x1000161E8, symSize: 0x30 }
  - { offset: 0x4A289, size: 0x8, addend: 0x0, symName: __ZNSt3__110unique_ptrINS_12basic_stringIcNS_11char_traitsIcEENS_9allocatorIcEEEEZN8nlohmann16json_abi_v3_11_210basic_jsonINS_3mapENS_6vectorES6_bxydS4_NS8_14adl_serializerENSB_IhNS4_IhEEEEE6createIS6_JRA1_KcEEEPT_DpOT0_EUlPS6_E_E5resetB8ne180100ESP_, symObjAddr: 0x13A00, symBinAddr: 0x100016218, symSize: 0x80 }
  - { offset: 0x4A2CD, size: 0x8, addend: 0x0, symName: __ZNSt3__117__compressed_pairIPNS_12basic_stringIcNS_11char_traitsIcEENS_9allocatorIcEEEEZN8nlohmann16json_abi_v3_11_210basic_jsonINS_3mapENS_6vectorES6_bxydS4_NS9_14adl_serializerENSC_IhNS4_IhEEEEE6createIS6_JRA1_KcEEEPT_DpOT0_EUlS7_E_E6secondB8ne180100Ev, symObjAddr: 0x13A80, symBinAddr: 0x100016298, symSize: 0x28 }
  - { offset: 0x4A2F9, size: 0x8, addend: 0x0, symName: __ZZN8nlohmann16json_abi_v3_11_210basic_jsonINSt3__13mapENS2_6vectorENS2_12basic_stringIcNS2_11char_traitsIcEENS2_9allocatorIcEEEEbxydS8_NS0_14adl_serializerENS4_IhNS8_IhEEEEE6createISA_JRA1_KcEEEPT_DpOT0_ENKUlPSA_E_clESO_, symObjAddr: 0x13AA8, symBinAddr: 0x1000162C0, symSize: 0x34 }
  - { offset: 0x4A332, size: 0x8, addend: 0x0, symName: __ZNSt3__122__compressed_pair_elemIZN8nlohmann16json_abi_v3_11_210basic_jsonINS_3mapENS_6vectorENS_12basic_stringIcNS_11char_traitsIcEENS_9allocatorIcEEEEbxydS9_NS2_14adl_serializerENS5_IhNS9_IhEEEEE6createISB_JRA1_KcEEEPT_DpOT0_EUlPSB_E_Li1ELb0EE5__getB8ne180100Ev, symObjAddr: 0x13ADC, symBinAddr: 0x1000162F4, symSize: 0x14 }
  - { offset: 0x4A358, size: 0x8, addend: 0x0, symName: __ZNSt3__116allocator_traitsINS_9allocatorIN8nlohmann16json_abi_v3_11_227byte_container_with_subtypeINS_6vectorIhNS1_IhEEEEEEEEE8allocateB8ne180100ERS9_m, symObjAddr: 0x13AF0, symBinAddr: 0x100016308, symSize: 0x2C }
  - { offset: 0x4A42C, size: 0x8, addend: 0x0, symName: __ZNSt3__110unique_ptrIN8nlohmann16json_abi_v3_11_227byte_container_with_subtypeINS_6vectorIhNS_9allocatorIhEEEEEEZNS2_10basic_jsonINS_3mapES4_NS_12basic_stringIcNS_11char_traitsIcEENS5_IcEEEEbxydS5_NS2_14adl_serializerES7_E6createIS8_JEEEPT_DpOT0_EUlPS8_E_EC1B8ne180100ILb1EvEESO_NS_16__dependent_typeINS_27__unique_ptr_deleter_sfinaeISP_EEXT_EE15__lval_ref_typeE, symObjAddr: 0x13B1C, symBinAddr: 0x100016334, symSize: 0x3C }
  - { offset: 0x4A47D, size: 0x8, addend: 0x0, symName: __ZNSt3__116allocator_traitsINS_9allocatorIN8nlohmann16json_abi_v3_11_227byte_container_with_subtypeINS_6vectorIhNS1_IhEEEEEEEEE9constructB8ne180100IS8_JEvEEvRS9_PT_DpOT0_, symObjAddr: 0x13B58, symBinAddr: 0x100016370, symSize: 0x2C }
  - { offset: 0x4A4BF, size: 0x8, addend: 0x0, symName: __ZNKSt3__110unique_ptrIN8nlohmann16json_abi_v3_11_227byte_container_with_subtypeINS_6vectorIhNS_9allocatorIhEEEEEEZNS2_10basic_jsonINS_3mapES4_NS_12basic_stringIcNS_11char_traitsIcEENS5_IcEEEEbxydS5_NS2_14adl_serializerES7_E6createIS8_JEEEPT_DpOT0_EUlPS8_E_E3getB8ne180100Ev, symObjAddr: 0x13B84, symBinAddr: 0x10001639C, symSize: 0x28 }
  - { offset: 0x4A4E5, size: 0x8, addend: 0x0, symName: __ZNSt3__110unique_ptrIN8nlohmann16json_abi_v3_11_227byte_container_with_subtypeINS_6vectorIhNS_9allocatorIhEEEEEEZNS2_10basic_jsonINS_3mapES4_NS_12basic_stringIcNS_11char_traitsIcEENS5_IcEEEEbxydS5_NS2_14adl_serializerES7_E6createIS8_JEEEPT_DpOT0_EUlPS8_E_E7releaseB8ne180100Ev, symObjAddr: 0x13BD8, symBinAddr: 0x1000163F0, symSize: 0x44 }
  - { offset: 0x4A51A, size: 0x8, addend: 0x0, symName: __ZNSt3__110unique_ptrIN8nlohmann16json_abi_v3_11_227byte_container_with_subtypeINS_6vectorIhNS_9allocatorIhEEEEEEZNS2_10basic_jsonINS_3mapES4_NS_12basic_stringIcNS_11char_traitsIcEENS5_IcEEEEbxydS5_NS2_14adl_serializerES7_E6createIS8_JEEEPT_DpOT0_EUlPS8_E_ED1B8ne180100Ev, symObjAddr: 0x13C1C, symBinAddr: 0x100016434, symSize: 0x2C }
  - { offset: 0x4A544, size: 0x8, addend: 0x0, symName: __ZNSt3__19allocatorIN8nlohmann16json_abi_v3_11_227byte_container_with_subtypeINS_6vectorIhNS0_IhEEEEEEE8allocateB8ne180100Em, symObjAddr: 0x13C48, symBinAddr: 0x100016460, symSize: 0x5C }
  - { offset: 0x4A583, size: 0x8, addend: 0x0, symName: __ZNSt3__116allocator_traitsINS_9allocatorIN8nlohmann16json_abi_v3_11_227byte_container_with_subtypeINS_6vectorIhNS1_IhEEEEEEEEE8max_sizeB8ne180100IS9_vEEmRKS9_, symObjAddr: 0x13CA4, symBinAddr: 0x1000164BC, symSize: 0x24 }
  - { offset: 0x4A5B1, size: 0x8, addend: 0x0, symName: __ZNKSt3__19allocatorIN8nlohmann16json_abi_v3_11_227byte_container_with_subtypeINS_6vectorIhNS0_IhEEEEEEE8max_sizeB8ne180100Ev, symObjAddr: 0x13CC8, symBinAddr: 0x1000164E0, symSize: 0x18 }
  - { offset: 0x4A5D7, size: 0x8, addend: 0x0, symName: __ZNSt3__110unique_ptrIN8nlohmann16json_abi_v3_11_227byte_container_with_subtypeINS_6vectorIhNS_9allocatorIhEEEEEEZNS2_10basic_jsonINS_3mapES4_NS_12basic_stringIcNS_11char_traitsIcEENS5_IcEEEEbxydS5_NS2_14adl_serializerES7_E6createIS8_JEEEPT_DpOT0_EUlPS8_E_EC2B8ne180100ILb1EvEESO_NS_16__dependent_typeINS_27__unique_ptr_deleter_sfinaeISP_EEXT_EE15__lval_ref_typeE, symObjAddr: 0x13CE0, symBinAddr: 0x1000164F8, symSize: 0x48 }
  - { offset: 0x4A628, size: 0x8, addend: 0x0, symName: __ZNSt3__117__compressed_pairIPN8nlohmann16json_abi_v3_11_227byte_container_with_subtypeINS_6vectorIhNS_9allocatorIhEEEEEEZNS2_10basic_jsonINS_3mapES4_NS_12basic_stringIcNS_11char_traitsIcEENS5_IcEEEEbxydS5_NS2_14adl_serializerES7_E6createIS8_JEEEPT_DpOT0_EUlS9_E_EC1B8ne180100IRS9_RKSP_EEOSK_OT0_, symObjAddr: 0x13D28, symBinAddr: 0x100016540, symSize: 0x3C }
  - { offset: 0x4A680, size: 0x8, addend: 0x0, symName: __ZNSt3__117__compressed_pairIPN8nlohmann16json_abi_v3_11_227byte_container_with_subtypeINS_6vectorIhNS_9allocatorIhEEEEEEZNS2_10basic_jsonINS_3mapES4_NS_12basic_stringIcNS_11char_traitsIcEENS5_IcEEEEbxydS5_NS2_14adl_serializerES7_E6createIS8_JEEEPT_DpOT0_EUlS9_E_EC2B8ne180100IRS9_RKSP_EEOSK_OT0_, symObjAddr: 0x13D64, symBinAddr: 0x10001657C, symSize: 0x48 }
  - { offset: 0x4A6D8, size: 0x8, addend: 0x0, symName: __ZNSt3__122__compressed_pair_elemIPN8nlohmann16json_abi_v3_11_227byte_container_with_subtypeINS_6vectorIhNS_9allocatorIhEEEEEELi0ELb0EEC2B8ne180100IRS9_vEEOT_, symObjAddr: 0x13DAC, symBinAddr: 0x1000165C4, symSize: 0x24 }
  - { offset: 0x4A71A, size: 0x8, addend: 0x0, symName: __ZNSt3__122__compressed_pair_elemIZN8nlohmann16json_abi_v3_11_210basic_jsonINS_3mapENS_6vectorENS_12basic_stringIcNS_11char_traitsIcEENS_9allocatorIcEEEEbxydS9_NS2_14adl_serializerENS5_IhNS9_IhEEEEE6createINS2_27byte_container_with_subtypeISE_EEJEEEPT_DpOT0_EUlPSI_E_Li1ELb0EEC2B8ne180100IRKSP_vEEOSJ_, symObjAddr: 0x13DD0, symBinAddr: 0x1000165E8, symSize: 0x24 }
  - { offset: 0x4A75C, size: 0x8, addend: 0x0, symName: __ZNSt3__19allocatorIN8nlohmann16json_abi_v3_11_227byte_container_with_subtypeINS_6vectorIhNS0_IhEEEEEEE9constructB8ne180100IS7_JEEEvPT_DpOT0_, symObjAddr: 0x13DF4, symBinAddr: 0x10001660C, symSize: 0x28 }
  - { offset: 0x4A79E, size: 0x8, addend: 0x0, symName: __ZN8nlohmann16json_abi_v3_11_227byte_container_with_subtypeINSt3__16vectorIhNS2_9allocatorIhEEEEEC1Ev, symObjAddr: 0x13E1C, symBinAddr: 0x100016634, symSize: 0x2C }
  - { offset: 0x4A7C8, size: 0x8, addend: 0x0, symName: __ZN8nlohmann16json_abi_v3_11_227byte_container_with_subtypeINSt3__16vectorIhNS2_9allocatorIhEEEEEC2Ev, symObjAddr: 0x13E48, symBinAddr: 0x100016660, symSize: 0x34 }
  - { offset: 0x4A7F2, size: 0x8, addend: 0x0, symName: __ZNSt3__16vectorIhNS_9allocatorIhEEEC2B8ne180100Ev, symObjAddr: 0x13E7C, symBinAddr: 0x100016694, symSize: 0x4C }
  - { offset: 0x4A81C, size: 0x8, addend: 0x0, symName: __ZNSt3__117__compressed_pairIPhNS_9allocatorIhEEEC1B8ne180100IDnNS_18__default_init_tagEEEOT_OT0_, symObjAddr: 0x13EC8, symBinAddr: 0x1000166E0, symSize: 0x3C }
  - { offset: 0x4A874, size: 0x8, addend: 0x0, symName: __ZNSt3__117__compressed_pairIPhNS_9allocatorIhEEEC2B8ne180100IDnNS_18__default_init_tagEEEOT_OT0_, symObjAddr: 0x13F04, symBinAddr: 0x10001671C, symSize: 0x40 }
  - { offset: 0x4A8CC, size: 0x8, addend: 0x0, symName: __ZNSt3__122__compressed_pair_elemIPhLi0ELb0EEC2B8ne180100IDnvEEOT_, symObjAddr: 0x13F44, symBinAddr: 0x10001675C, symSize: 0x1C }
  - { offset: 0x4A90E, size: 0x8, addend: 0x0, symName: __ZNSt3__122__compressed_pair_elemINS_9allocatorIhEELi1ELb1EEC2B8ne180100ENS_18__default_init_tagE, symObjAddr: 0x13F60, symBinAddr: 0x100016778, symSize: 0x2C }
  - { offset: 0x4A943, size: 0x8, addend: 0x0, symName: __ZNSt3__19allocatorIhEC2B8ne180100Ev, symObjAddr: 0x13F8C, symBinAddr: 0x1000167A4, symSize: 0x2C }
  - { offset: 0x4A96D, size: 0x8, addend: 0x0, symName: __ZNSt3__116__non_trivial_ifILb1ENS_9allocatorIhEEEC2B8ne180100Ev, symObjAddr: 0x13FB8, symBinAddr: 0x1000167D0, symSize: 0x14 }
  - { offset: 0x4A997, size: 0x8, addend: 0x0, symName: __ZNKSt3__117__compressed_pairIPN8nlohmann16json_abi_v3_11_227byte_container_with_subtypeINS_6vectorIhNS_9allocatorIhEEEEEEZNS2_10basic_jsonINS_3mapES4_NS_12basic_stringIcNS_11char_traitsIcEENS5_IcEEEEbxydS5_NS2_14adl_serializerES7_E6createIS8_JEEEPT_DpOT0_EUlS9_E_E5firstB8ne180100Ev, symObjAddr: 0x13FCC, symBinAddr: 0x1000167E4, symSize: 0x24 }
  - { offset: 0x4A9BD, size: 0x8, addend: 0x0, symName: __ZNKSt3__122__compressed_pair_elemIPN8nlohmann16json_abi_v3_11_227byte_container_with_subtypeINS_6vectorIhNS_9allocatorIhEEEEEELi0ELb0EE5__getB8ne180100Ev, symObjAddr: 0x13FF0, symBinAddr: 0x100016808, symSize: 0x14 }
  - { offset: 0x4A9E3, size: 0x8, addend: 0x0, symName: __ZNKSt3__110unique_ptrIN8nlohmann16json_abi_v3_11_227byte_container_with_subtypeINS_6vectorIhNS_9allocatorIhEEEEEEZNS2_10basic_jsonINS_3mapES4_NS_12basic_stringIcNS_11char_traitsIcEENS5_IcEEEEbxydS5_NS2_14adl_serializerES7_E6createIS8_JEEEPT_DpOT0_EUlPS8_E_EcvbB8ne180100Ev, symObjAddr: 0x14004, symBinAddr: 0x10001681C, symSize: 0x34 }
  - { offset: 0x4AA09, size: 0x8, addend: 0x0, symName: __ZNSt3__117__compressed_pairIPN8nlohmann16json_abi_v3_11_227byte_container_with_subtypeINS_6vectorIhNS_9allocatorIhEEEEEEZNS2_10basic_jsonINS_3mapES4_NS_12basic_stringIcNS_11char_traitsIcEENS5_IcEEEEbxydS5_NS2_14adl_serializerES7_E6createIS8_JEEEPT_DpOT0_EUlS9_E_E5firstB8ne180100Ev, symObjAddr: 0x14038, symBinAddr: 0x100016850, symSize: 0x24 }
  - { offset: 0x4AA2F, size: 0x8, addend: 0x0, symName: __ZNSt3__122__compressed_pair_elemIPN8nlohmann16json_abi_v3_11_227byte_container_with_subtypeINS_6vectorIhNS_9allocatorIhEEEEEELi0ELb0EE5__getB8ne180100Ev, symObjAddr: 0x1405C, symBinAddr: 0x100016874, symSize: 0x14 }
  - { offset: 0x4AA55, size: 0x8, addend: 0x0, symName: __ZNSt3__110unique_ptrIN8nlohmann16json_abi_v3_11_227byte_container_with_subtypeINS_6vectorIhNS_9allocatorIhEEEEEEZNS2_10basic_jsonINS_3mapES4_NS_12basic_stringIcNS_11char_traitsIcEENS5_IcEEEEbxydS5_NS2_14adl_serializerES7_E6createIS8_JEEEPT_DpOT0_EUlPS8_E_ED2B8ne180100Ev, symObjAddr: 0x14070, symBinAddr: 0x100016888, symSize: 0x30 }
  - { offset: 0x4AA7F, size: 0x8, addend: 0x0, symName: __ZNSt3__110unique_ptrIN8nlohmann16json_abi_v3_11_227byte_container_with_subtypeINS_6vectorIhNS_9allocatorIhEEEEEEZNS2_10basic_jsonINS_3mapES4_NS_12basic_stringIcNS_11char_traitsIcEENS5_IcEEEEbxydS5_NS2_14adl_serializerES7_E6createIS8_JEEEPT_DpOT0_EUlPS8_E_E5resetB8ne180100ESO_, symObjAddr: 0x140A0, symBinAddr: 0x1000168B8, symSize: 0x80 }
  - { offset: 0x4AAC3, size: 0x8, addend: 0x0, symName: __ZNSt3__117__compressed_pairIPN8nlohmann16json_abi_v3_11_227byte_container_with_subtypeINS_6vectorIhNS_9allocatorIhEEEEEEZNS2_10basic_jsonINS_3mapES4_NS_12basic_stringIcNS_11char_traitsIcEENS5_IcEEEEbxydS5_NS2_14adl_serializerES7_E6createIS8_JEEEPT_DpOT0_EUlS9_E_E6secondB8ne180100Ev, symObjAddr: 0x14120, symBinAddr: 0x100016938, symSize: 0x28 }
  - { offset: 0x4AAEF, size: 0x8, addend: 0x0, symName: __ZZN8nlohmann16json_abi_v3_11_210basic_jsonINSt3__13mapENS2_6vectorENS2_12basic_stringIcNS2_11char_traitsIcEENS2_9allocatorIcEEEEbxydS8_NS0_14adl_serializerENS4_IhNS8_IhEEEEE6createINS0_27byte_container_with_subtypeISD_EEJEEEPT_DpOT0_ENKUlPSH_E_clESN_, symObjAddr: 0x14148, symBinAddr: 0x100016960, symSize: 0x34 }
  - { offset: 0x4AB28, size: 0x8, addend: 0x0, symName: __ZNSt3__122__compressed_pair_elemIZN8nlohmann16json_abi_v3_11_210basic_jsonINS_3mapENS_6vectorENS_12basic_stringIcNS_11char_traitsIcEENS_9allocatorIcEEEEbxydS9_NS2_14adl_serializerENS5_IhNS9_IhEEEEE6createINS2_27byte_container_with_subtypeISE_EEJEEEPT_DpOT0_EUlPSI_E_Li1ELb0EE5__getB8ne180100Ev, symObjAddr: 0x1417C, symBinAddr: 0x100016994, symSize: 0x14 }
  - { offset: 0x4AB4E, size: 0x8, addend: 0x0, symName: __ZN8nlohmann16json_abi_v3_11_26detail9exception4nameERKNSt3__112basic_stringIcNS3_11char_traitsIcEENS3_9allocatorIcEEEEi, symObjAddr: 0x14268, symBinAddr: 0x100016A80, symSize: 0xA0 }
  - { offset: 0x4AB81, size: 0x8, addend: 0x0, symName: __ZN8nlohmann16json_abi_v3_11_26detail9exception11diagnosticsEDn, symObjAddr: 0x14308, symBinAddr: 0x100016B20, symSize: 0x3C }
  - { offset: 0x4ABA2, size: 0x8, addend: 0x0, symName: __ZN8nlohmann16json_abi_v3_11_26detail11other_errorC1EiPKc, symObjAddr: 0x14344, symBinAddr: 0x100016B5C, symSize: 0x3C }
  - { offset: 0x4ABEA, size: 0x8, addend: 0x0, symName: __ZNSt3__112basic_stringIcNS_11char_traitsIcEENS_9allocatorIcEEEC1B8ne180100Ev, symObjAddr: 0x14380, symBinAddr: 0x100016B98, symSize: 0x2C }
  - { offset: 0x4AC14, size: 0x8, addend: 0x0, symName: __ZNSt3__112basic_stringIcNS_11char_traitsIcEENS_9allocatorIcEEEC2B8ne180100Ev, symObjAddr: 0x14438, symBinAddr: 0x100016C50, symSize: 0x48 }
  - { offset: 0x4AC44, size: 0x8, addend: 0x0, symName: __ZNSt3__117__compressed_pairINS_12basic_stringIcNS_11char_traitsIcEENS_9allocatorIcEEE5__repES5_EC1B8ne180100INS_16__value_init_tagENS_18__default_init_tagEEEOT_OT0_, symObjAddr: 0x14480, symBinAddr: 0x100016C98, symSize: 0x3C }
  - { offset: 0x4AC9C, size: 0x8, addend: 0x0, symName: __ZNKSt3__112basic_stringIcNS_11char_traitsIcEENS_9allocatorIcEEE14__annotate_newB8ne180100Em, symObjAddr: 0x144BC, symBinAddr: 0x100016CD4, symSize: 0x14 }
  - { offset: 0x4ACD1, size: 0x8, addend: 0x0, symName: __ZNSt3__117__compressed_pairINS_12basic_stringIcNS_11char_traitsIcEENS_9allocatorIcEEE5__repES5_EC2B8ne180100INS_16__value_init_tagENS_18__default_init_tagEEEOT_OT0_, symObjAddr: 0x144D0, symBinAddr: 0x100016CE8, symSize: 0x3C }
  - { offset: 0x4AD29, size: 0x8, addend: 0x0, symName: __ZNSt3__122__compressed_pair_elemINS_12basic_stringIcNS_11char_traitsIcEENS_9allocatorIcEEE5__repELi0ELb0EEC2B8ne180100ENS_16__value_init_tagE, symObjAddr: 0x1450C, symBinAddr: 0x100016D24, symSize: 0x20 }
  - { offset: 0x4AD5E, size: 0x8, addend: 0x0, symName: __ZNSt3__112basic_stringIcNS_11char_traitsIcEENS_9allocatorIcEEE6appendB8ne180100ERKS5_, symObjAddr: 0x145AC, symBinAddr: 0x100016DC4, symSize: 0x4C }
  - { offset: 0x4AD93, size: 0x8, addend: 0x0, symName: __ZNSt3__112basic_stringIcNS_11char_traitsIcEENS_9allocatorIcEEEpLB8ne180100Ec, symObjAddr: 0x149A8, symBinAddr: 0x1000171C0, symSize: 0x34 }
  - { offset: 0x4ADC8, size: 0x8, addend: 0x0, symName: __ZN8nlohmann16json_abi_v3_11_26detail11other_errorC2EiPKc, symObjAddr: 0x14A4C, symBinAddr: 0x100017264, symSize: 0x4C }
  - { offset: 0x4AE10, size: 0x8, addend: 0x0, symName: __ZN8nlohmann16json_abi_v3_11_26detail9exceptionC2EiPKc, symObjAddr: 0x14A98, symBinAddr: 0x1000172B0, symSize: 0x84 }
  - { offset: 0x4AE58, size: 0x8, addend: 0x0, symName: __ZN8nlohmann16json_abi_v3_11_26detail11other_errorD0Ev, symObjAddr: 0x14B1C, symBinAddr: 0x100017334, symSize: 0x30 }
  - { offset: 0x4AE85, size: 0x8, addend: 0x0, symName: __ZNK8nlohmann16json_abi_v3_11_26detail9exception4whatEv, symObjAddr: 0x14B4C, symBinAddr: 0x100017364, symSize: 0x28 }
  - { offset: 0x4AEAB, size: 0x8, addend: 0x0, symName: __ZN8nlohmann16json_abi_v3_11_26detail9exceptionD1Ev, symObjAddr: 0x14B74, symBinAddr: 0x10001738C, symSize: 0x2C }
  - { offset: 0x4AED8, size: 0x8, addend: 0x0, symName: __ZN8nlohmann16json_abi_v3_11_26detail9exceptionD0Ev, symObjAddr: 0x14BA0, symBinAddr: 0x1000173B8, symSize: 0x30 }
  - { offset: 0x4AF05, size: 0x8, addend: 0x0, symName: __ZN8nlohmann16json_abi_v3_11_26detail9exceptionD2Ev, symObjAddr: 0x14BD0, symBinAddr: 0x1000173E8, symSize: 0x48 }
  - { offset: 0x4AF32, size: 0x8, addend: 0x0, symName: __ZN8nlohmann16json_abi_v3_11_26detail11other_errorD2Ev, symObjAddr: 0x14C18, symBinAddr: 0x100017430, symSize: 0x2C }
  - { offset: 0x4AF6F, size: 0x8, addend: 0x0, symName: __ZN8nlohmann16json_abi_v3_11_210basic_jsonINSt3__13mapENS2_6vectorENS2_12basic_stringIcNS2_11char_traitsIcEENS2_9allocatorIcEEEEbxydS8_NS0_14adl_serializerENS4_IhNS8_IhEEEEE6parserINS0_6detail20input_stream_adapterEEENSG_6parserISE_T_EESJ_NS2_8functionIFbiNSG_13parse_event_tERSE_EEEbb, symObjAddr: 0x14C44, symBinAddr: 0x10001745C, symSize: 0xD0 }
  - { offset: 0x4AFCB, size: 0x8, addend: 0x0, symName: __ZNSt3__18functionIFbiN8nlohmann16json_abi_v3_11_26detail13parse_event_tERNS2_10basic_jsonINS_3mapENS_6vectorENS_12basic_stringIcNS_11char_traitsIcEENS_9allocatorIcEEEEbxydSB_NS2_14adl_serializerENS7_IhNSB_IhEEEEEEEEC1B8ne180100EDn, symObjAddr: 0x14D4C, symBinAddr: 0x100017564, symSize: 0x34 }
  - { offset: 0x4B001, size: 0x8, addend: 0x0, symName: __ZN8nlohmann16json_abi_v3_11_26detail6parserINS0_10basic_jsonINSt3__13mapENS4_6vectorENS4_12basic_stringIcNS4_11char_traitsIcEENS4_9allocatorIcEEEEbxydSA_NS0_14adl_serializerENS6_IhNSA_IhEEEEEENS1_20input_stream_adapterEE5parseEbRSG_, symObjAddr: 0x14D80, symBinAddr: 0x100017598, symSize: 0x578 }
  - { offset: 0x4B07D, size: 0x8, addend: 0x0, symName: __ZN8nlohmann16json_abi_v3_11_26detail6parserINS0_10basic_jsonINSt3__13mapENS4_6vectorENS4_12basic_stringIcNS4_11char_traitsIcEENS4_9allocatorIcEEEEbxydSA_NS0_14adl_serializerENS6_IhNSA_IhEEEEEENS1_20input_stream_adapterEED1Ev, symObjAddr: 0x152F8, symBinAddr: 0x100017B10, symSize: 0x2C }
  - { offset: 0x4B0AA, size: 0x8, addend: 0x0, symName: __ZNSt3__18functionIFbiN8nlohmann16json_abi_v3_11_26detail13parse_event_tERNS2_10basic_jsonINS_3mapENS_6vectorENS_12basic_stringIcNS_11char_traitsIcEENS_9allocatorIcEEEEbxydSB_NS2_14adl_serializerENS7_IhNSB_IhEEEEEEEED1Ev, symObjAddr: 0x15324, symBinAddr: 0x100017B3C, symSize: 0x2C }
  - { offset: 0x4B0D6, size: 0x8, addend: 0x0, symName: __ZN8nlohmann16json_abi_v3_11_26detail20input_stream_adapterD1Ev, symObjAddr: 0x15350, symBinAddr: 0x100017B68, symSize: 0x2C }
  - { offset: 0x4B100, size: 0x8, addend: 0x0, symName: __ZNSt3__18functionIFbiN8nlohmann16json_abi_v3_11_26detail13parse_event_tERNS2_10basic_jsonINS_3mapENS_6vectorENS_12basic_stringIcNS_11char_traitsIcEENS_9allocatorIcEEEEbxydSB_NS2_14adl_serializerENS7_IhNSB_IhEEEEEEEEC1EOSK_, symObjAddr: 0x1537C, symBinAddr: 0x100017B94, symSize: 0x34 }
  - { offset: 0x4B13B, size: 0x8, addend: 0x0, symName: __ZN8nlohmann16json_abi_v3_11_26detail6parserINS0_10basic_jsonINSt3__13mapENS4_6vectorENS4_12basic_stringIcNS4_11char_traitsIcEENS4_9allocatorIcEEEEbxydSA_NS0_14adl_serializerENS6_IhNSA_IhEEEEEENS1_20input_stream_adapterEEC1EOSH_NS4_8functionIFbiNS1_13parse_event_tERSG_EEEbb, symObjAddr: 0x153B0, symBinAddr: 0x100017BC8, symSize: 0x60 }
  - { offset: 0x4B1A2, size: 0x8, addend: 0x0, symName: __ZNSt3__18functionIFbiN8nlohmann16json_abi_v3_11_26detail13parse_event_tERNS2_10basic_jsonINS_3mapENS_6vectorENS_12basic_stringIcNS_11char_traitsIcEENS_9allocatorIcEEEEbxydSB_NS2_14adl_serializerENS7_IhNSB_IhEEEEEEEEC2EOSK_, symObjAddr: 0x15410, symBinAddr: 0x100017C28, symSize: 0x34 }
  - { offset: 0x4B1DD, size: 0x8, addend: 0x0, symName: __ZNSt3__110__function12__value_funcIFbiN8nlohmann16json_abi_v3_11_26detail13parse_event_tERNS3_10basic_jsonINS_3mapENS_6vectorENS_12basic_stringIcNS_11char_traitsIcEENS_9allocatorIcEEEEbxydSC_NS3_14adl_serializerENS8_IhNSC_IhEEEEEEEEC1B8ne180100EOSL_, symObjAddr: 0x15444, symBinAddr: 0x100017C5C, symSize: 0x34 }
  - { offset: 0x4B216, size: 0x8, addend: 0x0, symName: __ZNSt3__110__function12__value_funcIFbiN8nlohmann16json_abi_v3_11_26detail13parse_event_tERNS3_10basic_jsonINS_3mapENS_6vectorENS_12basic_stringIcNS_11char_traitsIcEENS_9allocatorIcEEEEbxydSC_NS3_14adl_serializerENS8_IhNSC_IhEEEEEEEEC2B8ne180100EOSL_, symObjAddr: 0x15478, symBinAddr: 0x100017C90, symSize: 0xD0 }
  - { offset: 0x4B24F, size: 0x8, addend: 0x0, symName: __ZNSt3__110__function12__value_funcIFbiN8nlohmann16json_abi_v3_11_26detail13parse_event_tERNS3_10basic_jsonINS_3mapENS_6vectorENS_12basic_stringIcNS_11char_traitsIcEENS_9allocatorIcEEEEbxydSC_NS3_14adl_serializerENS8_IhNSC_IhEEEEEEEE9__as_baseB8ne180100EPv, symObjAddr: 0x15548, symBinAddr: 0x100017D60, symSize: 0x14 }
  - { offset: 0x4B273, size: 0x8, addend: 0x0, symName: __ZN8nlohmann16json_abi_v3_11_26detail6parserINS0_10basic_jsonINSt3__13mapENS4_6vectorENS4_12basic_stringIcNS4_11char_traitsIcEENS4_9allocatorIcEEEEbxydSA_NS0_14adl_serializerENS6_IhNSA_IhEEEEEENS1_20input_stream_adapterEEC2EOSH_NS4_8functionIFbiNS1_13parse_event_tERSG_EEEbb, symObjAddr: 0x1555C, symBinAddr: 0x100017D74, symSize: 0xBC }
  - { offset: 0x4B2DA, size: 0x8, addend: 0x0, symName: __ZNSt3__18functionIFbiN8nlohmann16json_abi_v3_11_26detail13parse_event_tERNS2_10basic_jsonINS_3mapENS_6vectorENS_12basic_stringIcNS_11char_traitsIcEENS_9allocatorIcEEEEbxydSB_NS2_14adl_serializerENS7_IhNSB_IhEEEEEEEEC1ERKSK_, symObjAddr: 0x15618, symBinAddr: 0x100017E30, symSize: 0x34 }
  - { offset: 0x4B315, size: 0x8, addend: 0x0, symName: __ZN8nlohmann16json_abi_v3_11_26detail5lexerINS0_10basic_jsonINSt3__13mapENS4_6vectorENS4_12basic_stringIcNS4_11char_traitsIcEENS4_9allocatorIcEEEEbxydSA_NS0_14adl_serializerENS6_IhNSA_IhEEEEEENS1_20input_stream_adapterEEC1EOSH_b, symObjAddr: 0x1564C, symBinAddr: 0x100017E64, symSize: 0x48 }
  - { offset: 0x4B35D, size: 0x8, addend: 0x0, symName: __ZN8nlohmann16json_abi_v3_11_26detail6parserINS0_10basic_jsonINSt3__13mapENS4_6vectorENS4_12basic_stringIcNS4_11char_traitsIcEENS4_9allocatorIcEEEEbxydSA_NS0_14adl_serializerENS6_IhNSA_IhEEEEEENS1_20input_stream_adapterEE9get_tokenEv, symObjAddr: 0x15694, symBinAddr: 0x100017EAC, symSize: 0x34 }
  - { offset: 0x4B383, size: 0x8, addend: 0x0, symName: __ZN8nlohmann16json_abi_v3_11_26detail5lexerINS0_10basic_jsonINSt3__13mapENS4_6vectorENS4_12basic_stringIcNS4_11char_traitsIcEENS4_9allocatorIcEEEEbxydSA_NS0_14adl_serializerENS6_IhNSA_IhEEEEEENS1_20input_stream_adapterEED1Ev, symObjAddr: 0x156C8, symBinAddr: 0x100017EE0, symSize: 0x2C }
  - { offset: 0x4B3AD, size: 0x8, addend: 0x0, symName: __ZNSt3__18functionIFbiN8nlohmann16json_abi_v3_11_26detail13parse_event_tERNS2_10basic_jsonINS_3mapENS_6vectorENS_12basic_stringIcNS_11char_traitsIcEENS_9allocatorIcEEEEbxydSB_NS2_14adl_serializerENS7_IhNSB_IhEEEEEEEEC2ERKSK_, symObjAddr: 0x156F4, symBinAddr: 0x100017F0C, symSize: 0x34 }
  - { offset: 0x4B3E8, size: 0x8, addend: 0x0, symName: __ZNSt3__110__function12__value_funcIFbiN8nlohmann16json_abi_v3_11_26detail13parse_event_tERNS3_10basic_jsonINS_3mapENS_6vectorENS_12basic_stringIcNS_11char_traitsIcEENS_9allocatorIcEEEEbxydSC_NS3_14adl_serializerENS8_IhNSC_IhEEEEEEEEC1B8ne180100ERKSL_, symObjAddr: 0x15728, symBinAddr: 0x100017F40, symSize: 0x34 }
  - { offset: 0x4B421, size: 0x8, addend: 0x0, symName: __ZNSt3__110__function12__value_funcIFbiN8nlohmann16json_abi_v3_11_26detail13parse_event_tERNS3_10basic_jsonINS_3mapENS_6vectorENS_12basic_stringIcNS_11char_traitsIcEENS_9allocatorIcEEEEbxydSC_NS3_14adl_serializerENS8_IhNSC_IhEEEEEEEEC2B8ne180100ERKSL_, symObjAddr: 0x1575C, symBinAddr: 0x100017F74, symSize: 0xC0 }
  - { offset: 0x4B45A, size: 0x8, addend: 0x0, symName: __ZN8nlohmann16json_abi_v3_11_26detail5lexerINS0_10basic_jsonINSt3__13mapENS4_6vectorENS4_12basic_stringIcNS4_11char_traitsIcEENS4_9allocatorIcEEEEbxydSA_NS0_14adl_serializerENS6_IhNSA_IhEEEEEENS1_20input_stream_adapterEEC2EOSH_b, symObjAddr: 0x1581C, symBinAddr: 0x100018034, symSize: 0xB0 }
  - { offset: 0x4B4A2, size: 0x8, addend: 0x0, symName: __ZN8nlohmann16json_abi_v3_11_26detail20input_stream_adapterC1EOS2_, symObjAddr: 0x158CC, symBinAddr: 0x1000180E4, symSize: 0x34 }
  - { offset: 0x4B4DB, size: 0x8, addend: 0x0, symName: __ZNSt3__16vectorIcNS_9allocatorIcEEEC1B8ne180100Ev, symObjAddr: 0x15900, symBinAddr: 0x100018118, symSize: 0x2C }
  - { offset: 0x4B505, size: 0x8, addend: 0x0, symName: __ZN8nlohmann16json_abi_v3_11_26detail5lexerINS0_10basic_jsonINSt3__13mapENS4_6vectorENS4_12basic_stringIcNS4_11char_traitsIcEENS4_9allocatorIcEEEEbxydSA_NS0_14adl_serializerENS6_IhNSA_IhEEEEEENS1_20input_stream_adapterEE17get_decimal_pointEv, symObjAddr: 0x1592C, symBinAddr: 0x100018144, symSize: 0xB0 }
  - { offset: 0x4B529, size: 0x8, addend: 0x0, symName: __ZN8nlohmann16json_abi_v3_11_26detail20input_stream_adapterC2EOS2_, symObjAddr: 0x159DC, symBinAddr: 0x1000181F4, symSize: 0x40 }
  - { offset: 0x4B562, size: 0x8, addend: 0x0, symName: __ZNSt3__16vectorIcNS_9allocatorIcEEEC2B8ne180100Ev, symObjAddr: 0x15A1C, symBinAddr: 0x100018234, symSize: 0x4C }
  - { offset: 0x4B58C, size: 0x8, addend: 0x0, symName: __ZNSt3__117__compressed_pairIPcNS_9allocatorIcEEEC1B8ne180100IDnNS_18__default_init_tagEEEOT_OT0_, symObjAddr: 0x15A68, symBinAddr: 0x100018280, symSize: 0x3C }
  - { offset: 0x4B5E4, size: 0x8, addend: 0x0, symName: __ZNSt3__117__compressed_pairIPcNS_9allocatorIcEEEC2B8ne180100IDnNS_18__default_init_tagEEEOT_OT0_, symObjAddr: 0x15AA4, symBinAddr: 0x1000182BC, symSize: 0x40 }
  - { offset: 0x4B63C, size: 0x8, addend: 0x0, symName: __ZNSt3__122__compressed_pair_elemIPcLi0ELb0EEC2B8ne180100IDnvEEOT_, symObjAddr: 0x15AE4, symBinAddr: 0x1000182FC, symSize: 0x1C }
  - { offset: 0x4B67E, size: 0x8, addend: 0x0, symName: __ZN8nlohmann16json_abi_v3_11_26detail5lexerINS0_10basic_jsonINSt3__13mapENS4_6vectorENS4_12basic_stringIcNS4_11char_traitsIcEENS4_9allocatorIcEEEEbxydSA_NS0_14adl_serializerENS6_IhNSA_IhEEEEEENS1_20input_stream_adapterEE4scanEv, symObjAddr: 0x15B00, symBinAddr: 0x100018318, symSize: 0x284 }
  - { offset: 0x4B6FE, size: 0x8, addend: 0x0, symName: __ZN8nlohmann16json_abi_v3_11_26detail5lexerINS0_10basic_jsonINSt3__13mapENS4_6vectorENS4_12basic_stringIcNS4_11char_traitsIcEENS4_9allocatorIcEEEEbxydSA_NS0_14adl_serializerENS6_IhNSA_IhEEEEEENS1_20input_stream_adapterEE8skip_bomEv, symObjAddr: 0x15F80, symBinAddr: 0x100018798, symSize: 0xA8 }
  - { offset: 0x4B724, size: 0x8, addend: 0x0, symName: __ZN8nlohmann16json_abi_v3_11_26detail5lexerINS0_10basic_jsonINSt3__13mapENS4_6vectorENS4_12basic_stringIcNS4_11char_traitsIcEENS4_9allocatorIcEEEEbxydSA_NS0_14adl_serializerENS6_IhNSA_IhEEEEEENS1_20input_stream_adapterEE15skip_whitespaceEv, symObjAddr: 0x16028, symBinAddr: 0x100018840, symSize: 0xB8 }
  - { offset: 0x4B74A, size: 0x8, addend: 0x0, symName: __ZN8nlohmann16json_abi_v3_11_26detail5lexerINS0_10basic_jsonINSt3__13mapENS4_6vectorENS4_12basic_stringIcNS4_11char_traitsIcEENS4_9allocatorIcEEEEbxydSA_NS0_14adl_serializerENS6_IhNSA_IhEEEEEENS1_20input_stream_adapterEE12scan_commentEv, symObjAddr: 0x160E0, symBinAddr: 0x1000188F8, symSize: 0x17C }
  - { offset: 0x4B770, size: 0x8, addend: 0x0, symName: __ZN8nlohmann16json_abi_v3_11_26detail5lexerINS0_10basic_jsonINSt3__13mapENS4_6vectorENS4_12basic_stringIcNS4_11char_traitsIcEENS4_9allocatorIcEEEEbxydSA_NS0_14adl_serializerENS6_IhNSA_IhEEEEEENS1_20input_stream_adapterEE12scan_literalEPKcmNS1_10lexer_baseISG_E10token_typeE, symObjAddr: 0x1625C, symBinAddr: 0x100018A74, symSize: 0x100 }
  - { offset: 0x4B823, size: 0x8, addend: 0x0, symName: __ZNSt3__15arrayIcLm4EE4dataB8ne180100Ev, symObjAddr: 0x1635C, symBinAddr: 0x100018B74, symSize: 0x14 }
  - { offset: 0x4B849, size: 0x8, addend: 0x0, symName: __ZNKSt3__15arrayIcLm4EE4sizeB8ne180100Ev, symObjAddr: 0x16370, symBinAddr: 0x100018B88, symSize: 0x14 }
  - { offset: 0x4B8B1, size: 0x8, addend: 0x0, symName: __ZNSt3__15arrayIcLm5EE4dataB8ne180100Ev, symObjAddr: 0x16384, symBinAddr: 0x100018B9C, symSize: 0x14 }
  - { offset: 0x4B8D7, size: 0x8, addend: 0x0, symName: __ZNKSt3__15arrayIcLm5EE4sizeB8ne180100Ev, symObjAddr: 0x16398, symBinAddr: 0x100018BB0, symSize: 0x14 }
  - { offset: 0x4B8FD, size: 0x8, addend: 0x0, symName: __ZN8nlohmann16json_abi_v3_11_26detail5lexerINS0_10basic_jsonINSt3__13mapENS4_6vectorENS4_12basic_stringIcNS4_11char_traitsIcEENS4_9allocatorIcEEEEbxydSA_NS0_14adl_serializerENS6_IhNSA_IhEEEEEENS1_20input_stream_adapterEE11scan_stringEv, symObjAddr: 0x163AC, symBinAddr: 0x100018BC4, symSize: 0xB6C }
  - { offset: 0x4B972, size: 0x8, addend: 0x0, symName: __ZN8nlohmann16json_abi_v3_11_26detail5lexerINS0_10basic_jsonINSt3__13mapENS4_6vectorENS4_12basic_stringIcNS4_11char_traitsIcEENS4_9allocatorIcEEEEbxydSA_NS0_14adl_serializerENS6_IhNSA_IhEEEEEENS1_20input_stream_adapterEE11scan_numberEv, symObjAddr: 0x17440, symBinAddr: 0x100019C58, symSize: 0x65C }
  - { offset: 0x4BA8B, size: 0x8, addend: 0x0, symName: __ZN8nlohmann16json_abi_v3_11_26detail5lexerINS0_10basic_jsonINSt3__13mapENS4_6vectorENS4_12basic_stringIcNS4_11char_traitsIcEENS4_9allocatorIcEEEEbxydSA_NS0_14adl_serializerENS6_IhNSA_IhEEEEEENS1_20input_stream_adapterEE3getEv, symObjAddr: 0x17B7C, symBinAddr: 0x10001A394, symSize: 0xF0 }
  - { offset: 0x4BAB1, size: 0x8, addend: 0x0, symName: __ZN8nlohmann16json_abi_v3_11_26detail5lexerINS0_10basic_jsonINSt3__13mapENS4_6vectorENS4_12basic_stringIcNS4_11char_traitsIcEENS4_9allocatorIcEEEEbxydSA_NS0_14adl_serializerENS6_IhNSA_IhEEEEEENS1_20input_stream_adapterEE5ungetEv, symObjAddr: 0x17C6C, symBinAddr: 0x10001A484, symSize: 0xFC }
  - { offset: 0x4BAD7, size: 0x8, addend: 0x0, symName: __ZN8nlohmann16json_abi_v3_11_26detail20input_stream_adapter13get_characterEv, symObjAddr: 0x17D68, symBinAddr: 0x10001A580, symSize: 0x94 }
  - { offset: 0x4BB0C, size: 0x8, addend: 0x0, symName: __ZNSt3__16vectorIcNS_9allocatorIcEEE9push_backB8ne180100EOc, symObjAddr: 0x17DFC, symBinAddr: 0x10001A614, symSize: 0x90 }
  - { offset: 0x4BB52, size: 0x8, addend: 0x0, symName: __ZNSt3__111char_traitsIcE12to_char_typeB8ne180100Ei, symObjAddr: 0x17E8C, symBinAddr: 0x10001A6A4, symSize: 0x18 }
  - { offset: 0x4BB76, size: 0x8, addend: 0x0, symName: __ZNSt3__115basic_streambufIcNS_11char_traitsIcEEE6sbumpcB8ne180100Ev, symObjAddr: 0x17EA4, symBinAddr: 0x10001A6BC, symSize: 0x78 }
  - { offset: 0x4BB9C, size: 0x8, addend: 0x0, symName: __ZNSt3__19basic_iosIcNS_11char_traitsIcEEE5clearB8ne180100Ej, symObjAddr: 0x17F1C, symBinAddr: 0x10001A734, symSize: 0x2C }
  - { offset: 0x4BBD1, size: 0x8, addend: 0x0, symName: __ZNKSt3__19basic_iosIcNS_11char_traitsIcEEE7rdstateB8ne180100Ev, symObjAddr: 0x17F48, symBinAddr: 0x10001A760, symSize: 0x24 }
  - { offset: 0x4BBF7, size: 0x8, addend: 0x0, symName: __ZNSt3__111char_traitsIcE11to_int_typeB8ne180100Ec, symObjAddr: 0x17F6C, symBinAddr: 0x10001A784, symSize: 0x14 }
  - { offset: 0x4BC1B, size: 0x8, addend: 0x0, symName: __ZNKSt3__18ios_base7rdstateB8ne180100Ev, symObjAddr: 0x17F80, symBinAddr: 0x10001A798, symSize: 0x18 }
  - { offset: 0x4BC43, size: 0x8, addend: 0x0, symName: __ZNSt3__16vectorIcNS_9allocatorIcEEE9__end_capB8ne180100Ev, symObjAddr: 0x17F98, symBinAddr: 0x10001A7B0, symSize: 0x28 }
  - { offset: 0x4BC6F, size: 0x8, addend: 0x0, symName: __ZNSt3__16vectorIcNS_9allocatorIcEEE22__construct_one_at_endB8ne180100IJcEEEvDpOT_, symObjAddr: 0x17FC0, symBinAddr: 0x10001A7D8, symSize: 0x90 }
  - { offset: 0x4BCBE, size: 0x8, addend: 0x0, symName: __ZNSt3__16vectorIcNS_9allocatorIcEEE21__push_back_slow_pathIcEEPcOT_, symObjAddr: 0x18050, symBinAddr: 0x10001A868, symSize: 0xE8 }
  - { offset: 0x4BD1C, size: 0x8, addend: 0x0, symName: __ZNSt3__117__compressed_pairIPcNS_9allocatorIcEEE5firstB8ne180100Ev, symObjAddr: 0x18138, symBinAddr: 0x10001A950, symSize: 0x24 }
  - { offset: 0x4BD42, size: 0x8, addend: 0x0, symName: __ZNSt3__122__compressed_pair_elemIPcLi0ELb0EE5__getB8ne180100Ev, symObjAddr: 0x1815C, symBinAddr: 0x10001A974, symSize: 0x14 }
  - { offset: 0x4BD84, size: 0x8, addend: 0x0, symName: __ZNSt3__16vectorIcNS_9allocatorIcEEE21_ConstructTransactionC1B8ne180100ERS3_m, symObjAddr: 0x18170, symBinAddr: 0x10001A988, symSize: 0x3C }
  - { offset: 0x4BDCC, size: 0x8, addend: 0x0, symName: __ZNSt3__116allocator_traitsINS_9allocatorIcEEE9constructB8ne180100IcJcEvEEvRS2_PT_DpOT0_, symObjAddr: 0x181AC, symBinAddr: 0x10001A9C4, symSize: 0x34 }
  - { offset: 0x4BE23, size: 0x8, addend: 0x0, symName: __ZNSt3__16vectorIcNS_9allocatorIcEEE7__allocB8ne180100Ev, symObjAddr: 0x181E0, symBinAddr: 0x10001A9F8, symSize: 0x28 }
  - { offset: 0x4BE49, size: 0x8, addend: 0x0, symName: __ZNSt3__16vectorIcNS_9allocatorIcEEE21_ConstructTransactionD1B8ne180100Ev, symObjAddr: 0x18208, symBinAddr: 0x10001AA20, symSize: 0x2C }
  - { offset: 0x4BE73, size: 0x8, addend: 0x0, symName: __ZNSt3__16vectorIcNS_9allocatorIcEEE21_ConstructTransactionC2B8ne180100ERS3_m, symObjAddr: 0x18234, symBinAddr: 0x10001AA4C, symSize: 0x44 }
  - { offset: 0x4BEBB, size: 0x8, addend: 0x0, symName: __ZNSt3__19allocatorIcE9constructB8ne180100IcJcEEEvPT_DpOT0_, symObjAddr: 0x18278, symBinAddr: 0x10001AA90, symSize: 0x28 }
  - { offset: 0x4BF11, size: 0x8, addend: 0x0, symName: __ZNSt3__117__compressed_pairIPcNS_9allocatorIcEEE6secondB8ne180100Ev, symObjAddr: 0x182A0, symBinAddr: 0x10001AAB8, symSize: 0x24 }
  - { offset: 0x4BF37, size: 0x8, addend: 0x0, symName: __ZNSt3__122__compressed_pair_elemINS_9allocatorIcEELi1ELb1EE5__getB8ne180100Ev, symObjAddr: 0x182C4, symBinAddr: 0x10001AADC, symSize: 0x14 }
  - { offset: 0x4BF5D, size: 0x8, addend: 0x0, symName: __ZNSt3__16vectorIcNS_9allocatorIcEEE21_ConstructTransactionD2B8ne180100Ev, symObjAddr: 0x182D8, symBinAddr: 0x10001AAF0, symSize: 0x20 }
  - { offset: 0x4BF87, size: 0x8, addend: 0x0, symName: __ZNKSt3__16vectorIcNS_9allocatorIcEEE11__recommendB8ne180100Em, symObjAddr: 0x182F8, symBinAddr: 0x10001AB10, symSize: 0xB4 }
  - { offset: 0x4BFDC, size: 0x8, addend: 0x0, symName: __ZNKSt3__16vectorIcNS_9allocatorIcEEE4sizeB8ne180100Ev, symObjAddr: 0x183AC, symBinAddr: 0x10001ABC4, symSize: 0x20 }
  - { offset: 0x4C002, size: 0x8, addend: 0x0, symName: __ZNSt3__114__split_bufferIcRNS_9allocatorIcEEEC1EmmS3_, symObjAddr: 0x183CC, symBinAddr: 0x10001ABE4, symSize: 0x44 }
  - { offset: 0x4C058, size: 0x8, addend: 0x0, symName: __ZNSt3__114__split_bufferIcRNS_9allocatorIcEEED1Ev, symObjAddr: 0x18520, symBinAddr: 0x10001AD38, symSize: 0x2C }
  - { offset: 0x4C084, size: 0x8, addend: 0x0, symName: __ZNKSt3__16vectorIcNS_9allocatorIcEEE8max_sizeEv, symObjAddr: 0x1854C, symBinAddr: 0x10001AD64, symSize: 0x60 }
  - { offset: 0x4C0AC, size: 0x8, addend: 0x0, symName: __ZNKSt3__16vectorIcNS_9allocatorIcEEE20__throw_length_errorB8ne180100Ev, symObjAddr: 0x185AC, symBinAddr: 0x10001ADC4, symSize: 0x1C }
  - { offset: 0x4C0D2, size: 0x8, addend: 0x0, symName: __ZNKSt3__16vectorIcNS_9allocatorIcEEE8capacityB8ne180100Ev, symObjAddr: 0x185C8, symBinAddr: 0x10001ADE0, symSize: 0x38 }
  - { offset: 0x4C103, size: 0x8, addend: 0x0, symName: __ZNSt3__116allocator_traitsINS_9allocatorIcEEE8max_sizeB8ne180100IS2_vEEmRKS2_, symObjAddr: 0x18600, symBinAddr: 0x10001AE18, symSize: 0x24 }
  - { offset: 0x4C131, size: 0x8, addend: 0x0, symName: __ZNKSt3__16vectorIcNS_9allocatorIcEEE7__allocB8ne180100Ev, symObjAddr: 0x18624, symBinAddr: 0x10001AE3C, symSize: 0x28 }
  - { offset: 0x4C157, size: 0x8, addend: 0x0, symName: __ZNKSt3__19allocatorIcE8max_sizeB8ne180100Ev, symObjAddr: 0x1864C, symBinAddr: 0x10001AE64, symSize: 0x14 }
  - { offset: 0x4C17D, size: 0x8, addend: 0x0, symName: __ZNKSt3__117__compressed_pairIPcNS_9allocatorIcEEE6secondB8ne180100Ev, symObjAddr: 0x18660, symBinAddr: 0x10001AE78, symSize: 0x24 }
  - { offset: 0x4C1A3, size: 0x8, addend: 0x0, symName: __ZNKSt3__122__compressed_pair_elemINS_9allocatorIcEELi1ELb1EE5__getB8ne180100Ev, symObjAddr: 0x18684, symBinAddr: 0x10001AE9C, symSize: 0x14 }
  - { offset: 0x4C1C9, size: 0x8, addend: 0x0, symName: __ZNKSt3__16vectorIcNS_9allocatorIcEEE9__end_capB8ne180100Ev, symObjAddr: 0x18698, symBinAddr: 0x10001AEB0, symSize: 0x28 }
  - { offset: 0x4C1EF, size: 0x8, addend: 0x0, symName: __ZNKSt3__117__compressed_pairIPcNS_9allocatorIcEEE5firstB8ne180100Ev, symObjAddr: 0x186C0, symBinAddr: 0x10001AED8, symSize: 0x24 }
  - { offset: 0x4C215, size: 0x8, addend: 0x0, symName: __ZNKSt3__122__compressed_pair_elemIPcLi0ELb0EE5__getB8ne180100Ev, symObjAddr: 0x186E4, symBinAddr: 0x10001AEFC, symSize: 0x14 }
  - { offset: 0x4C23B, size: 0x8, addend: 0x0, symName: __ZNSt3__114__split_bufferIcRNS_9allocatorIcEEEC2EmmS3_, symObjAddr: 0x186F8, symBinAddr: 0x10001AF10, symSize: 0xD4 }
  - { offset: 0x4C2AF, size: 0x8, addend: 0x0, symName: __ZNSt3__117__compressed_pairIPcRNS_9allocatorIcEEEC1B8ne180100IDnS4_EEOT_OT0_, symObjAddr: 0x187CC, symBinAddr: 0x10001AFE4, symSize: 0x3C }
  - { offset: 0x4C307, size: 0x8, addend: 0x0, symName: __ZNSt3__114__split_bufferIcRNS_9allocatorIcEEE7__allocB8ne180100Ev, symObjAddr: 0x18848, symBinAddr: 0x10001B060, symSize: 0x28 }
  - { offset: 0x4C32D, size: 0x8, addend: 0x0, symName: __ZNSt3__114__split_bufferIcRNS_9allocatorIcEEE9__end_capB8ne180100Ev, symObjAddr: 0x18870, symBinAddr: 0x10001B088, symSize: 0x28 }
  - { offset: 0x4C353, size: 0x8, addend: 0x0, symName: __ZNSt3__117__compressed_pairIPcRNS_9allocatorIcEEEC2B8ne180100IDnS4_EEOT_OT0_, symObjAddr: 0x18898, symBinAddr: 0x10001B0B0, symSize: 0x48 }
  - { offset: 0x4C3AB, size: 0x8, addend: 0x0, symName: __ZNSt3__122__compressed_pair_elemIRNS_9allocatorIcEELi1ELb0EEC2B8ne180100IS3_vEEOT_, symObjAddr: 0x188E0, symBinAddr: 0x10001B0F8, symSize: 0x20 }
  - { offset: 0x4C3ED, size: 0x8, addend: 0x0, symName: __ZNSt3__19allocatorIcE8allocateB8ne180100Em, symObjAddr: 0x18900, symBinAddr: 0x10001B118, symSize: 0x58 }
  - { offset: 0x4C421, size: 0x8, addend: 0x0, symName: __ZNSt3__117__compressed_pairIPcRNS_9allocatorIcEEE6secondB8ne180100Ev, symObjAddr: 0x18958, symBinAddr: 0x10001B170, symSize: 0x28 }
  - { offset: 0x4C447, size: 0x8, addend: 0x0, symName: __ZNSt3__122__compressed_pair_elemIRNS_9allocatorIcEELi1ELb0EE5__getB8ne180100Ev, symObjAddr: 0x18980, symBinAddr: 0x10001B198, symSize: 0x18 }
  - { offset: 0x4C46D, size: 0x8, addend: 0x0, symName: __ZNSt3__117__compressed_pairIPcRNS_9allocatorIcEEE5firstB8ne180100Ev, symObjAddr: 0x18998, symBinAddr: 0x10001B1B0, symSize: 0x24 }
  - { offset: 0x4C493, size: 0x8, addend: 0x0, symName: __ZNKSt3__16vectorIcNS_9allocatorIcEEE17__annotate_deleteB8ne180100Ev, symObjAddr: 0x189BC, symBinAddr: 0x10001B1D4, symSize: 0x10 }
  - { offset: 0x4C4B9, size: 0x8, addend: 0x0, symName: __ZNSt3__116reverse_iteratorIPcEC1B8ne180100ES1_, symObjAddr: 0x18A44, symBinAddr: 0x10001B25C, symSize: 0x34 }
  - { offset: 0x4C4F1, size: 0x8, addend: 0x0, symName: __ZNKSt3__116reverse_iteratorIPcE4baseB8ne180100Ev, symObjAddr: 0x18A78, symBinAddr: 0x10001B290, symSize: 0x18 }
  - { offset: 0x4C517, size: 0x8, addend: 0x0, symName: __ZNKSt3__16vectorIcNS_9allocatorIcEEE14__annotate_newB8ne180100Em, symObjAddr: 0x18ACC, symBinAddr: 0x10001B2E4, symSize: 0x14 }
  - { offset: 0x4C569, size: 0x8, addend: 0x0, symName: __ZNKSt3__111__move_loopINS_17_ClassicAlgPolicyEEclB8ne180100INS_16reverse_iteratorIPcEES6_S6_EENS_4pairIT_T1_EES8_T0_S9_, symObjAddr: 0x18DD0, symBinAddr: 0x10001B5E8, symSize: 0xA0 }
  - { offset: 0x4C5DA, size: 0x8, addend: 0x0, symName: __ZNSt3__18_IterOpsINS_17_ClassicAlgPolicyEE11__iter_moveB8ne180100IRNS_16reverse_iteratorIPcEELi0EEEDTclsr3stdE4movedeclsr3stdE7declvalIRT_EEEEOS8_, symObjAddr: 0x19004, symBinAddr: 0x10001B81C, symSize: 0x28 }
  - { offset: 0x4C60C, size: 0x8, addend: 0x0, symName: __ZNKSt3__116reverse_iteratorIPcEdeB8ne180100Ev, symObjAddr: 0x1902C, symBinAddr: 0x10001B844, symSize: 0x28 }
  - { offset: 0x4C640, size: 0x8, addend: 0x0, symName: __ZNSt3__116reverse_iteratorIPcEppB8ne180100Ev, symObjAddr: 0x19054, symBinAddr: 0x10001B86C, symSize: 0x20 }
  - { offset: 0x4C666, size: 0x8, addend: 0x0, symName: __ZNSt3__18_IterOpsINS_17_ClassicAlgPolicyEE25__validate_iter_referenceB8ne180100IRNS_16reverse_iteratorIPcEEEEvv, symObjAddr: 0x19074, symBinAddr: 0x10001B88C, symSize: 0x4 }
  - { offset: 0x4C684, size: 0x8, addend: 0x0, symName: __ZNSt3__118__unwrap_iter_implINS_16reverse_iteratorIPcEELb0EE8__unwrapB8ne180100ES3_, symObjAddr: 0x19078, symBinAddr: 0x10001B890, symSize: 0x24 }
  - { offset: 0x4C6AD, size: 0x8, addend: 0x0, symName: __ZNSt3__14pairINS_16reverse_iteratorIPcEES3_EC1B8ne180100IS3_S3_Li0EEEOT_OT0_, symObjAddr: 0x1909C, symBinAddr: 0x10001B8B4, symSize: 0x3C }
  - { offset: 0x4C70B, size: 0x8, addend: 0x0, symName: __ZNSt3__14pairINS_16reverse_iteratorIPcEES3_EC2B8ne180100IS3_S3_Li0EEEOT_OT0_, symObjAddr: 0x190D8, symBinAddr: 0x10001B8F0, symSize: 0x34 }
  - { offset: 0x4C769, size: 0x8, addend: 0x0, symName: __ZNSt3__118__unwrap_iter_implINS_16reverse_iteratorIPcEELb0EE8__rewrapB8ne180100ES3_S3_, symObjAddr: 0x1910C, symBinAddr: 0x10001B924, symSize: 0x2C }
  - { offset: 0x4C797, size: 0x8, addend: 0x0, symName: __ZNSt3__116reverse_iteratorIPcEC2B8ne180100ES1_, symObjAddr: 0x19138, symBinAddr: 0x10001B950, symSize: 0x28 }
  - { offset: 0x4C7CF, size: 0x8, addend: 0x0, symName: __ZNSt3__114__split_bufferIcRNS_9allocatorIcEEED2Ev, symObjAddr: 0x19160, symBinAddr: 0x10001B978, symSize: 0x8C }
  - { offset: 0x4C7FB, size: 0x8, addend: 0x0, symName: __ZNSt3__114__split_bufferIcRNS_9allocatorIcEEE5clearB8ne180100Ev, symObjAddr: 0x191EC, symBinAddr: 0x10001BA04, symSize: 0x28 }
  - { offset: 0x4C821, size: 0x8, addend: 0x0, symName: __ZNSt3__116allocator_traitsINS_9allocatorIcEEE10deallocateB8ne180100ERS2_Pcm, symObjAddr: 0x19214, symBinAddr: 0x10001BA2C, symSize: 0x34 }
  - { offset: 0x4C863, size: 0x8, addend: 0x0, symName: __ZNKSt3__114__split_bufferIcRNS_9allocatorIcEEE8capacityB8ne180100Ev, symObjAddr: 0x19248, symBinAddr: 0x10001BA60, symSize: 0x38 }
  - { offset: 0x4C889, size: 0x8, addend: 0x0, symName: __ZNSt3__114__split_bufferIcRNS_9allocatorIcEEE17__destruct_at_endB8ne180100EPc, symObjAddr: 0x19280, symBinAddr: 0x10001BA98, symSize: 0x2C }
  - { offset: 0x4C8BD, size: 0x8, addend: 0x0, symName: __ZNSt3__114__split_bufferIcRNS_9allocatorIcEEE17__destruct_at_endB8ne180100EPcNS_17integral_constantIbLb0EEE, symObjAddr: 0x192AC, symBinAddr: 0x10001BAC4, symSize: 0x80 }
  - { offset: 0x4C8FE, size: 0x8, addend: 0x0, symName: __ZNSt3__116allocator_traitsINS_9allocatorIcEEE7destroyB8ne180100IcvEEvRS2_PT_, symObjAddr: 0x1932C, symBinAddr: 0x10001BB44, symSize: 0x2C }
  - { offset: 0x4C93B, size: 0x8, addend: 0x0, symName: __ZNSt3__19allocatorIcE7destroyB8ne180100EPc, symObjAddr: 0x19358, symBinAddr: 0x10001BB70, symSize: 0x14 }
  - { offset: 0x4C96F, size: 0x8, addend: 0x0, symName: __ZNSt3__19allocatorIcE10deallocateB8ne180100EPcm, symObjAddr: 0x1936C, symBinAddr: 0x10001BB84, symSize: 0x40 }
  - { offset: 0x4C9B1, size: 0x8, addend: 0x0, symName: __ZNKSt3__114__split_bufferIcRNS_9allocatorIcEEE9__end_capB8ne180100Ev, symObjAddr: 0x193AC, symBinAddr: 0x10001BBC4, symSize: 0x28 }
  - { offset: 0x4C9D7, size: 0x8, addend: 0x0, symName: __ZNKSt3__117__compressed_pairIPcRNS_9allocatorIcEEE5firstB8ne180100Ev, symObjAddr: 0x193D4, symBinAddr: 0x10001BBEC, symSize: 0x24 }
  - { offset: 0x4C9FD, size: 0x8, addend: 0x0, symName: __ZNKSt3__16vectorIcNS_9allocatorIcEEE5emptyB8ne180100Ev, symObjAddr: 0x193F8, symBinAddr: 0x10001BC10, symSize: 0x28 }
  - { offset: 0x4CA23, size: 0x8, addend: 0x0, symName: __ZNSt3__16vectorIcNS_9allocatorIcEEE8pop_backEv, symObjAddr: 0x19420, symBinAddr: 0x10001BC38, symSize: 0x2C }
  - { offset: 0x4CA4B, size: 0x8, addend: 0x0, symName: __ZNSt3__16vectorIcNS_9allocatorIcEEE17__destruct_at_endB8ne180100EPc, symObjAddr: 0x1944C, symBinAddr: 0x10001BC64, symSize: 0x4C }
  - { offset: 0x4CA8F, size: 0x8, addend: 0x0, symName: __ZNSt3__16vectorIcNS_9allocatorIcEEE22__base_destruct_at_endB8ne180100EPc, symObjAddr: 0x19498, symBinAddr: 0x10001BCB0, symSize: 0x8C }
  - { offset: 0x4CAD3, size: 0x8, addend: 0x0, symName: __ZNKSt3__16vectorIcNS_9allocatorIcEEE17__annotate_shrinkB8ne180100Em, symObjAddr: 0x19524, symBinAddr: 0x10001BD3C, symSize: 0x14 }
  - { offset: 0x4CB08, size: 0x8, addend: 0x0, symName: __ZN8nlohmann16json_abi_v3_11_26detail5lexerINS0_10basic_jsonINSt3__13mapENS4_6vectorENS4_12basic_stringIcNS4_11char_traitsIcEENS4_9allocatorIcEEEEbxydSA_NS0_14adl_serializerENS6_IhNSA_IhEEEEEENS1_20input_stream_adapterEE5resetEv, symObjAddr: 0x19538, symBinAddr: 0x10001BD50, symSize: 0x60 }
  - { offset: 0x4CB2E, size: 0x8, addend: 0x0, symName: __ZN8nlohmann16json_abi_v3_11_26detail5lexerINS0_10basic_jsonINSt3__13mapENS4_6vectorENS4_12basic_stringIcNS4_11char_traitsIcEENS4_9allocatorIcEEEEbxydSA_NS0_14adl_serializerENS6_IhNSA_IhEEEEEENS1_20input_stream_adapterEE3addEi, symObjAddr: 0x19598, symBinAddr: 0x10001BDB0, symSize: 0x34 }
  - { offset: 0x4CB63, size: 0x8, addend: 0x0, symName: __ZN8nlohmann16json_abi_v3_11_26detail5lexerINS0_10basic_jsonINSt3__13mapENS4_6vectorENS4_12basic_stringIcNS4_11char_traitsIcEENS4_9allocatorIcEEEEbxydSA_NS0_14adl_serializerENS6_IhNSA_IhEEEEEENS1_20input_stream_adapterEE13get_codepointEv, symObjAddr: 0x195CC, symBinAddr: 0x10001BDE4, symSize: 0x2B0 }
  - { offset: 0x4CBFB, size: 0x8, addend: 0x0, symName: __ZN8nlohmann16json_abi_v3_11_26detail5lexerINS0_10basic_jsonINSt3__13mapENS4_6vectorENS4_12basic_stringIcNS4_11char_traitsIcEENS4_9allocatorIcEEEEbxydSA_NS0_14adl_serializerENS6_IhNSA_IhEEEEEENS1_20input_stream_adapterEE18next_byte_in_rangeESt16initializer_listIiE, symObjAddr: 0x1987C, symBinAddr: 0x10001C094, symSize: 0x1C0 }
  - { offset: 0x4CC4E, size: 0x8, addend: 0x0, symName: __ZNSt3__112basic_stringIcNS_11char_traitsIcEENS_9allocatorIcEEE5clearB8ne180100Ev, symObjAddr: 0x19A3C, symBinAddr: 0x10001C254, symSize: 0x94 }
  - { offset: 0x4CC85, size: 0x8, addend: 0x0, symName: __ZNSt3__16vectorIcNS_9allocatorIcEEE5clearB8ne180100Ev, symObjAddr: 0x19AD0, symBinAddr: 0x10001C2E8, symSize: 0x44 }
  - { offset: 0x4CCBA, size: 0x8, addend: 0x0, symName: __ZNSt3__111char_traitsIcE6assignB8ne180100ERcRKc, symObjAddr: 0x19B14, symBinAddr: 0x10001C32C, symSize: 0x24 }
  - { offset: 0x4CCEB, size: 0x8, addend: 0x0, symName: __ZNSt3__112basic_stringIcNS_11char_traitsIcEENS_9allocatorIcEEE15__set_long_sizeB8ne180100Em, symObjAddr: 0x19B38, symBinAddr: 0x10001C350, symSize: 0x38 }
  - { offset: 0x4CD20, size: 0x8, addend: 0x0, symName: __ZNSt3__112basic_stringIcNS_11char_traitsIcEENS_9allocatorIcEEE16__set_short_sizeB8ne180100Em, symObjAddr: 0x19B70, symBinAddr: 0x10001C388, symSize: 0x78 }
  - { offset: 0x4CD55, size: 0x8, addend: 0x0, symName: __ZNKSt3__112basic_stringIcNS_11char_traitsIcEENS_9allocatorIcEEE17__annotate_shrinkB8ne180100Em, symObjAddr: 0x19BE8, symBinAddr: 0x10001C400, symSize: 0x14 }
  - { offset: 0x4CD8A, size: 0x8, addend: 0x0, symName: __ZNSt3__16vectorIcNS_9allocatorIcEEE7__clearB8ne180100Ev, symObjAddr: 0x19BFC, symBinAddr: 0x10001C414, symSize: 0x28 }
  - { offset: 0x4CDC7, size: 0x8, addend: 0x0, symName: __ZNKSt16initializer_listIjE5beginB8ne180100Ev, symObjAddr: 0x19C24, symBinAddr: 0x10001C43C, symSize: 0x18 }
  - { offset: 0x4CDED, size: 0x8, addend: 0x0, symName: __ZNKSt16initializer_listIjE3endB8ne180100Ev, symObjAddr: 0x19C3C, symBinAddr: 0x10001C454, symSize: 0x20 }
  - { offset: 0x4CE13, size: 0x8, addend: 0x0, symName: __ZNKSt16initializer_listIiE4sizeB8ne180100Ev, symObjAddr: 0x19C5C, symBinAddr: 0x10001C474, symSize: 0x18 }
  - { offset: 0x4CE39, size: 0x8, addend: 0x0, symName: __ZNKSt16initializer_listIiE5beginB8ne180100Ev, symObjAddr: 0x19C74, symBinAddr: 0x10001C48C, symSize: 0x18 }
  - { offset: 0x4CE5F, size: 0x8, addend: 0x0, symName: __ZNKSt16initializer_listIiE3endB8ne180100Ev, symObjAddr: 0x19C8C, symBinAddr: 0x10001C4A4, symSize: 0x20 }
  - { offset: 0x4CE85, size: 0x8, addend: 0x0, symName: __ZN8nlohmann16json_abi_v3_11_26detail5lexerINS0_10basic_jsonINSt3__13mapENS4_6vectorENS4_12basic_stringIcNS4_11char_traitsIcEENS4_9allocatorIcEEEEbxydSA_NS0_14adl_serializerENS6_IhNSA_IhEEEEEENS1_20input_stream_adapterEE6strtofERdPKcPPc, symObjAddr: 0x19CAC, symBinAddr: 0x10001C4C4, symSize: 0x48 }
  - { offset: 0x4CEC7, size: 0x8, addend: 0x0, symName: __ZN8nlohmann16json_abi_v3_11_26detail5lexerINS0_10basic_jsonINSt3__13mapENS4_6vectorENS4_12basic_stringIcNS4_11char_traitsIcEENS4_9allocatorIcEEEEbxydSA_NS0_14adl_serializerENS6_IhNSA_IhEEEEEENS1_20input_stream_adapterEED2Ev, symObjAddr: 0x19CF4, symBinAddr: 0x10001C50C, symSize: 0x44 }
  - { offset: 0x4CEF1, size: 0x8, addend: 0x0, symName: __ZNSt3__16vectorIcNS_9allocatorIcEEED1B8ne180100Ev, symObjAddr: 0x19D38, symBinAddr: 0x10001C550, symSize: 0x2C }
  - { offset: 0x4CF1B, size: 0x8, addend: 0x0, symName: __ZNSt3__16vectorIcNS_9allocatorIcEEED2B8ne180100Ev, symObjAddr: 0x19D64, symBinAddr: 0x10001C57C, symSize: 0x44 }
  - { offset: 0x4CF45, size: 0x8, addend: 0x0, symName: __ZNSt3__16vectorIcNS_9allocatorIcEEE16__destroy_vectorC1B8ne180100ERS3_, symObjAddr: 0x19DA8, symBinAddr: 0x10001C5C0, symSize: 0x34 }
  - { offset: 0x4CF7E, size: 0x8, addend: 0x0, symName: __ZNSt3__16vectorIcNS_9allocatorIcEEE16__destroy_vectorclB8ne180100Ev, symObjAddr: 0x19DDC, symBinAddr: 0x10001C5F4, symSize: 0x90 }
  - { offset: 0x4CFA4, size: 0x8, addend: 0x0, symName: __ZNSt3__16vectorIcNS_9allocatorIcEEE16__destroy_vectorC2B8ne180100ERS3_, symObjAddr: 0x19E6C, symBinAddr: 0x10001C684, symSize: 0x20 }
  - { offset: 0x4CFDD, size: 0x8, addend: 0x0, symName: __ZN8nlohmann16json_abi_v3_11_26detail20input_stream_adapterC1ERNSt3__113basic_istreamIcNS3_11char_traitsIcEEEE, symObjAddr: 0x19E8C, symBinAddr: 0x10001C6A4, symSize: 0x34 }
  - { offset: 0x4D016, size: 0x8, addend: 0x0, symName: __ZN8nlohmann16json_abi_v3_11_26detail20input_stream_adapterC2ERNSt3__113basic_istreamIcNS3_11char_traitsIcEEEE, symObjAddr: 0x19EC0, symBinAddr: 0x10001C6D8, symSize: 0x50 }
  - { offset: 0x4D04F, size: 0x8, addend: 0x0, symName: __ZNSt3__18functionIFbiN8nlohmann16json_abi_v3_11_26detail13parse_event_tERNS2_10basic_jsonINS_3mapENS_6vectorENS_12basic_stringIcNS_11char_traitsIcEENS_9allocatorIcEEEEbxydSB_NS2_14adl_serializerENS7_IhNSB_IhEEEEEEEEC2B8ne180100EDn, symObjAddr: 0x19F10, symBinAddr: 0x10001C728, symSize: 0x30 }
  - { offset: 0x4D085, size: 0x8, addend: 0x0, symName: __ZNSt3__110__function12__value_funcIFbiN8nlohmann16json_abi_v3_11_26detail13parse_event_tERNS3_10basic_jsonINS_3mapENS_6vectorENS_12basic_stringIcNS_11char_traitsIcEENS_9allocatorIcEEEEbxydSC_NS3_14adl_serializerENS8_IhNSC_IhEEEEEEEEC1B8ne180100Ev, symObjAddr: 0x19F40, symBinAddr: 0x10001C758, symSize: 0x2C }
  - { offset: 0x4D0AF, size: 0x8, addend: 0x0, symName: __ZNSt3__110__function12__value_funcIFbiN8nlohmann16json_abi_v3_11_26detail13parse_event_tERNS3_10basic_jsonINS_3mapENS_6vectorENS_12basic_stringIcNS_11char_traitsIcEENS_9allocatorIcEEEEbxydSC_NS3_14adl_serializerENS8_IhNSC_IhEEEEEEEEC2B8ne180100Ev, symObjAddr: 0x19F6C, symBinAddr: 0x10001C784, symSize: 0x18 }
  - { offset: 0x4D0D9, size: 0x8, addend: 0x0, symName: __ZNKSt3__18functionIFbiN8nlohmann16json_abi_v3_11_26detail13parse_event_tERNS2_10basic_jsonINS_3mapENS_6vectorENS_12basic_stringIcNS_11char_traitsIcEENS_9allocatorIcEEEEbxydSB_NS2_14adl_serializerENS7_IhNSB_IhEEEEEEEEcvbB8ne180100Ev, symObjAddr: 0x19F84, symBinAddr: 0x10001C79C, symSize: 0x28 }
  - { offset: 0x4D13E, size: 0x8, addend: 0x0, symName: __ZN8nlohmann16json_abi_v3_11_26detail28json_sax_dom_callback_parserINS0_10basic_jsonINSt3__13mapENS4_6vectorENS4_12basic_stringIcNS4_11char_traitsIcEENS4_9allocatorIcEEEEbxydSA_NS0_14adl_serializerENS6_IhNSA_IhEEEEEEEC1ERSG_NS4_8functionIFbiNS1_13parse_event_tESI_EEEb, symObjAddr: 0x19FAC, symBinAddr: 0x10001C7C4, symSize: 0x50 }
  - { offset: 0x4D19C, size: 0x8, addend: 0x0, symName: __ZN8nlohmann16json_abi_v3_11_26detail6parserINS0_10basic_jsonINSt3__13mapENS4_6vectorENS4_12basic_stringIcNS4_11char_traitsIcEENS4_9allocatorIcEEEEbxydSA_NS0_14adl_serializerENS6_IhNSA_IhEEEEEENS1_20input_stream_adapterEE18sax_parse_internalINS1_28json_sax_dom_callback_parserISG_EEEEbPT_, symObjAddr: 0x19FFC, symBinAddr: 0x10001C814, symSize: 0x1444 }
  - { offset: 0x4D22F, size: 0x8, addend: 0x0, symName: __ZN8nlohmann16json_abi_v3_11_26detail28json_sax_dom_callback_parserINS0_10basic_jsonINSt3__13mapENS4_6vectorENS4_12basic_stringIcNS4_11char_traitsIcEENS4_9allocatorIcEEEEbxydSA_NS0_14adl_serializerENS6_IhNSA_IhEEEEEEE11parse_errorINS1_11parse_errorEEEbmRKSC_RKT_, symObjAddr: 0x1B484, symBinAddr: 0x10001DC9C, symSize: 0x74 }
  - { offset: 0x4D285, size: 0x8, addend: 0x0, symName: __ZNK8nlohmann16json_abi_v3_11_26detail5lexerINS0_10basic_jsonINSt3__13mapENS4_6vectorENS4_12basic_stringIcNS4_11char_traitsIcEENS4_9allocatorIcEEEEbxydSA_NS0_14adl_serializerENS6_IhNSA_IhEEEEEENS1_20input_stream_adapterEE12get_positionEv, symObjAddr: 0x1B4F8, symBinAddr: 0x10001DD10, symSize: 0x28 }
  - { offset: 0x4D2AB, size: 0x8, addend: 0x0, symName: __ZNK8nlohmann16json_abi_v3_11_26detail10position_tcvmEv, symObjAddr: 0x1B520, symBinAddr: 0x10001DD38, symSize: 0x18 }
  - { offset: 0x4D2D1, size: 0x8, addend: 0x0, symName: __ZNK8nlohmann16json_abi_v3_11_26detail5lexerINS0_10basic_jsonINSt3__13mapENS4_6vectorENS4_12basic_stringIcNS4_11char_traitsIcEENS4_9allocatorIcEEEEbxydSA_NS0_14adl_serializerENS6_IhNSA_IhEEEEEENS1_20input_stream_adapterEE16get_token_stringEv, symObjAddr: 0x1B538, symBinAddr: 0x10001DD50, symSize: 0x1B8 }
  - { offset: 0x4D369, size: 0x8, addend: 0x0, symName: __ZN8nlohmann16json_abi_v3_11_26detail11parse_error6createIDnLi0EEES2_iRKNS1_10position_tERKNSt3__112basic_stringIcNS7_11char_traitsIcEENS7_9allocatorIcEEEET_, symObjAddr: 0x1B6F0, symBinAddr: 0x10001DF08, symSize: 0x18C }
  - { offset: 0x4D3D8, size: 0x8, addend: 0x0, symName: __ZN8nlohmann16json_abi_v3_11_26detail6parserINS0_10basic_jsonINSt3__13mapENS4_6vectorENS4_12basic_stringIcNS4_11char_traitsIcEENS4_9allocatorIcEEEEbxydSA_NS0_14adl_serializerENS6_IhNSA_IhEEEEEENS1_20input_stream_adapterEE17exception_messageENS1_10lexer_baseISG_E10token_typeERKSC_, symObjAddr: 0x1B87C, symBinAddr: 0x10001E094, symSize: 0x2B0 }
  - { offset: 0x4D42C, size: 0x8, addend: 0x0, symName: __ZN8nlohmann16json_abi_v3_11_26detail11parse_errorD1Ev, symObjAddr: 0x1BB2C, symBinAddr: 0x10001E344, symSize: 0x2C }
  - { offset: 0x4D459, size: 0x8, addend: 0x0, symName: __ZNK8nlohmann16json_abi_v3_11_26detail28json_sax_dom_callback_parserINS0_10basic_jsonINSt3__13mapENS4_6vectorENS4_12basic_stringIcNS4_11char_traitsIcEENS4_9allocatorIcEEEEbxydSA_NS0_14adl_serializerENS6_IhNSA_IhEEEEEEE10is_erroredEv, symObjAddr: 0x1BB58, symBinAddr: 0x10001E370, symSize: 0x1C }
  - { offset: 0x4D47F, size: 0x8, addend: 0x0, symName: __ZN8nlohmann16json_abi_v3_11_210basic_jsonINSt3__13mapENS2_6vectorENS2_12basic_stringIcNS2_11char_traitsIcEENS2_9allocatorIcEEEEbxydS8_NS0_14adl_serializerENS4_IhNS8_IhEEEEEaSESE_, symObjAddr: 0x1BB74, symBinAddr: 0x10001E38C, symSize: 0x80 }
  - { offset: 0x4D4B5, size: 0x8, addend: 0x0, symName: __ZNK8nlohmann16json_abi_v3_11_210basic_jsonINSt3__13mapENS2_6vectorENS2_12basic_stringIcNS2_11char_traitsIcEENS2_9allocatorIcEEEEbxydS8_NS0_14adl_serializerENS4_IhNS8_IhEEEEE12is_discardedEv, symObjAddr: 0x1BBF4, symBinAddr: 0x10001E40C, symSize: 0x24 }
  - { offset: 0x4D4DB, size: 0x8, addend: 0x0, symName: __ZN8nlohmann16json_abi_v3_11_26detail28json_sax_dom_callback_parserINS0_10basic_jsonINSt3__13mapENS4_6vectorENS4_12basic_stringIcNS4_11char_traitsIcEENS4_9allocatorIcEEEEbxydSA_NS0_14adl_serializerENS6_IhNSA_IhEEEEEEED1Ev, symObjAddr: 0x1BC18, symBinAddr: 0x10001E430, symSize: 0x2C }
  - { offset: 0x4D53F, size: 0x8, addend: 0x0, symName: __ZN8nlohmann16json_abi_v3_11_26detail19json_sax_dom_parserINS0_10basic_jsonINSt3__13mapENS4_6vectorENS4_12basic_stringIcNS4_11char_traitsIcEENS4_9allocatorIcEEEEbxydSA_NS0_14adl_serializerENS6_IhNSA_IhEEEEEEEC1ERSG_b, symObjAddr: 0x1BC44, symBinAddr: 0x10001E45C, symSize: 0x48 }
  - { offset: 0x4D58D, size: 0x8, addend: 0x0, symName: __ZN8nlohmann16json_abi_v3_11_26detail6parserINS0_10basic_jsonINSt3__13mapENS4_6vectorENS4_12basic_stringIcNS4_11char_traitsIcEENS4_9allocatorIcEEEEbxydSA_NS0_14adl_serializerENS6_IhNSA_IhEEEEEENS1_20input_stream_adapterEE18sax_parse_internalINS1_19json_sax_dom_parserISG_EEEEbPT_, symObjAddr: 0x1BC8C, symBinAddr: 0x10001E4A4, symSize: 0x13F8 }
  - { offset: 0x4D609, size: 0x8, addend: 0x0, symName: __ZN8nlohmann16json_abi_v3_11_26detail19json_sax_dom_parserINS0_10basic_jsonINSt3__13mapENS4_6vectorENS4_12basic_stringIcNS4_11char_traitsIcEENS4_9allocatorIcEEEEbxydSA_NS0_14adl_serializerENS6_IhNSA_IhEEEEEEE11parse_errorINS1_11parse_errorEEEbmRKSC_RKT_, symObjAddr: 0x1D0C8, symBinAddr: 0x10001F8E0, symSize: 0x74 }
  - { offset: 0x4D65F, size: 0x8, addend: 0x0, symName: __ZNK8nlohmann16json_abi_v3_11_26detail19json_sax_dom_parserINS0_10basic_jsonINSt3__13mapENS4_6vectorENS4_12basic_stringIcNS4_11char_traitsIcEENS4_9allocatorIcEEEEbxydSA_NS0_14adl_serializerENS6_IhNSA_IhEEEEEEE10is_erroredEv, symObjAddr: 0x1D13C, symBinAddr: 0x10001F954, symSize: 0x1C }
  - { offset: 0x4D685, size: 0x8, addend: 0x0, symName: __ZN8nlohmann16json_abi_v3_11_26detail19json_sax_dom_parserINS0_10basic_jsonINSt3__13mapENS4_6vectorENS4_12basic_stringIcNS4_11char_traitsIcEENS4_9allocatorIcEEEEbxydSA_NS0_14adl_serializerENS6_IhNSA_IhEEEEEEED1Ev, symObjAddr: 0x1D158, symBinAddr: 0x10001F970, symSize: 0x2C }
  - { offset: 0x4D6AF, size: 0x8, addend: 0x0, symName: __ZNKSt3__110__function12__value_funcIFbiN8nlohmann16json_abi_v3_11_26detail13parse_event_tERNS3_10basic_jsonINS_3mapENS_6vectorENS_12basic_stringIcNS_11char_traitsIcEENS_9allocatorIcEEEEbxydSC_NS3_14adl_serializerENS8_IhNSC_IhEEEEEEEEcvbB8ne180100Ev, symObjAddr: 0x1D184, symBinAddr: 0x10001F99C, symSize: 0x24 }
  - { offset: 0x4D6D5, size: 0x8, addend: 0x0, symName: __ZN8nlohmann16json_abi_v3_11_26detail28json_sax_dom_callback_parserINS0_10basic_jsonINSt3__13mapENS4_6vectorENS4_12basic_stringIcNS4_11char_traitsIcEENS4_9allocatorIcEEEEbxydSA_NS0_14adl_serializerENS6_IhNSA_IhEEEEEEEC2ERSG_NS4_8functionIFbiNS1_13parse_event_tESI_EEEb, symObjAddr: 0x1D1A8, symBinAddr: 0x10001F9C0, symSize: 0x13C }
  - { offset: 0x4D72D, size: 0x8, addend: 0x0, symName: __ZNSt3__16vectorIPN8nlohmann16json_abi_v3_11_210basic_jsonINS_3mapES0_NS_12basic_stringIcNS_11char_traitsIcEENS_9allocatorIcEEEEbxydS8_NS2_14adl_serializerENS0_IhNS8_IhEEEEEENS8_ISF_EEEC1B8ne180100Ev, symObjAddr: 0x1D2E4, symBinAddr: 0x10001FAFC, symSize: 0x2C }
  - { offset: 0x4D757, size: 0x8, addend: 0x0, symName: __ZNSt3__16vectorIbNS_9allocatorIbEEEC1B8ne180100Ev, symObjAddr: 0x1D310, symBinAddr: 0x10001FB28, symSize: 0x2C }
  - { offset: 0x4D783, size: 0x8, addend: 0x0, symName: __ZNSt3__16vectorIbNS_9allocatorIbEEE9push_backERKb, symObjAddr: 0x1D33C, symBinAddr: 0x10001FB54, symSize: 0xA4 }
  - { offset: 0x4D7BA, size: 0x8, addend: 0x0, symName: __ZNSt3__16vectorIbNS_9allocatorIbEEED1B8ne180100Ev, symObjAddr: 0x1D3E0, symBinAddr: 0x10001FBF8, symSize: 0x2C }
  - { offset: 0x4D7E4, size: 0x8, addend: 0x0, symName: __ZNSt3__16vectorIPN8nlohmann16json_abi_v3_11_210basic_jsonINS_3mapES0_NS_12basic_stringIcNS_11char_traitsIcEENS_9allocatorIcEEEEbxydS8_NS2_14adl_serializerENS0_IhNS8_IhEEEEEENS8_ISF_EEED1B8ne180100Ev, symObjAddr: 0x1D40C, symBinAddr: 0x10001FC24, symSize: 0x2C }
  - { offset: 0x4D80E, size: 0x8, addend: 0x0, symName: __ZNSt3__16vectorIPN8nlohmann16json_abi_v3_11_210basic_jsonINS_3mapES0_NS_12basic_stringIcNS_11char_traitsIcEENS_9allocatorIcEEEEbxydS8_NS2_14adl_serializerENS0_IhNS8_IhEEEEEENS8_ISF_EEEC2B8ne180100Ev, symObjAddr: 0x1D438, symBinAddr: 0x10001FC50, symSize: 0x4C }
  - { offset: 0x4D838, size: 0x8, addend: 0x0, symName: __ZNSt3__117__compressed_pairIPPN8nlohmann16json_abi_v3_11_210basic_jsonINS_3mapENS_6vectorENS_12basic_stringIcNS_11char_traitsIcEENS_9allocatorIcEEEEbxydS9_NS2_14adl_serializerENS5_IhNS9_IhEEEEEENS9_ISG_EEEC1B8ne180100IDnNS_18__default_init_tagEEEOT_OT0_, symObjAddr: 0x1D484, symBinAddr: 0x10001FC9C, symSize: 0x3C }
  - { offset: 0x4D890, size: 0x8, addend: 0x0, symName: __ZNSt3__117__compressed_pairIPPN8nlohmann16json_abi_v3_11_210basic_jsonINS_3mapENS_6vectorENS_12basic_stringIcNS_11char_traitsIcEENS_9allocatorIcEEEEbxydS9_NS2_14adl_serializerENS5_IhNS9_IhEEEEEENS9_ISG_EEEC2B8ne180100IDnNS_18__default_init_tagEEEOT_OT0_, symObjAddr: 0x1D4C0, symBinAddr: 0x10001FCD8, symSize: 0x40 }
  - { offset: 0x4D8E8, size: 0x8, addend: 0x0, symName: __ZNSt3__122__compressed_pair_elemIPPN8nlohmann16json_abi_v3_11_210basic_jsonINS_3mapENS_6vectorENS_12basic_stringIcNS_11char_traitsIcEENS_9allocatorIcEEEEbxydS9_NS2_14adl_serializerENS5_IhNS9_IhEEEEEELi0ELb0EEC2B8ne180100IDnvEEOT_, symObjAddr: 0x1D500, symBinAddr: 0x10001FD18, symSize: 0x1C }
  - { offset: 0x4D92A, size: 0x8, addend: 0x0, symName: __ZNSt3__122__compressed_pair_elemINS_9allocatorIPN8nlohmann16json_abi_v3_11_210basic_jsonINS_3mapENS_6vectorENS_12basic_stringIcNS_11char_traitsIcEENS1_IcEEEEbxydS1_NS3_14adl_serializerENS6_IhNS1_IhEEEEEEEELi1ELb1EEC2B8ne180100ENS_18__default_init_tagE, symObjAddr: 0x1D51C, symBinAddr: 0x10001FD34, symSize: 0x2C }
  - { offset: 0x4D95F, size: 0x8, addend: 0x0, symName: __ZNSt3__19allocatorIPN8nlohmann16json_abi_v3_11_210basic_jsonINS_3mapENS_6vectorENS_12basic_stringIcNS_11char_traitsIcEENS0_IcEEEEbxydS0_NS2_14adl_serializerENS5_IhNS0_IhEEEEEEEC2B8ne180100Ev, symObjAddr: 0x1D548, symBinAddr: 0x10001FD60, symSize: 0x2C }
  - { offset: 0x4D989, size: 0x8, addend: 0x0, symName: __ZNSt3__116__non_trivial_ifILb1ENS_9allocatorIPN8nlohmann16json_abi_v3_11_210basic_jsonINS_3mapENS_6vectorENS_12basic_stringIcNS_11char_traitsIcEENS1_IcEEEEbxydS1_NS3_14adl_serializerENS6_IhNS1_IhEEEEEEEEEC2B8ne180100Ev, symObjAddr: 0x1D574, symBinAddr: 0x10001FD8C, symSize: 0x14 }
  - { offset: 0x4D9B3, size: 0x8, addend: 0x0, symName: __ZNSt3__16vectorIbNS_9allocatorIbEEEC2B8ne180100Ev, symObjAddr: 0x1D588, symBinAddr: 0x10001FDA0, symSize: 0x4C }
  - { offset: 0x4D9DF, size: 0x8, addend: 0x0, symName: __ZNSt3__117__compressed_pairImNS_9allocatorImEEEC1B8ne180100IiNS_18__default_init_tagEEEOT_OT0_, symObjAddr: 0x1D5D4, symBinAddr: 0x10001FDEC, symSize: 0x3C }
  - { offset: 0x4DA37, size: 0x8, addend: 0x0, symName: __ZNSt3__117__compressed_pairImNS_9allocatorImEEEC2B8ne180100IiNS_18__default_init_tagEEEOT_OT0_, symObjAddr: 0x1D610, symBinAddr: 0x10001FE28, symSize: 0x40 }
  - { offset: 0x4DA8F, size: 0x8, addend: 0x0, symName: __ZNSt3__122__compressed_pair_elemINS_9allocatorImEELi1ELb1EEC2B8ne180100ENS_18__default_init_tagE, symObjAddr: 0x1D650, symBinAddr: 0x10001FE68, symSize: 0x2C }
  - { offset: 0x4DAC4, size: 0x8, addend: 0x0, symName: __ZNSt3__19allocatorImEC2B8ne180100Ev, symObjAddr: 0x1D67C, symBinAddr: 0x10001FE94, symSize: 0x2C }
  - { offset: 0x4DAEE, size: 0x8, addend: 0x0, symName: __ZNSt3__116__non_trivial_ifILb1ENS_9allocatorImEEEC2B8ne180100Ev, symObjAddr: 0x1D6A8, symBinAddr: 0x10001FEC0, symSize: 0x14 }
  - { offset: 0x4DB18, size: 0x8, addend: 0x0, symName: __ZNKSt3__16vectorIbNS_9allocatorIbEEE8capacityB8ne180100Ev, symObjAddr: 0x1D6BC, symBinAddr: 0x10001FED4, symSize: 0x2C }
  - { offset: 0x4DB3E, size: 0x8, addend: 0x0, symName: __ZNSt3__16vectorIbNS_9allocatorIbEEE7reserveEm, symObjAddr: 0x1D6E8, symBinAddr: 0x10001FF00, symSize: 0x118 }
  - { offset: 0x4DB8A, size: 0x8, addend: 0x0, symName: __ZNKSt3__16vectorIbNS_9allocatorIbEEE11__recommendB8ne180100Em, symObjAddr: 0x1D800, symBinAddr: 0x100020018, symSize: 0xCC }
  - { offset: 0x4DBDF, size: 0x8, addend: 0x0, symName: __ZNSt3__16vectorIbNS_9allocatorIbEEE4backB8ne180100Ev, symObjAddr: 0x1D8CC, symBinAddr: 0x1000200E4, symSize: 0x3C }
  - { offset: 0x4DC05, size: 0x8, addend: 0x0, symName: __ZNSt3__115__bit_referenceINS_6vectorIbNS_9allocatorIbEEEELb1EEaSB8ne180100Eb, symObjAddr: 0x1D908, symBinAddr: 0x100020120, symSize: 0x6C }
  - { offset: 0x4DC39, size: 0x8, addend: 0x0, symName: __ZNSt3__16vectorIbNS_9allocatorIbEEE26__internal_cap_to_externalB8ne180100Em, symObjAddr: 0x1D974, symBinAddr: 0x10002018C, symSize: 0x18 }
  - { offset: 0x4DC5D, size: 0x8, addend: 0x0, symName: __ZNKSt3__16vectorIbNS_9allocatorIbEEE5__capB8ne180100Ev, symObjAddr: 0x1D98C, symBinAddr: 0x1000201A4, symSize: 0x28 }
  - { offset: 0x4DC83, size: 0x8, addend: 0x0, symName: __ZNKSt3__117__compressed_pairImNS_9allocatorImEEE5firstB8ne180100Ev, symObjAddr: 0x1D9B4, symBinAddr: 0x1000201CC, symSize: 0x24 }
  - { offset: 0x4DCA9, size: 0x8, addend: 0x0, symName: __ZNKSt3__16vectorIbNS_9allocatorIbEEE8max_sizeEv, symObjAddr: 0x1D9D8, symBinAddr: 0x1000201F0, symSize: 0x7C }
  - { offset: 0x4DCEF, size: 0x8, addend: 0x0, symName: __ZNKSt3__16vectorIbNS_9allocatorIbEEE20__throw_length_errorB8ne180100Ev, symObjAddr: 0x1DA54, symBinAddr: 0x10002026C, symSize: 0x1C }
  - { offset: 0x4DD15, size: 0x8, addend: 0x0, symName: __ZNKSt3__16vectorIbNS_9allocatorIbEEE13get_allocatorB8ne180100Ev, symObjAddr: 0x1DA70, symBinAddr: 0x100020288, symSize: 0x30 }
  - { offset: 0x4DD3B, size: 0x8, addend: 0x0, symName: __ZNSt3__16vectorIbNS_9allocatorIbEEEC1B8ne180100ERKS2_, symObjAddr: 0x1DAA0, symBinAddr: 0x1000202B8, symSize: 0x34 }
  - { offset: 0x4DD76, size: 0x8, addend: 0x0, symName: __ZNSt3__16vectorIbNS_9allocatorIbEEE11__vallocateB8ne180100Em, symObjAddr: 0x1DAD4, symBinAddr: 0x1000202EC, symSize: 0xA0 }
  - { offset: 0x4DDBA, size: 0x8, addend: 0x0, symName: __ZNSt3__16vectorIbNS_9allocatorIbEEE18__construct_at_endINS_14__bit_iteratorIS3_Lb0ELm0EEES6_EEvT_T0_m, symObjAddr: 0x1DB74, symBinAddr: 0x10002038C, symSize: 0x12C }
  - { offset: 0x4DE32, size: 0x8, addend: 0x0, symName: __ZNSt3__16vectorIbNS_9allocatorIbEEE5beginB8ne180100Ev, symObjAddr: 0x1DCA0, symBinAddr: 0x1000204B8, symSize: 0x30 }
  - { offset: 0x4DE58, size: 0x8, addend: 0x0, symName: __ZNSt3__16vectorIbNS_9allocatorIbEEE3endB8ne180100Ev, symObjAddr: 0x1DCD0, symBinAddr: 0x1000204E8, symSize: 0x30 }
  - { offset: 0x4DE7E, size: 0x8, addend: 0x0, symName: __ZNKSt3__16vectorIbNS_9allocatorIbEEE4sizeB8ne180100Ev, symObjAddr: 0x1DD00, symBinAddr: 0x100020518, symSize: 0x18 }
  - { offset: 0x4DEA4, size: 0x8, addend: 0x0, symName: __ZNSt3__16vectorIbNS_9allocatorIbEEE4swapERS3_, symObjAddr: 0x1DD18, symBinAddr: 0x100020530, symSize: 0x84 }
  - { offset: 0x4DEE6, size: 0x8, addend: 0x0, symName: __ZNSt3__116allocator_traitsINS_9allocatorImEEE8max_sizeB8ne180100IS2_vEEmRKS2_, symObjAddr: 0x1DD9C, symBinAddr: 0x1000205B4, symSize: 0x24 }
  - { offset: 0x4DF14, size: 0x8, addend: 0x0, symName: __ZNKSt3__16vectorIbNS_9allocatorIbEEE7__allocB8ne180100Ev, symObjAddr: 0x1DDC0, symBinAddr: 0x1000205D8, symSize: 0x28 }
  - { offset: 0x4DF3A, size: 0x8, addend: 0x0, symName: __ZNSt3__114numeric_limitsImE3maxB8ne180100Ev, symObjAddr: 0x1DDE8, symBinAddr: 0x100020600, symSize: 0x14 }
  - { offset: 0x4DF4E, size: 0x8, addend: 0x0, symName: __ZNKSt3__19allocatorImE8max_sizeB8ne180100Ev, symObjAddr: 0x1DDFC, symBinAddr: 0x100020614, symSize: 0x14 }
  - { offset: 0x4DF74, size: 0x8, addend: 0x0, symName: __ZNKSt3__117__compressed_pairImNS_9allocatorImEEE6secondB8ne180100Ev, symObjAddr: 0x1DE10, symBinAddr: 0x100020628, symSize: 0x24 }
  - { offset: 0x4DF9A, size: 0x8, addend: 0x0, symName: __ZNKSt3__122__compressed_pair_elemINS_9allocatorImEELi1ELb1EE5__getB8ne180100Ev, symObjAddr: 0x1DE34, symBinAddr: 0x10002064C, symSize: 0x14 }
  - { offset: 0x4DFC0, size: 0x8, addend: 0x0, symName: __ZNSt3__123__libcpp_numeric_limitsImLb1EE3maxB8ne180100Ev, symObjAddr: 0x1DE48, symBinAddr: 0x100020660, symSize: 0x8 }
  - { offset: 0x4DFD4, size: 0x8, addend: 0x0, symName: __ZNSt3__19allocatorIbEC1B8ne180100ImEERKNS0_IT_EE, symObjAddr: 0x1DE50, symBinAddr: 0x100020668, symSize: 0x34 }
  - { offset: 0x4E012, size: 0x8, addend: 0x0, symName: __ZNSt3__19allocatorIbEC2B8ne180100ImEERKNS0_IT_EE, symObjAddr: 0x1DE84, symBinAddr: 0x10002069C, symSize: 0x30 }
  - { offset: 0x4E050, size: 0x8, addend: 0x0, symName: __ZNSt3__116__non_trivial_ifILb1ENS_9allocatorIbEEEC2B8ne180100Ev, symObjAddr: 0x1DEB4, symBinAddr: 0x1000206CC, symSize: 0x14 }
  - { offset: 0x4E07A, size: 0x8, addend: 0x0, symName: __ZNSt3__16vectorIbNS_9allocatorIbEEEC2B8ne180100ERKS2_, symObjAddr: 0x1DEC8, symBinAddr: 0x1000206E0, symSize: 0x6C }
  - { offset: 0x4E0BB, size: 0x8, addend: 0x0, symName: __ZNSt3__19allocatorImEC1B8ne180100IbEERKNS0_IT_EE, symObjAddr: 0x1DF34, symBinAddr: 0x10002074C, symSize: 0x34 }
  - { offset: 0x4E0FF, size: 0x8, addend: 0x0, symName: __ZNSt3__117__compressed_pairImNS_9allocatorImEEEC1B8ne180100IiS2_EEOT_OT0_, symObjAddr: 0x1DF68, symBinAddr: 0x100020780, symSize: 0x3C }
  - { offset: 0x4E157, size: 0x8, addend: 0x0, symName: __ZNSt3__19allocatorImEC2B8ne180100IbEERKNS0_IT_EE, symObjAddr: 0x1DFA4, symBinAddr: 0x1000207BC, symSize: 0x30 }
  - { offset: 0x4E195, size: 0x8, addend: 0x0, symName: __ZNSt3__117__compressed_pairImNS_9allocatorImEEEC2B8ne180100IiS2_EEOT_OT0_, symObjAddr: 0x1DFD4, symBinAddr: 0x1000207EC, symSize: 0x44 }
  - { offset: 0x4E1ED, size: 0x8, addend: 0x0, symName: __ZNSt3__122__compressed_pair_elemINS_9allocatorImEELi1ELb1EEC2B8ne180100IS2_vEEOT_, symObjAddr: 0x1E018, symBinAddr: 0x100020830, symSize: 0x18 }
  - { offset: 0x4E22F, size: 0x8, addend: 0x0, symName: __ZNSt3__16vectorIbNS_9allocatorIbEEE7__allocB8ne180100Ev, symObjAddr: 0x1E070, symBinAddr: 0x100020888, symSize: 0x28 }
  - { offset: 0x4E255, size: 0x8, addend: 0x0, symName: __ZNSt3__16vectorIbNS_9allocatorIbEEE26__external_cap_to_internalB8ne180100Em, symObjAddr: 0x1E098, symBinAddr: 0x1000208B0, symSize: 0x24 }
  - { offset: 0x4E279, size: 0x8, addend: 0x0, symName: __ZNSt3__16vectorIbNS_9allocatorIbEEE5__capB8ne180100Ev, symObjAddr: 0x1E0BC, symBinAddr: 0x1000208D4, symSize: 0x28 }
  - { offset: 0x4E29F, size: 0x8, addend: 0x0, symName: __ZNSt3__19allocatorImE8allocateB8ne180100Em, symObjAddr: 0x1E0E4, symBinAddr: 0x1000208FC, symSize: 0x58 }
  - { offset: 0x4E2D3, size: 0x8, addend: 0x0, symName: __ZNSt3__117__compressed_pairImNS_9allocatorImEEE6secondB8ne180100Ev, symObjAddr: 0x1E13C, symBinAddr: 0x100020954, symSize: 0x24 }
  - { offset: 0x4E2F9, size: 0x8, addend: 0x0, symName: __ZNSt3__122__compressed_pair_elemINS_9allocatorImEELi1ELb1EE5__getB8ne180100Ev, symObjAddr: 0x1E160, symBinAddr: 0x100020978, symSize: 0x14 }
  - { offset: 0x4E31F, size: 0x8, addend: 0x0, symName: __ZNSt3__117__compressed_pairImNS_9allocatorImEEE5firstB8ne180100Ev, symObjAddr: 0x1E174, symBinAddr: 0x10002098C, symSize: 0x24 }
  - { offset: 0x4E345, size: 0x8, addend: 0x0, symName: __ZNSt3__114__bit_iteratorINS_6vectorIbNS_9allocatorIbEEEELb0ELm0EEC1B8ne180100ERKS5_, symObjAddr: 0x1E220, symBinAddr: 0x100020A38, symSize: 0x34 }
  - { offset: 0x4E37E, size: 0x8, addend: 0x0, symName: __ZNSt3__16vectorIbNS_9allocatorIbEEE11__make_iterB8ne180100Em, symObjAddr: 0x1E254, symBinAddr: 0x100020A6C, symSize: 0x64 }
  - { offset: 0x4E3DB, size: 0x8, addend: 0x0, symName: __ZNKSt3__111__copy_loopINS_17_ClassicAlgPolicyEEclB8ne180100INS_14__bit_iteratorINS_6vectorIbNS_9allocatorIbEEEELb0ELm0EEES9_S9_EENS_4pairIT_T1_EESB_T0_SC_, symObjAddr: 0x1E528, symBinAddr: 0x100020D40, symSize: 0xB8 }
  - { offset: 0x4E449, size: 0x8, addend: 0x0, symName: __ZNKSt3__114__bit_iteratorINS_6vectorIbNS_9allocatorIbEEEELb0ELm0EEdeB8ne180100Ev, symObjAddr: 0x1E778, symBinAddr: 0x100020F90, symSize: 0x44 }
  - { offset: 0x4E46F, size: 0x8, addend: 0x0, symName: __ZNSt3__115__bit_referenceINS_6vectorIbNS_9allocatorIbEEEELb1EEaSB8ne180100ERKS5_, symObjAddr: 0x1E7BC, symBinAddr: 0x100020FD4, symSize: 0x40 }
  - { offset: 0x4E4A3, size: 0x8, addend: 0x0, symName: __ZNSt3__114__bit_iteratorINS_6vectorIbNS_9allocatorIbEEEELb0ELm0EEppB8ne180100Ev, symObjAddr: 0x1E7FC, symBinAddr: 0x100021014, symSize: 0x5C }
  - { offset: 0x4E4C9, size: 0x8, addend: 0x0, symName: __ZNSt3__115__bit_referenceINS_6vectorIbNS_9allocatorIbEEEELb1EEC1B8ne180100EPmm, symObjAddr: 0x1E8BC, symBinAddr: 0x1000210D4, symSize: 0x3C }
  - { offset: 0x4E50F, size: 0x8, addend: 0x0, symName: __ZNSt3__115__bit_referenceINS_6vectorIbNS_9allocatorIbEEEELb1EEC2B8ne180100EPmm, symObjAddr: 0x1E8F8, symBinAddr: 0x100021110, symSize: 0x2C }
  - { offset: 0x4E555, size: 0x8, addend: 0x0, symName: __ZNKSt3__115__bit_referenceINS_6vectorIbNS_9allocatorIbEEEELb1EEcvbB8ne180100Ev, symObjAddr: 0x1E924, symBinAddr: 0x10002113C, symSize: 0x2C }
  - { offset: 0x4E57B, size: 0x8, addend: 0x0, symName: __ZNSt3__118__unwrap_iter_implINS_14__bit_iteratorINS_6vectorIbNS_9allocatorIbEEEELb0ELm0EEELb0EE8__unwrapB8ne180100ES6_, symObjAddr: 0x1E950, symBinAddr: 0x100021168, symSize: 0x38 }
  - { offset: 0x4E5A5, size: 0x8, addend: 0x0, symName: __ZNSt3__14pairINS_14__bit_iteratorINS_6vectorIbNS_9allocatorIbEEEELb0ELm0EEES6_EC1B8ne180100IS6_S6_Li0EEEOT_OT0_, symObjAddr: 0x1E988, symBinAddr: 0x1000211A0, symSize: 0x3C }
  - { offset: 0x4E603, size: 0x8, addend: 0x0, symName: __ZNSt3__14pairINS_14__bit_iteratorINS_6vectorIbNS_9allocatorIbEEEELb0ELm0EEES6_EC2B8ne180100IS6_S6_Li0EEEOT_OT0_, symObjAddr: 0x1E9C4, symBinAddr: 0x1000211DC, symSize: 0x48 }
  - { offset: 0x4E661, size: 0x8, addend: 0x0, symName: __ZNSt3__118__unwrap_iter_implINS_14__bit_iteratorINS_6vectorIbNS_9allocatorIbEEEELb0ELm0EEELb0EE8__rewrapB8ne180100ES6_S6_, symObjAddr: 0x1EA0C, symBinAddr: 0x100021224, symSize: 0x3C }
  - { offset: 0x4E691, size: 0x8, addend: 0x0, symName: __ZNSt3__114__bit_iteratorINS_6vectorIbNS_9allocatorIbEEEELb0ELm0EEC2B8ne180100ERKS5_, symObjAddr: 0x1EA48, symBinAddr: 0x100021260, symSize: 0x30 }
  - { offset: 0x4E6CA, size: 0x8, addend: 0x0, symName: __ZNSt3__114__bit_iteratorINS_6vectorIbNS_9allocatorIbEEEELb0ELm0EEC1B8ne180100EPmj, symObjAddr: 0x1EA78, symBinAddr: 0x100021290, symSize: 0x3C }
  - { offset: 0x4E712, size: 0x8, addend: 0x0, symName: __ZNSt3__114__bit_iteratorINS_6vectorIbNS_9allocatorIbEEEELb0ELm0EEC2B8ne180100EPmj, symObjAddr: 0x1EAB4, symBinAddr: 0x1000212CC, symSize: 0x2C }
  - { offset: 0x4E75A, size: 0x8, addend: 0x0, symName: __ZNSt3__16vectorIbNS_9allocatorIbEEE10__align_itB8ne180100Em, symObjAddr: 0x1EB6C, symBinAddr: 0x100021384, symSize: 0x1C }
  - { offset: 0x4E77E, size: 0x8, addend: 0x0, symName: __ZNSt3__16vectorIbNS_9allocatorIbEEE10__make_refB8ne180100Em, symObjAddr: 0x1EB88, symBinAddr: 0x1000213A0, symSize: 0x60 }
  - { offset: 0x4E7B3, size: 0x8, addend: 0x0, symName: __ZNSt3__16vectorIbNS_9allocatorIbEEED2B8ne180100Ev, symObjAddr: 0x1EBE8, symBinAddr: 0x100021400, symSize: 0x44 }
  - { offset: 0x4E7DD, size: 0x8, addend: 0x0, symName: __ZNSt3__16vectorIbNS_9allocatorIbEEE16__destroy_vectorC1B8ne180100ERS3_, symObjAddr: 0x1EC2C, symBinAddr: 0x100021444, symSize: 0x34 }
  - { offset: 0x4E816, size: 0x8, addend: 0x0, symName: __ZNSt3__16vectorIbNS_9allocatorIbEEE16__destroy_vectorclB8ne180100Ev, symObjAddr: 0x1EC60, symBinAddr: 0x100021478, symSize: 0x7C }
  - { offset: 0x4E83C, size: 0x8, addend: 0x0, symName: __ZNSt3__16vectorIbNS_9allocatorIbEEE16__destroy_vectorC2B8ne180100ERS3_, symObjAddr: 0x1ECDC, symBinAddr: 0x1000214F4, symSize: 0x20 }
  - { offset: 0x4E875, size: 0x8, addend: 0x0, symName: __ZNSt3__116allocator_traitsINS_9allocatorImEEE10deallocateB8ne180100ERS2_Pmm, symObjAddr: 0x1ECFC, symBinAddr: 0x100021514, symSize: 0x34 }
  - { offset: 0x4E8B7, size: 0x8, addend: 0x0, symName: __ZNSt3__19allocatorImE10deallocateB8ne180100EPmm, symObjAddr: 0x1ED30, symBinAddr: 0x100021548, symSize: 0x40 }
  - { offset: 0x4E8F9, size: 0x8, addend: 0x0, symName: __ZNSt3__16vectorIPN8nlohmann16json_abi_v3_11_210basic_jsonINS_3mapES0_NS_12basic_stringIcNS_11char_traitsIcEENS_9allocatorIcEEEEbxydS8_NS2_14adl_serializerENS0_IhNS8_IhEEEEEENS8_ISF_EEED2B8ne180100Ev, symObjAddr: 0x1ED70, symBinAddr: 0x100021588, symSize: 0x44 }
  - { offset: 0x4E923, size: 0x8, addend: 0x0, symName: __ZNSt3__16vectorIPN8nlohmann16json_abi_v3_11_210basic_jsonINS_3mapES0_NS_12basic_stringIcNS_11char_traitsIcEENS_9allocatorIcEEEEbxydS8_NS2_14adl_serializerENS0_IhNS8_IhEEEEEENS8_ISF_EEE16__destroy_vectorC1B8ne180100ERSH_, symObjAddr: 0x1EDB4, symBinAddr: 0x1000215CC, symSize: 0x34 }
  - { offset: 0x4E95C, size: 0x8, addend: 0x0, symName: __ZNSt3__16vectorIPN8nlohmann16json_abi_v3_11_210basic_jsonINS_3mapES0_NS_12basic_stringIcNS_11char_traitsIcEENS_9allocatorIcEEEEbxydS8_NS2_14adl_serializerENS0_IhNS8_IhEEEEEENS8_ISF_EEE16__destroy_vectorclB8ne180100Ev, symObjAddr: 0x1EDE8, symBinAddr: 0x100021600, symSize: 0x90 }
  - { offset: 0x4E982, size: 0x8, addend: 0x0, symName: __ZNSt3__16vectorIPN8nlohmann16json_abi_v3_11_210basic_jsonINS_3mapES0_NS_12basic_stringIcNS_11char_traitsIcEENS_9allocatorIcEEEEbxydS8_NS2_14adl_serializerENS0_IhNS8_IhEEEEEENS8_ISF_EEE16__destroy_vectorC2B8ne180100ERSH_, symObjAddr: 0x1EE78, symBinAddr: 0x100021690, symSize: 0x20 }
  - { offset: 0x4E9BB, size: 0x8, addend: 0x0, symName: __ZNSt3__16vectorIPN8nlohmann16json_abi_v3_11_210basic_jsonINS_3mapES0_NS_12basic_stringIcNS_11char_traitsIcEENS_9allocatorIcEEEEbxydS8_NS2_14adl_serializerENS0_IhNS8_IhEEEEEENS8_ISF_EEE7__clearB8ne180100Ev, symObjAddr: 0x1EE98, symBinAddr: 0x1000216B0, symSize: 0x28 }
  - { offset: 0x4E9E1, size: 0x8, addend: 0x0, symName: __ZNKSt3__16vectorIPN8nlohmann16json_abi_v3_11_210basic_jsonINS_3mapES0_NS_12basic_stringIcNS_11char_traitsIcEENS_9allocatorIcEEEEbxydS8_NS2_14adl_serializerENS0_IhNS8_IhEEEEEENS8_ISF_EEE17__annotate_deleteB8ne180100Ev, symObjAddr: 0x1EEC0, symBinAddr: 0x1000216D8, symSize: 0x10 }
  - { offset: 0x4EA07, size: 0x8, addend: 0x0, symName: __ZNSt3__116allocator_traitsINS_9allocatorIPN8nlohmann16json_abi_v3_11_210basic_jsonINS_3mapENS_6vectorENS_12basic_stringIcNS_11char_traitsIcEENS1_IcEEEEbxydS1_NS3_14adl_serializerENS6_IhNS1_IhEEEEEEEEE10deallocateB8ne180100ERSH_PSG_m, symObjAddr: 0x1EED0, symBinAddr: 0x1000216E8, symSize: 0x34 }
  - { offset: 0x4EA49, size: 0x8, addend: 0x0, symName: __ZNSt3__16vectorIPN8nlohmann16json_abi_v3_11_210basic_jsonINS_3mapES0_NS_12basic_stringIcNS_11char_traitsIcEENS_9allocatorIcEEEEbxydS8_NS2_14adl_serializerENS0_IhNS8_IhEEEEEENS8_ISF_EEE7__allocB8ne180100Ev, symObjAddr: 0x1EF04, symBinAddr: 0x10002171C, symSize: 0x28 }
  - { offset: 0x4EA6F, size: 0x8, addend: 0x0, symName: __ZNKSt3__16vectorIPN8nlohmann16json_abi_v3_11_210basic_jsonINS_3mapES0_NS_12basic_stringIcNS_11char_traitsIcEENS_9allocatorIcEEEEbxydS8_NS2_14adl_serializerENS0_IhNS8_IhEEEEEENS8_ISF_EEE8capacityB8ne180100Ev, symObjAddr: 0x1EF2C, symBinAddr: 0x100021744, symSize: 0x40 }
  - { offset: 0x4EA95, size: 0x8, addend: 0x0, symName: __ZNSt3__16vectorIPN8nlohmann16json_abi_v3_11_210basic_jsonINS_3mapES0_NS_12basic_stringIcNS_11char_traitsIcEENS_9allocatorIcEEEEbxydS8_NS2_14adl_serializerENS0_IhNS8_IhEEEEEENS8_ISF_EEE22__base_destruct_at_endB8ne180100EPSF_, symObjAddr: 0x1EF6C, symBinAddr: 0x100021784, symSize: 0x8C }
  - { offset: 0x4EAD9, size: 0x8, addend: 0x0, symName: __ZNSt3__116allocator_traitsINS_9allocatorIPN8nlohmann16json_abi_v3_11_210basic_jsonINS_3mapENS_6vectorENS_12basic_stringIcNS_11char_traitsIcEENS1_IcEEEEbxydS1_NS3_14adl_serializerENS6_IhNS1_IhEEEEEEEEE7destroyB8ne180100ISG_vEEvRSH_PT_, symObjAddr: 0x1EFF8, symBinAddr: 0x100021810, symSize: 0x2C }
  - { offset: 0x4EB16, size: 0x8, addend: 0x0, symName: __ZNSt3__19allocatorIPN8nlohmann16json_abi_v3_11_210basic_jsonINS_3mapENS_6vectorENS_12basic_stringIcNS_11char_traitsIcEENS0_IcEEEEbxydS0_NS2_14adl_serializerENS5_IhNS0_IhEEEEEEE7destroyB8ne180100EPSF_, symObjAddr: 0x1F038, symBinAddr: 0x100021850, symSize: 0x14 }
  - { offset: 0x4EB4A, size: 0x8, addend: 0x0, symName: __ZNSt3__19allocatorIPN8nlohmann16json_abi_v3_11_210basic_jsonINS_3mapENS_6vectorENS_12basic_stringIcNS_11char_traitsIcEENS0_IcEEEEbxydS0_NS2_14adl_serializerENS5_IhNS0_IhEEEEEEE10deallocateB8ne180100EPSF_m, symObjAddr: 0x1F04C, symBinAddr: 0x100021864, symSize: 0x40 }
  - { offset: 0x4EB8C, size: 0x8, addend: 0x0, symName: __ZNSt3__117__compressed_pairIPPN8nlohmann16json_abi_v3_11_210basic_jsonINS_3mapENS_6vectorENS_12basic_stringIcNS_11char_traitsIcEENS_9allocatorIcEEEEbxydS9_NS2_14adl_serializerENS5_IhNS9_IhEEEEEENS9_ISG_EEE6secondB8ne180100Ev, symObjAddr: 0x1F08C, symBinAddr: 0x1000218A4, symSize: 0x24 }
  - { offset: 0x4EBB2, size: 0x8, addend: 0x0, symName: __ZNSt3__122__compressed_pair_elemINS_9allocatorIPN8nlohmann16json_abi_v3_11_210basic_jsonINS_3mapENS_6vectorENS_12basic_stringIcNS_11char_traitsIcEENS1_IcEEEEbxydS1_NS3_14adl_serializerENS6_IhNS1_IhEEEEEEEELi1ELb1EE5__getB8ne180100Ev, symObjAddr: 0x1F0B0, symBinAddr: 0x1000218C8, symSize: 0x14 }
  - { offset: 0x4EBD8, size: 0x8, addend: 0x0, symName: __ZNKSt3__16vectorIPN8nlohmann16json_abi_v3_11_210basic_jsonINS_3mapES0_NS_12basic_stringIcNS_11char_traitsIcEENS_9allocatorIcEEEEbxydS8_NS2_14adl_serializerENS0_IhNS8_IhEEEEEENS8_ISF_EEE9__end_capB8ne180100Ev, symObjAddr: 0x1F0C4, symBinAddr: 0x1000218DC, symSize: 0x28 }
  - { offset: 0x4EBFE, size: 0x8, addend: 0x0, symName: __ZNKSt3__117__compressed_pairIPPN8nlohmann16json_abi_v3_11_210basic_jsonINS_3mapENS_6vectorENS_12basic_stringIcNS_11char_traitsIcEENS_9allocatorIcEEEEbxydS9_NS2_14adl_serializerENS5_IhNS9_IhEEEEEENS9_ISG_EEE5firstB8ne180100Ev, symObjAddr: 0x1F0EC, symBinAddr: 0x100021904, symSize: 0x24 }
  - { offset: 0x4EC24, size: 0x8, addend: 0x0, symName: __ZNKSt3__122__compressed_pair_elemIPPN8nlohmann16json_abi_v3_11_210basic_jsonINS_3mapENS_6vectorENS_12basic_stringIcNS_11char_traitsIcEENS_9allocatorIcEEEEbxydS9_NS2_14adl_serializerENS5_IhNS9_IhEEEEEELi0ELb0EE5__getB8ne180100Ev, symObjAddr: 0x1F110, symBinAddr: 0x100021928, symSize: 0x14 }
  - { offset: 0x4EC4A, size: 0x8, addend: 0x0, symName: __ZN8nlohmann16json_abi_v3_11_26detail28json_sax_dom_callback_parserINS0_10basic_jsonINSt3__13mapENS4_6vectorENS4_12basic_stringIcNS4_11char_traitsIcEENS4_9allocatorIcEEEEbxydSA_NS0_14adl_serializerENS6_IhNSA_IhEEEEEEE12start_objectEm, symObjAddr: 0x1F124, symBinAddr: 0x10002193C, symSize: 0x22C }
  - { offset: 0x4EC9D, size: 0x8, addend: 0x0, symName: __ZN8nlohmann16json_abi_v3_11_26detail28json_sax_dom_callback_parserINS0_10basic_jsonINSt3__13mapENS4_6vectorENS4_12basic_stringIcNS4_11char_traitsIcEENS4_9allocatorIcEEEEbxydSA_NS0_14adl_serializerENS6_IhNSA_IhEEEEEEE10end_objectEv, symObjAddr: 0x1F350, symBinAddr: 0x100021B68, symSize: 0x278 }
  - { offset: 0x4ECE1, size: 0x8, addend: 0x0, symName: __ZN8nlohmann16json_abi_v3_11_26detail28json_sax_dom_callback_parserINS0_10basic_jsonINSt3__13mapENS4_6vectorENS4_12basic_stringIcNS4_11char_traitsIcEENS4_9allocatorIcEEEEbxydSA_NS0_14adl_serializerENS6_IhNSA_IhEEEEEEE3keyERSC_, symObjAddr: 0x1F5C8, symBinAddr: 0x100021DE0, symSize: 0x15C }
  - { offset: 0x4ED34, size: 0x8, addend: 0x0, symName: __ZN8nlohmann16json_abi_v3_11_26detail5lexerINS0_10basic_jsonINSt3__13mapENS4_6vectorENS4_12basic_stringIcNS4_11char_traitsIcEENS4_9allocatorIcEEEEbxydSA_NS0_14adl_serializerENS6_IhNSA_IhEEEEEENS1_20input_stream_adapterEE10get_stringEv, symObjAddr: 0x1F724, symBinAddr: 0x100021F3C, symSize: 0x18 }
  - { offset: 0x4ED5A, size: 0x8, addend: 0x0, symName: __ZN8nlohmann16json_abi_v3_11_26detail28json_sax_dom_callback_parserINS0_10basic_jsonINSt3__13mapENS4_6vectorENS4_12basic_stringIcNS4_11char_traitsIcEENS4_9allocatorIcEEEEbxydSA_NS0_14adl_serializerENS6_IhNSA_IhEEEEEEE11start_arrayEm, symObjAddr: 0x1F73C, symBinAddr: 0x100021F54, symSize: 0x22C }
  - { offset: 0x4EDAD, size: 0x8, addend: 0x0, symName: __ZN8nlohmann16json_abi_v3_11_26detail28json_sax_dom_callback_parserINS0_10basic_jsonINSt3__13mapENS4_6vectorENS4_12basic_stringIcNS4_11char_traitsIcEENS4_9allocatorIcEEEEbxydSA_NS0_14adl_serializerENS6_IhNSA_IhEEEEEEE9end_arrayEv, symObjAddr: 0x1F968, symBinAddr: 0x100022180, symSize: 0x1EC }
  - { offset: 0x4EDE2, size: 0x8, addend: 0x0, symName: __ZNK8nlohmann16json_abi_v3_11_26detail5lexerINS0_10basic_jsonINSt3__13mapENS4_6vectorENS4_12basic_stringIcNS4_11char_traitsIcEENS4_9allocatorIcEEEEbxydSA_NS0_14adl_serializerENS6_IhNSA_IhEEEEEENS1_20input_stream_adapterEE16get_number_floatEv, symObjAddr: 0x1FB54, symBinAddr: 0x10002236C, symSize: 0x18 }
  - { offset: 0x4EE19, size: 0x8, addend: 0x0, symName: __ZN8nlohmann16json_abi_v3_11_26detail28json_sax_dom_callback_parserINS0_10basic_jsonINSt3__13mapENS4_6vectorENS4_12basic_stringIcNS4_11char_traitsIcEENS4_9allocatorIcEEEEbxydSA_NS0_14adl_serializerENS6_IhNSA_IhEEEEEEE11parse_errorINS1_12out_of_rangeEEEbmRKSC_RKT_, symObjAddr: 0x1FB90, symBinAddr: 0x1000223A8, symSize: 0x74 }
  - { offset: 0x4EE6F, size: 0x8, addend: 0x0, symName: __ZN8nlohmann16json_abi_v3_11_26detail12out_of_range6createIDnLi0EEES2_iRKNSt3__112basic_stringIcNS4_11char_traitsIcEENS4_9allocatorIcEEEET_, symObjAddr: 0x1FC04, symBinAddr: 0x10002241C, symSize: 0x130 }
  - { offset: 0x4EECF, size: 0x8, addend: 0x0, symName: __ZN8nlohmann16json_abi_v3_11_26detail12out_of_rangeD1Ev, symObjAddr: 0x1FE0C, symBinAddr: 0x100022624, symSize: 0x2C }
  - { offset: 0x4EEFC, size: 0x8, addend: 0x0, symName: __ZN8nlohmann16json_abi_v3_11_26detail28json_sax_dom_callback_parserINS0_10basic_jsonINSt3__13mapENS4_6vectorENS4_12basic_stringIcNS4_11char_traitsIcEENS4_9allocatorIcEEEEbxydSA_NS0_14adl_serializerENS6_IhNSA_IhEEEEEEE12number_floatEdRKSC_, symObjAddr: 0x1FE38, symBinAddr: 0x100022650, symSize: 0x54 }
  - { offset: 0x4EF3D, size: 0x8, addend: 0x0, symName: __ZN8nlohmann16json_abi_v3_11_26detail28json_sax_dom_callback_parserINS0_10basic_jsonINSt3__13mapENS4_6vectorENS4_12basic_stringIcNS4_11char_traitsIcEENS4_9allocatorIcEEEEbxydSA_NS0_14adl_serializerENS6_IhNSA_IhEEEEEEE7booleanEb, symObjAddr: 0x1FE8C, symBinAddr: 0x1000226A4, symSize: 0x50 }
  - { offset: 0x4EF72, size: 0x8, addend: 0x0, symName: __ZN8nlohmann16json_abi_v3_11_26detail28json_sax_dom_callback_parserINS0_10basic_jsonINSt3__13mapENS4_6vectorENS4_12basic_stringIcNS4_11char_traitsIcEENS4_9allocatorIcEEEEbxydSA_NS0_14adl_serializerENS6_IhNSA_IhEEEEEEE4nullEv, symObjAddr: 0x1FEDC, symBinAddr: 0x1000226F4, symSize: 0x4C }
  - { offset: 0x4EF98, size: 0x8, addend: 0x0, symName: __ZN8nlohmann16json_abi_v3_11_26detail28json_sax_dom_callback_parserINS0_10basic_jsonINSt3__13mapENS4_6vectorENS4_12basic_stringIcNS4_11char_traitsIcEENS4_9allocatorIcEEEEbxydSA_NS0_14adl_serializerENS6_IhNSA_IhEEEEEEE14number_integerEx, symObjAddr: 0x1FF28, symBinAddr: 0x100022740, symSize: 0x50 }
  - { offset: 0x4EFCD, size: 0x8, addend: 0x0, symName: __ZNK8nlohmann16json_abi_v3_11_26detail5lexerINS0_10basic_jsonINSt3__13mapENS4_6vectorENS4_12basic_stringIcNS4_11char_traitsIcEENS4_9allocatorIcEEEEbxydSA_NS0_14adl_serializerENS6_IhNSA_IhEEEEEENS1_20input_stream_adapterEE18get_number_integerEv, symObjAddr: 0x1FF78, symBinAddr: 0x100022790, symSize: 0x18 }
  - { offset: 0x4EFF3, size: 0x8, addend: 0x0, symName: __ZN8nlohmann16json_abi_v3_11_26detail28json_sax_dom_callback_parserINS0_10basic_jsonINSt3__13mapENS4_6vectorENS4_12basic_stringIcNS4_11char_traitsIcEENS4_9allocatorIcEEEEbxydSA_NS0_14adl_serializerENS6_IhNSA_IhEEEEEEE6stringERSC_, symObjAddr: 0x1FF90, symBinAddr: 0x1000227A8, symSize: 0x4C }
  - { offset: 0x4F028, size: 0x8, addend: 0x0, symName: __ZN8nlohmann16json_abi_v3_11_26detail28json_sax_dom_callback_parserINS0_10basic_jsonINSt3__13mapENS4_6vectorENS4_12basic_stringIcNS4_11char_traitsIcEENS4_9allocatorIcEEEEbxydSA_NS0_14adl_serializerENS6_IhNSA_IhEEEEEEE15number_unsignedEy, symObjAddr: 0x1FFDC, symBinAddr: 0x1000227F4, symSize: 0x50 }
  - { offset: 0x4F05D, size: 0x8, addend: 0x0, symName: __ZNK8nlohmann16json_abi_v3_11_26detail5lexerINS0_10basic_jsonINSt3__13mapENS4_6vectorENS4_12basic_stringIcNS4_11char_traitsIcEENS4_9allocatorIcEEEEbxydSA_NS0_14adl_serializerENS6_IhNSA_IhEEEEEENS1_20input_stream_adapterEE19get_number_unsignedEv, symObjAddr: 0x2002C, symBinAddr: 0x100022844, symSize: 0x18 }
  - { offset: 0x4F083, size: 0x8, addend: 0x0, symName: __ZNKSt3__16vectorIbNS_9allocatorIbEEE5emptyB8ne180100Ev, symObjAddr: 0x20044, symBinAddr: 0x10002285C, symSize: 0x24 }
  - { offset: 0x4F0A9, size: 0x8, addend: 0x0, symName: __ZNSt3__16vectorIbNS_9allocatorIbEEE8pop_backB8ne180100Ev, symObjAddr: 0x20068, symBinAddr: 0x100022880, symSize: 0x20 }
  - { offset: 0x4F0CF, size: 0x8, addend: 0x0, symName: __ZNKSt3__18functionIFbiN8nlohmann16json_abi_v3_11_26detail13parse_event_tERNS2_10basic_jsonINS_3mapENS_6vectorENS_12basic_stringIcNS_11char_traitsIcEENS_9allocatorIcEEEEbxydSB_NS2_14adl_serializerENS7_IhNSB_IhEEEEEEEEclEiS4_SI_, symObjAddr: 0x20088, symBinAddr: 0x1000228A0, symSize: 0x48 }
  - { offset: 0x4F124, size: 0x8, addend: 0x0, symName: __ZNKSt3__16vectorIPN8nlohmann16json_abi_v3_11_210basic_jsonINS_3mapES0_NS_12basic_stringIcNS_11char_traitsIcEENS_9allocatorIcEEEEbxydS8_NS2_14adl_serializerENS0_IhNS8_IhEEEEEENS8_ISF_EEE4sizeB8ne180100Ev, symObjAddr: 0x200D0, symBinAddr: 0x1000228E8, symSize: 0x28 }
  - { offset: 0x4F16D, size: 0x8, addend: 0x0, symName: __ZN8nlohmann16json_abi_v3_11_26detail28json_sax_dom_callback_parserINS0_10basic_jsonINSt3__13mapENS4_6vectorENS4_12basic_stringIcNS4_11char_traitsIcEENS4_9allocatorIcEEEEbxydSA_NS0_14adl_serializerENS6_IhNSA_IhEEEEEEE12handle_valueINS1_7value_tEEENS4_4pairIbPSG_EEOT_b, symObjAddr: 0x200F8, symBinAddr: 0x100022910, symSize: 0x4E0 }
  - { offset: 0x4F1EA, size: 0x8, addend: 0x0, symName: __ZNSt3__16vectorIPN8nlohmann16json_abi_v3_11_210basic_jsonINS_3mapES0_NS_12basic_stringIcNS_11char_traitsIcEENS_9allocatorIcEEEEbxydS8_NS2_14adl_serializerENS0_IhNS8_IhEEEEEENS8_ISF_EEE9push_backB8ne180100ERKSF_, symObjAddr: 0x205D8, symBinAddr: 0x100022DF0, symSize: 0x90 }
  - { offset: 0x4F230, size: 0x8, addend: 0x0, symName: __ZNSt3__16vectorIPN8nlohmann16json_abi_v3_11_210basic_jsonINS_3mapES0_NS_12basic_stringIcNS_11char_traitsIcEENS_9allocatorIcEEEEbxydS8_NS2_14adl_serializerENS0_IhNS8_IhEEEEEENS8_ISF_EEE4backB8ne180100Ev, symObjAddr: 0x20668, symBinAddr: 0x100022E80, symSize: 0x1C }
  - { offset: 0x4F256, size: 0x8, addend: 0x0, symName: __ZNK8nlohmann16json_abi_v3_11_210basic_jsonINSt3__13mapENS2_6vectorENS2_12basic_stringIcNS2_11char_traitsIcEENS2_9allocatorIcEEEEbxydS8_NS0_14adl_serializerENS4_IhNS8_IhEEEEE8max_sizeEv, symObjAddr: 0x20684, symBinAddr: 0x100022E9C, symSize: 0xA0 }
  - { offset: 0x4F27C, size: 0x8, addend: 0x0, symName: __ZN8nlohmann16json_abi_v3_11_26detail12out_of_range6createIPNS0_10basic_jsonINSt3__13mapENS5_6vectorENS5_12basic_stringIcNS5_11char_traitsIcEENS5_9allocatorIcEEEEbxydSB_NS0_14adl_serializerENS7_IhNSB_IhEEEEEELi0EEES2_iRKSD_T_, symObjAddr: 0x2074C, symBinAddr: 0x100022F64, symSize: 0x130 }
  - { offset: 0x4F2DC, size: 0x8, addend: 0x0, symName: __ZNKSt3__110__function12__value_funcIFbiN8nlohmann16json_abi_v3_11_26detail13parse_event_tERNS3_10basic_jsonINS_3mapENS_6vectorENS_12basic_stringIcNS_11char_traitsIcEENS_9allocatorIcEEEEbxydSC_NS3_14adl_serializerENS8_IhNSC_IhEEEEEEEEclB8ne180100EOiOS5_SJ_, symObjAddr: 0x20948, symBinAddr: 0x100023160, symSize: 0x6C }
  - { offset: 0x4F346, size: 0x8, addend: 0x0, symName: __ZNSt3__117bad_function_callC1B8ne180100Ev, symObjAddr: 0x209EC, symBinAddr: 0x100023204, symSize: 0x2C }
  - { offset: 0x4F370, size: 0x8, addend: 0x0, symName: __ZNSt3__117bad_function_callD1Ev, symObjAddr: 0x20A18, symBinAddr: 0x100023230, symSize: 0x2C }
  - { offset: 0x4F39A, size: 0x8, addend: 0x0, symName: __ZNSt3__117bad_function_callC2B8ne180100Ev, symObjAddr: 0x20A44, symBinAddr: 0x10002325C, symSize: 0x3C }
  - { offset: 0x4F3C4, size: 0x8, addend: 0x0, symName: __ZNSt3__117bad_function_callD0Ev, symObjAddr: 0x20A80, symBinAddr: 0x100023298, symSize: 0x30 }
  - { offset: 0x4F3EE, size: 0x8, addend: 0x0, symName: __ZNSt3__117bad_function_callD2Ev, symObjAddr: 0x20AB0, symBinAddr: 0x1000232C8, symSize: 0x2C }
  - { offset: 0x4F41E, size: 0x8, addend: 0x0, symName: __ZNSt3__14pairIbPN8nlohmann16json_abi_v3_11_210basic_jsonINS_3mapENS_6vectorENS_12basic_stringIcNS_11char_traitsIcEENS_9allocatorIcEEEEbxydS9_NS2_14adl_serializerENS5_IhNS9_IhEEEEEEEC1B8ne180100IbDnLi0EEEOT_OT0_, symObjAddr: 0x20ADC, symBinAddr: 0x1000232F4, symSize: 0x3C }
  - { offset: 0x4F47C, size: 0x8, addend: 0x0, symName: __ZNKSt3__16vectorIPN8nlohmann16json_abi_v3_11_210basic_jsonINS_3mapES0_NS_12basic_stringIcNS_11char_traitsIcEENS_9allocatorIcEEEEbxydS8_NS2_14adl_serializerENS0_IhNS8_IhEEEEEENS8_ISF_EEE5emptyB8ne180100Ev, symObjAddr: 0x20B18, symBinAddr: 0x100023330, symSize: 0x28 }
  - { offset: 0x4F4A2, size: 0x8, addend: 0x0, symName: __ZNSt3__14pairIbPN8nlohmann16json_abi_v3_11_210basic_jsonINS_3mapENS_6vectorENS_12basic_stringIcNS_11char_traitsIcEENS_9allocatorIcEEEEbxydS9_NS2_14adl_serializerENS5_IhNS9_IhEEEEEEEC1B8ne180100IbSG_Li0EEEOT_OT0_, symObjAddr: 0x20B40, symBinAddr: 0x100023358, symSize: 0x3C }
  - { offset: 0x4F500, size: 0x8, addend: 0x0, symName: __ZNSt3__16vectorIN8nlohmann16json_abi_v3_11_210basic_jsonINS_3mapES0_NS_12basic_stringIcNS_11char_traitsIcEENS_9allocatorIcEEEEbxydS8_NS2_14adl_serializerENS0_IhNS8_IhEEEEEENS8_ISE_EEE12emplace_backIJSE_EEERSE_DpOT_, symObjAddr: 0x20B7C, symBinAddr: 0x100023394, symSize: 0x98 }
  - { offset: 0x4F551, size: 0x8, addend: 0x0, symName: __ZNSt3__14pairIbPN8nlohmann16json_abi_v3_11_210basic_jsonINS_3mapENS_6vectorENS_12basic_stringIcNS_11char_traitsIcEENS_9allocatorIcEEEEbxydS9_NS2_14adl_serializerENS5_IhNS9_IhEEEEEEEC1B8ne180100IbRSG_Li0EEEOT_OT0_, symObjAddr: 0x20C14, symBinAddr: 0x10002342C, symSize: 0x3C }
  - { offset: 0x4F5AF, size: 0x8, addend: 0x0, symName: __ZNSt3__14pairIbPN8nlohmann16json_abi_v3_11_210basic_jsonINS_3mapENS_6vectorENS_12basic_stringIcNS_11char_traitsIcEENS_9allocatorIcEEEEbxydS9_NS2_14adl_serializerENS5_IhNS9_IhEEEEEEEC2B8ne180100IbDnLi0EEEOT_OT0_, symObjAddr: 0x20C50, symBinAddr: 0x100023468, symSize: 0x30 }
  - { offset: 0x4F60D, size: 0x8, addend: 0x0, symName: __ZNSt3__14pairIbPN8nlohmann16json_abi_v3_11_210basic_jsonINS_3mapENS_6vectorENS_12basic_stringIcNS_11char_traitsIcEENS_9allocatorIcEEEEbxydS9_NS2_14adl_serializerENS5_IhNS9_IhEEEEEEEC2B8ne180100IbSG_Li0EEEOT_OT0_, symObjAddr: 0x20C80, symBinAddr: 0x100023498, symSize: 0x38 }
  - { offset: 0x4F66B, size: 0x8, addend: 0x0, symName: __ZNSt3__16vectorIN8nlohmann16json_abi_v3_11_210basic_jsonINS_3mapES0_NS_12basic_stringIcNS_11char_traitsIcEENS_9allocatorIcEEEEbxydS8_NS2_14adl_serializerENS0_IhNS8_IhEEEEEENS8_ISE_EEE24__emplace_back_slow_pathIJSE_EEEPSE_DpOT_, symObjAddr: 0x20CB8, symBinAddr: 0x1000234D0, symSize: 0xE8 }
  - { offset: 0x4F6CB, size: 0x8, addend: 0x0, symName: __ZNSt3__14pairIbPN8nlohmann16json_abi_v3_11_210basic_jsonINS_3mapENS_6vectorENS_12basic_stringIcNS_11char_traitsIcEENS_9allocatorIcEEEEbxydS9_NS2_14adl_serializerENS5_IhNS9_IhEEEEEEEC2B8ne180100IbRSG_Li0EEEOT_OT0_, symObjAddr: 0x20DA0, symBinAddr: 0x1000235B8, symSize: 0x38 }
  - { offset: 0x4F729, size: 0x8, addend: 0x0, symName: __ZNSt3__16vectorIPN8nlohmann16json_abi_v3_11_210basic_jsonINS_3mapES0_NS_12basic_stringIcNS_11char_traitsIcEENS_9allocatorIcEEEEbxydS8_NS2_14adl_serializerENS0_IhNS8_IhEEEEEENS8_ISF_EEE9__end_capB8ne180100Ev, symObjAddr: 0x20DD8, symBinAddr: 0x1000235F0, symSize: 0x28 }
  - { offset: 0x4F74F, size: 0x8, addend: 0x0, symName: __ZNSt3__16vectorIPN8nlohmann16json_abi_v3_11_210basic_jsonINS_3mapES0_NS_12basic_stringIcNS_11char_traitsIcEENS_9allocatorIcEEEEbxydS8_NS2_14adl_serializerENS0_IhNS8_IhEEEEEENS8_ISF_EEE22__construct_one_at_endB8ne180100IJRKSF_EEEvDpOT_, symObjAddr: 0x20E00, symBinAddr: 0x100023618, symSize: 0x90 }
  - { offset: 0x4F79E, size: 0x8, addend: 0x0, symName: __ZNSt3__16vectorIPN8nlohmann16json_abi_v3_11_210basic_jsonINS_3mapES0_NS_12basic_stringIcNS_11char_traitsIcEENS_9allocatorIcEEEEbxydS8_NS2_14adl_serializerENS0_IhNS8_IhEEEEEENS8_ISF_EEE21__push_back_slow_pathIRKSF_EEPSF_OT_, symObjAddr: 0x20E90, symBinAddr: 0x1000236A8, symSize: 0xE8 }
  - { offset: 0x4F7FC, size: 0x8, addend: 0x0, symName: __ZNSt3__117__compressed_pairIPPN8nlohmann16json_abi_v3_11_210basic_jsonINS_3mapENS_6vectorENS_12basic_stringIcNS_11char_traitsIcEENS_9allocatorIcEEEEbxydS9_NS2_14adl_serializerENS5_IhNS9_IhEEEEEENS9_ISG_EEE5firstB8ne180100Ev, symObjAddr: 0x20F78, symBinAddr: 0x100023790, symSize: 0x24 }
  - { offset: 0x4F822, size: 0x8, addend: 0x0, symName: __ZNSt3__122__compressed_pair_elemIPPN8nlohmann16json_abi_v3_11_210basic_jsonINS_3mapENS_6vectorENS_12basic_stringIcNS_11char_traitsIcEENS_9allocatorIcEEEEbxydS9_NS2_14adl_serializerENS5_IhNS9_IhEEEEEELi0ELb0EE5__getB8ne180100Ev, symObjAddr: 0x20F9C, symBinAddr: 0x1000237B4, symSize: 0x14 }
  - { offset: 0x4F864, size: 0x8, addend: 0x0, symName: __ZNSt3__16vectorIPN8nlohmann16json_abi_v3_11_210basic_jsonINS_3mapES0_NS_12basic_stringIcNS_11char_traitsIcEENS_9allocatorIcEEEEbxydS8_NS2_14adl_serializerENS0_IhNS8_IhEEEEEENS8_ISF_EEE21_ConstructTransactionC1B8ne180100ERSH_m, symObjAddr: 0x20FB0, symBinAddr: 0x1000237C8, symSize: 0x3C }
  - { offset: 0x4F8AC, size: 0x8, addend: 0x0, symName: __ZNSt3__116allocator_traitsINS_9allocatorIPN8nlohmann16json_abi_v3_11_210basic_jsonINS_3mapENS_6vectorENS_12basic_stringIcNS_11char_traitsIcEENS1_IcEEEEbxydS1_NS3_14adl_serializerENS6_IhNS1_IhEEEEEEEEE9constructB8ne180100ISG_JRKSG_EvEEvRSH_PT_DpOT0_, symObjAddr: 0x20FEC, symBinAddr: 0x100023804, symSize: 0x34 }
  - { offset: 0x4F903, size: 0x8, addend: 0x0, symName: __ZNSt3__16vectorIPN8nlohmann16json_abi_v3_11_210basic_jsonINS_3mapES0_NS_12basic_stringIcNS_11char_traitsIcEENS_9allocatorIcEEEEbxydS8_NS2_14adl_serializerENS0_IhNS8_IhEEEEEENS8_ISF_EEE21_ConstructTransactionD1B8ne180100Ev, symObjAddr: 0x21020, symBinAddr: 0x100023838, symSize: 0x2C }
  - { offset: 0x4F92D, size: 0x8, addend: 0x0, symName: __ZNSt3__16vectorIPN8nlohmann16json_abi_v3_11_210basic_jsonINS_3mapES0_NS_12basic_stringIcNS_11char_traitsIcEENS_9allocatorIcEEEEbxydS8_NS2_14adl_serializerENS0_IhNS8_IhEEEEEENS8_ISF_EEE21_ConstructTransactionC2B8ne180100ERSH_m, symObjAddr: 0x2104C, symBinAddr: 0x100023864, symSize: 0x44 }
  - { offset: 0x4F975, size: 0x8, addend: 0x0, symName: __ZNSt3__19allocatorIPN8nlohmann16json_abi_v3_11_210basic_jsonINS_3mapENS_6vectorENS_12basic_stringIcNS_11char_traitsIcEENS0_IcEEEEbxydS0_NS2_14adl_serializerENS5_IhNS0_IhEEEEEEE9constructB8ne180100ISF_JRKSF_EEEvPT_DpOT0_, symObjAddr: 0x21090, symBinAddr: 0x1000238A8, symSize: 0x28 }
  - { offset: 0x4F9CB, size: 0x8, addend: 0x0, symName: __ZNSt3__16vectorIPN8nlohmann16json_abi_v3_11_210basic_jsonINS_3mapES0_NS_12basic_stringIcNS_11char_traitsIcEENS_9allocatorIcEEEEbxydS8_NS2_14adl_serializerENS0_IhNS8_IhEEEEEENS8_ISF_EEE21_ConstructTransactionD2B8ne180100Ev, symObjAddr: 0x210B8, symBinAddr: 0x1000238D0, symSize: 0x20 }
  - { offset: 0x4F9F5, size: 0x8, addend: 0x0, symName: __ZNKSt3__16vectorIPN8nlohmann16json_abi_v3_11_210basic_jsonINS_3mapES0_NS_12basic_stringIcNS_11char_traitsIcEENS_9allocatorIcEEEEbxydS8_NS2_14adl_serializerENS0_IhNS8_IhEEEEEENS8_ISF_EEE11__recommendB8ne180100Em, symObjAddr: 0x210D8, symBinAddr: 0x1000238F0, symSize: 0xB4 }
  - { offset: 0x4FA4A, size: 0x8, addend: 0x0, symName: __ZNSt3__114__split_bufferIPN8nlohmann16json_abi_v3_11_210basic_jsonINS_3mapENS_6vectorENS_12basic_stringIcNS_11char_traitsIcEENS_9allocatorIcEEEEbxydS9_NS2_14adl_serializerENS5_IhNS9_IhEEEEEERNS9_ISG_EEEC1EmmSI_, symObjAddr: 0x2118C, symBinAddr: 0x1000239A4, symSize: 0x44 }
  - { offset: 0x4FAA0, size: 0x8, addend: 0x0, symName: __ZNSt3__114__split_bufferIPN8nlohmann16json_abi_v3_11_210basic_jsonINS_3mapENS_6vectorENS_12basic_stringIcNS_11char_traitsIcEENS_9allocatorIcEEEEbxydS9_NS2_14adl_serializerENS5_IhNS9_IhEEEEEERNS9_ISG_EEED1Ev, symObjAddr: 0x212E0, symBinAddr: 0x100023AF8, symSize: 0x2C }
  - { offset: 0x4FACC, size: 0x8, addend: 0x0, symName: __ZNKSt3__16vectorIPN8nlohmann16json_abi_v3_11_210basic_jsonINS_3mapES0_NS_12basic_stringIcNS_11char_traitsIcEENS_9allocatorIcEEEEbxydS8_NS2_14adl_serializerENS0_IhNS8_IhEEEEEENS8_ISF_EEE8max_sizeEv, symObjAddr: 0x2130C, symBinAddr: 0x100023B24, symSize: 0x60 }
  - { offset: 0x4FAF4, size: 0x8, addend: 0x0, symName: __ZNKSt3__16vectorIPN8nlohmann16json_abi_v3_11_210basic_jsonINS_3mapES0_NS_12basic_stringIcNS_11char_traitsIcEENS_9allocatorIcEEEEbxydS8_NS2_14adl_serializerENS0_IhNS8_IhEEEEEENS8_ISF_EEE20__throw_length_errorB8ne180100Ev, symObjAddr: 0x2136C, symBinAddr: 0x100023B84, symSize: 0x1C }
  - { offset: 0x4FB25, size: 0x8, addend: 0x0, symName: __ZNSt3__116allocator_traitsINS_9allocatorIPN8nlohmann16json_abi_v3_11_210basic_jsonINS_3mapENS_6vectorENS_12basic_stringIcNS_11char_traitsIcEENS1_IcEEEEbxydS1_NS3_14adl_serializerENS6_IhNS1_IhEEEEEEEEE8max_sizeB8ne180100ISH_vEEmRKSH_, symObjAddr: 0x21388, symBinAddr: 0x100023BA0, symSize: 0x24 }
  - { offset: 0x4FB53, size: 0x8, addend: 0x0, symName: __ZNKSt3__16vectorIPN8nlohmann16json_abi_v3_11_210basic_jsonINS_3mapES0_NS_12basic_stringIcNS_11char_traitsIcEENS_9allocatorIcEEEEbxydS8_NS2_14adl_serializerENS0_IhNS8_IhEEEEEENS8_ISF_EEE7__allocB8ne180100Ev, symObjAddr: 0x213AC, symBinAddr: 0x100023BC4, symSize: 0x28 }
  - { offset: 0x4FB79, size: 0x8, addend: 0x0, symName: __ZNKSt3__19allocatorIPN8nlohmann16json_abi_v3_11_210basic_jsonINS_3mapENS_6vectorENS_12basic_stringIcNS_11char_traitsIcEENS0_IcEEEEbxydS0_NS2_14adl_serializerENS5_IhNS0_IhEEEEEEE8max_sizeB8ne180100Ev, symObjAddr: 0x213D4, symBinAddr: 0x100023BEC, symSize: 0x14 }
  - { offset: 0x4FB9F, size: 0x8, addend: 0x0, symName: __ZNKSt3__117__compressed_pairIPPN8nlohmann16json_abi_v3_11_210basic_jsonINS_3mapENS_6vectorENS_12basic_stringIcNS_11char_traitsIcEENS_9allocatorIcEEEEbxydS9_NS2_14adl_serializerENS5_IhNS9_IhEEEEEENS9_ISG_EEE6secondB8ne180100Ev, symObjAddr: 0x213E8, symBinAddr: 0x100023C00, symSize: 0x24 }
  - { offset: 0x4FBC5, size: 0x8, addend: 0x0, symName: __ZNKSt3__122__compressed_pair_elemINS_9allocatorIPN8nlohmann16json_abi_v3_11_210basic_jsonINS_3mapENS_6vectorENS_12basic_stringIcNS_11char_traitsIcEENS1_IcEEEEbxydS1_NS3_14adl_serializerENS6_IhNS1_IhEEEEEEEELi1ELb1EE5__getB8ne180100Ev, symObjAddr: 0x2140C, symBinAddr: 0x100023C24, symSize: 0x14 }
  - { offset: 0x4FBEB, size: 0x8, addend: 0x0, symName: __ZNSt3__114__split_bufferIPN8nlohmann16json_abi_v3_11_210basic_jsonINS_3mapENS_6vectorENS_12basic_stringIcNS_11char_traitsIcEENS_9allocatorIcEEEEbxydS9_NS2_14adl_serializerENS5_IhNS9_IhEEEEEERNS9_ISG_EEEC2EmmSI_, symObjAddr: 0x21420, symBinAddr: 0x100023C38, symSize: 0xD4 }
  - { offset: 0x4FC5F, size: 0x8, addend: 0x0, symName: __ZNSt3__117__compressed_pairIPPN8nlohmann16json_abi_v3_11_210basic_jsonINS_3mapENS_6vectorENS_12basic_stringIcNS_11char_traitsIcEENS_9allocatorIcEEEEbxydS9_NS2_14adl_serializerENS5_IhNS9_IhEEEEEERNS9_ISG_EEEC1B8ne180100IDnSJ_EEOT_OT0_, symObjAddr: 0x214F4, symBinAddr: 0x100023D0C, symSize: 0x3C }
  - { offset: 0x4FCB7, size: 0x8, addend: 0x0, symName: __ZNSt3__114__split_bufferIPN8nlohmann16json_abi_v3_11_210basic_jsonINS_3mapENS_6vectorENS_12basic_stringIcNS_11char_traitsIcEENS_9allocatorIcEEEEbxydS9_NS2_14adl_serializerENS5_IhNS9_IhEEEEEERNS9_ISG_EEE7__allocB8ne180100Ev, symObjAddr: 0x21570, symBinAddr: 0x100023D88, symSize: 0x28 }
  - { offset: 0x4FCDD, size: 0x8, addend: 0x0, symName: __ZNSt3__114__split_bufferIPN8nlohmann16json_abi_v3_11_210basic_jsonINS_3mapENS_6vectorENS_12basic_stringIcNS_11char_traitsIcEENS_9allocatorIcEEEEbxydS9_NS2_14adl_serializerENS5_IhNS9_IhEEEEEERNS9_ISG_EEE9__end_capB8ne180100Ev, symObjAddr: 0x21598, symBinAddr: 0x100023DB0, symSize: 0x28 }
