---
triple:          'arm64-apple-darwin'
binary-path:     '/Users/humengqing/Documents/Code/VSCode/IWU/JsonRepos/main'
relocations:
  - { offset: 0x4C, size: 0x8, addend: 0x0, symName: __ZN8nlohmann16json_abi_v3_11_26detail12static_constINS1_12from_json_fnEE5valueE, symObjAddr: 0x31D48, symBinAddr: 0x10003642C, symSize: 0x0 }
  - { offset: 0x17D8, size: 0x8, addend: 0x0, symName: __ZN8nlohmann16json_abi_v3_11_26detail3getILm0ENS1_9iter_implIKNS0_10basic_jsonINSt3__13mapENS5_6vectorENS5_12basic_stringIcNS5_11char_traitsIcEENS5_9allocatorIcEEEEbxydSB_NS0_14adl_serializerENS7_IhNSB_IhEEEEEEEELi0EEEDTcldtfp_3keyEERKNS1_21iteration_proxy_valueIT0_EE, symObjAddr: 0x95C, symBinAddr: 0x1000038E8, symSize: 0x24 }
  - { offset: 0x181F, size: 0x8, addend: 0x0, symName: __ZN8nlohmann16json_abi_v3_11_26detail3getILm1ENS1_9iter_implIKNS0_10basic_jsonINSt3__13mapENS5_6vectorENS5_12basic_stringIcNS5_11char_traitsIcEENS5_9allocatorIcEEEEbxydSB_NS0_14adl_serializerENS7_IhNSB_IhEEEEEEEELi0EEEDTcldtfp_5valueEERKNS1_21iteration_proxy_valueIT0_EE, symObjAddr: 0x980, symBinAddr: 0x10000390C, symSize: 0x24 }
  - { offset: 0x187B, size: 0x8, addend: 0x0, symName: __ZN8nlohmann16json_abi_v3_11_26detail9from_jsonINS0_10basic_jsonINSt3__13mapENS4_6vectorENS4_12basic_stringIcNS4_11char_traitsIcEENS4_9allocatorIcEEEEbxydSA_NS0_14adl_serializerENS6_IhNSA_IhEEEEEEEEvRKT_RNSH_8string_tE, symObjAddr: 0x2A10, symBinAddr: 0x10000599C, symSize: 0x118 }
  - { offset: 0x1A40, size: 0x8, addend: 0x0, symName: __ZN8nlohmann16json_abi_v3_11_26detail6concatINSt3__112basic_stringIcNS3_11char_traitsIcEENS3_9allocatorIcEEEEJRA29_KcPSA_EEET_DpOT0_, symObjAddr: 0x2C58, symBinAddr: 0x100005BE4, symSize: 0xCC }
  - { offset: 0x1AA6, size: 0x8, addend: 0x0, symName: __ZN8nlohmann16json_abi_v3_11_26detail6concatINSt3__112basic_stringIcNS3_11char_traitsIcEENS3_9allocatorIcEEEEJS9_S9_RKS9_EEET_DpOT0_, symObjAddr: 0x2E78, symBinAddr: 0x100005E04, symSize: 0xD8 }
  - { offset: 0x1B20, size: 0x8, addend: 0x0, symName: __ZN8nlohmann16json_abi_v3_11_26detail13concat_lengthINSt3__112basic_stringIcNS3_11char_traitsIcEENS3_9allocatorIcEEEEJS9_RKS9_EEEmRKT_DpOT0_, symObjAddr: 0x308C, symBinAddr: 0x100006018, symSize: 0x48 }
  - { offset: 0x1B85, size: 0x8, addend: 0x0, symName: __ZN8nlohmann16json_abi_v3_11_26detail11concat_intoINSt3__112basic_stringIcNS3_11char_traitsIcEENS3_9allocatorIcEEEES9_JS9_RKS9_ELi0EEEvRT_OT0_DpOT1_, symObjAddr: 0x30D4, symBinAddr: 0x100006060, symSize: 0x44 }
  - { offset: 0x1C04, size: 0x8, addend: 0x0, symName: __ZN8nlohmann16json_abi_v3_11_26detail13concat_lengthINSt3__112basic_stringIcNS3_11char_traitsIcEENS3_9allocatorIcEEEEJRKS9_EEEmRKT_DpOT0_, symObjAddr: 0x316C, symBinAddr: 0x1000060F8, symSize: 0x40 }
  - { offset: 0x1C55, size: 0x8, addend: 0x0, symName: __ZN8nlohmann16json_abi_v3_11_26detail13concat_lengthINSt3__112basic_stringIcNS3_11char_traitsIcEENS3_9allocatorIcEEEEJEEEmRKT_DpOT0_, symObjAddr: 0x3278, symBinAddr: 0x100006204, symSize: 0x38 }
  - { offset: 0x1C91, size: 0x8, addend: 0x0, symName: __ZN8nlohmann16json_abi_v3_11_26detail13concat_lengthEv, symObjAddr: 0x32B0, symBinAddr: 0x10000623C, symSize: 0x8 }
  - { offset: 0x1CAF, size: 0x8, addend: 0x0, symName: __ZN8nlohmann16json_abi_v3_11_26detail11concat_intoINSt3__112basic_stringIcNS3_11char_traitsIcEENS3_9allocatorIcEEEES9_JRKS9_ELi0EEEvRT_OT0_DpOT1_, symObjAddr: 0x3304, symBinAddr: 0x100006290, symSize: 0x3C }
  - { offset: 0x1D1A, size: 0x8, addend: 0x0, symName: __ZN8nlohmann16json_abi_v3_11_26detail11concat_intoINSt3__112basic_stringIcNS3_11char_traitsIcEENS3_9allocatorIcEEEERKS9_JELi0EEEvRT_OT0_DpOT1_, symObjAddr: 0x3434, symBinAddr: 0x1000063C0, symSize: 0x34 }
  - { offset: 0x1D70, size: 0x8, addend: 0x0, symName: __ZN8nlohmann16json_abi_v3_11_26detail11concat_intoINSt3__112basic_stringIcNS3_11char_traitsIcEENS3_9allocatorIcEEEEEEvRT_, symObjAddr: 0x3468, symBinAddr: 0x1000063F4, symSize: 0x10 }
  - { offset: 0x1D9F, size: 0x8, addend: 0x0, symName: __ZN8nlohmann16json_abi_v3_11_26detail6concatINSt3__112basic_stringIcNS3_11char_traitsIcEENS3_9allocatorIcEEEEJRA17_KcRKS9_cS9_RA3_SA_EEET_DpOT0_, symObjAddr: 0x3478, symBinAddr: 0x100006404, symSize: 0xF0 }
  - { offset: 0x1E41, size: 0x8, addend: 0x0, symName: __ZN8nlohmann16json_abi_v3_11_26detail13concat_lengthIJRKNSt3__112basic_stringIcNS3_11char_traitsIcEENS3_9allocatorIcEEEEcS9_RA3_KcEEEmPSC_DpOT_, symObjAddr: 0x3568, symBinAddr: 0x1000064F4, symSize: 0x58 }
  - { offset: 0x1EC5, size: 0x8, addend: 0x0, symName: __ZN8nlohmann16json_abi_v3_11_26detail11concat_intoINSt3__112basic_stringIcNS3_11char_traitsIcEENS3_9allocatorIcEEEERA17_KcJRKS9_cS9_RA3_SA_ELi0EEEvRT_OT0_DpOT1_, symObjAddr: 0x35C0, symBinAddr: 0x10000654C, symSize: 0x54 }
  - { offset: 0x1F6C, size: 0x8, addend: 0x0, symName: __ZN8nlohmann16json_abi_v3_11_26detail13concat_lengthINSt3__112basic_stringIcNS3_11char_traitsIcEENS3_9allocatorIcEEEEJcS9_RA3_KcEEEmRKT_DpOT0_, symObjAddr: 0x3614, symBinAddr: 0x1000065A0, symSize: 0x54 }
  - { offset: 0x1FE5, size: 0x8, addend: 0x0, symName: __ZN8nlohmann16json_abi_v3_11_26detail13concat_lengthIJNSt3__112basic_stringIcNS3_11char_traitsIcEENS3_9allocatorIcEEEERA3_KcEEEmcDpOT_, symObjAddr: 0x3668, symBinAddr: 0x1000065F4, symSize: 0x34 }
  - { offset: 0x203D, size: 0x8, addend: 0x0, symName: __ZN8nlohmann16json_abi_v3_11_26detail13concat_lengthINSt3__112basic_stringIcNS3_11char_traitsIcEENS3_9allocatorIcEEEEJRA3_KcEEEmRKT_DpOT0_, symObjAddr: 0x369C, symBinAddr: 0x100006628, symSize: 0x40 }
  - { offset: 0x208E, size: 0x8, addend: 0x0, symName: __ZN8nlohmann16json_abi_v3_11_26detail13concat_lengthIJEEEmPKcDpOT_, symObjAddr: 0x36DC, symBinAddr: 0x100006668, symSize: 0x38 }
  - { offset: 0x20C1, size: 0x8, addend: 0x0, symName: __ZN8nlohmann16json_abi_v3_11_26detail11concat_intoINSt3__112basic_stringIcNS3_11char_traitsIcEENS3_9allocatorIcEEEERKS9_JcS9_RA3_KcELi0EEEvRT_OT0_DpOT1_, symObjAddr: 0x3714, symBinAddr: 0x1000066A0, symSize: 0x4C }
  - { offset: 0x2154, size: 0x8, addend: 0x0, symName: __ZN8nlohmann16json_abi_v3_11_26detail11concat_intoINSt3__112basic_stringIcNS3_11char_traitsIcEENS3_9allocatorIcEEEEcJS9_RA3_KcELi0EEEvRT_OT0_DpOT1_, symObjAddr: 0x3760, symBinAddr: 0x1000066EC, symSize: 0x48 }
  - { offset: 0x21D3, size: 0x8, addend: 0x0, symName: __ZN8nlohmann16json_abi_v3_11_26detail11concat_intoINSt3__112basic_stringIcNS3_11char_traitsIcEENS3_9allocatorIcEEEES9_JRA3_KcELi0EEEvRT_OT0_DpOT1_, symObjAddr: 0x37DC, symBinAddr: 0x100006768, symSize: 0x3C }
  - { offset: 0x223E, size: 0x8, addend: 0x0, symName: __ZN8nlohmann16json_abi_v3_11_26detail11concat_intoINSt3__112basic_stringIcNS3_11char_traitsIcEENS3_9allocatorIcEEEERA3_KcJELi0EEEvRT_OT0_DpOT1_, symObjAddr: 0x3818, symBinAddr: 0x1000067A4, symSize: 0x34 }
  - { offset: 0x2294, size: 0x8, addend: 0x0, symName: __ZN8nlohmann16json_abi_v3_11_26detail13concat_lengthIJPKcEEEmS4_DpOT_, symObjAddr: 0x3A3C, symBinAddr: 0x1000069C8, symSize: 0x44 }
  - { offset: 0x22DC, size: 0x8, addend: 0x0, symName: __ZN8nlohmann16json_abi_v3_11_26detail11concat_intoINSt3__112basic_stringIcNS3_11char_traitsIcEENS3_9allocatorIcEEEERA29_KcJPSA_ELi0EEEvRT_OT0_DpOT1_, symObjAddr: 0x3A80, symBinAddr: 0x100006A0C, symSize: 0x3C }
  - { offset: 0x2347, size: 0x8, addend: 0x0, symName: __ZN8nlohmann16json_abi_v3_11_26detail11concat_intoINSt3__112basic_stringIcNS3_11char_traitsIcEENS3_9allocatorIcEEEEPKcJELi0EEEvRT_OT0_DpOT1_, symObjAddr: 0x3ABC, symBinAddr: 0x100006A48, symSize: 0x38 }
  - { offset: 0x239D, size: 0x8, addend: 0x0, symName: __ZN8nlohmann16json_abi_v3_11_26detail9from_jsonINS0_10basic_jsonINSt3__13mapENS4_6vectorENS4_12basic_stringIcNS4_11char_traitsIcEENS4_9allocatorIcEEEEbxydSA_NS0_14adl_serializerENS6_IhNSA_IhEEEEEEEEvRKT_RNSH_9boolean_tE, symObjAddr: 0x3C0C, symBinAddr: 0x100006B98, symSize: 0x11C }
  - { offset: 0x23DF, size: 0x8, addend: 0x0, symName: __ZN8nlohmann16json_abi_v3_11_26detail6concatINSt3__112basic_stringIcNS3_11char_traitsIcEENS3_9allocatorIcEEEEJRA30_KcPSA_EEET_DpOT0_, symObjAddr: 0x3D28, symBinAddr: 0x100006CB4, symSize: 0xCC }
  - { offset: 0x2445, size: 0x8, addend: 0x0, symName: __ZN8nlohmann16json_abi_v3_11_26detail11concat_intoINSt3__112basic_stringIcNS3_11char_traitsIcEENS3_9allocatorIcEEEERA30_KcJPSA_ELi0EEEvRT_OT0_DpOT1_, symObjAddr: 0x3E1C, symBinAddr: 0x100006DA8, symSize: 0x3C }
  - { offset: 0x24B0, size: 0x8, addend: 0x0, symName: __ZN8nlohmann16json_abi_v3_11_26detail9from_jsonINS0_10basic_jsonINSt3__13mapENS4_6vectorENS4_12basic_stringIcNS4_11char_traitsIcEENS4_9allocatorIcEEEEbxydSA_NS0_14adl_serializerENS6_IhNSA_IhEEEEEEEEvRKT_RNSH_14number_float_tE, symObjAddr: 0x3F44, symBinAddr: 0x100006ED0, symSize: 0x2C }
  - { offset: 0x24F2, size: 0x8, addend: 0x0, symName: __ZN8nlohmann16json_abi_v3_11_26detail20get_arithmetic_valueINS0_10basic_jsonINSt3__13mapENS4_6vectorENS4_12basic_stringIcNS4_11char_traitsIcEENS4_9allocatorIcEEEEbxydSA_NS0_14adl_serializerENS6_IhNSA_IhEEEEEEdLi0EEEvRKT_RT0_, symObjAddr: 0x3F70, symBinAddr: 0x100006EFC, symSize: 0x188 }
  - { offset: 0x2543, size: 0x8, addend: 0x0, symName: __ZN8nlohmann16json_abi_v3_11_26detail9from_jsonINS0_10basic_jsonINSt3__13mapENS4_6vectorENS4_12basic_stringIcNS4_11char_traitsIcEENS4_9allocatorIcEEEEbxydSA_NS0_14adl_serializerENS6_IhNSA_IhEEEEEEEEvRKT_RNSH_16number_integer_tE, symObjAddr: 0x4340, symBinAddr: 0x1000072CC, symSize: 0x2C }
  - { offset: 0x2585, size: 0x8, addend: 0x0, symName: __ZN8nlohmann16json_abi_v3_11_26detail20get_arithmetic_valueINS0_10basic_jsonINSt3__13mapENS4_6vectorENS4_12basic_stringIcNS4_11char_traitsIcEENS4_9allocatorIcEEEEbxydSA_NS0_14adl_serializerENS6_IhNSA_IhEEEEEExLi0EEEvRKT_RT0_, symObjAddr: 0x436C, symBinAddr: 0x1000072F8, symSize: 0x184 }
  - { offset: 0x25D6, size: 0x8, addend: 0x0, symName: __ZN8nlohmann16json_abi_v3_11_26detail9from_jsonINS0_10basic_jsonINSt3__13mapENS4_6vectorENS4_12basic_stringIcNS4_11char_traitsIcEENS4_9allocatorIcEEEEbxydSA_NS0_14adl_serializerENS6_IhNSA_IhEEEEEEEEvRKT_RNSH_17number_unsigned_tE, symObjAddr: 0x45AC, symBinAddr: 0x100007538, symSize: 0x2C }
  - { offset: 0x2618, size: 0x8, addend: 0x0, symName: __ZN8nlohmann16json_abi_v3_11_26detail20get_arithmetic_valueINS0_10basic_jsonINSt3__13mapENS4_6vectorENS4_12basic_stringIcNS4_11char_traitsIcEENS4_9allocatorIcEEEEbxydSA_NS0_14adl_serializerENS6_IhNSA_IhEEEEEEyLi0EEEvRKT_RT0_, symObjAddr: 0x45D8, symBinAddr: 0x100007564, symSize: 0x184 }
  - { offset: 0x270B, size: 0x8, addend: 0x0, symName: __ZN8nlohmann16json_abi_v3_11_26detaileqENS1_20primitive_iterator_tES2_, symObjAddr: 0xB7EC, symBinAddr: 0x10000E778, symSize: 0x28 }
  - { offset: 0x2748, size: 0x8, addend: 0x0, symName: __ZN8nlohmann16json_abi_v3_11_26detail13int_to_stringINSt3__112basic_stringIcNS3_11char_traitsIcEENS3_9allocatorIcEEEEEEvRT_m, symObjAddr: 0xBE04, symBinAddr: 0x10000ED90, symSize: 0x44 }
  - { offset: 0x2792, size: 0x8, addend: 0x0, symName: __ZN8nlohmann16json_abi_v3_11_26detail6concatINSt3__112basic_stringIcNS3_11char_traitsIcEENS3_9allocatorIcEEEEJRA52_KcPSA_EEET_DpOT0_, symObjAddr: 0xD770, symBinAddr: 0x1000106FC, symSize: 0xCC }
  - { offset: 0x27F8, size: 0x8, addend: 0x0, symName: __ZN8nlohmann16json_abi_v3_11_26detail11concat_intoINSt3__112basic_stringIcNS3_11char_traitsIcEENS3_9allocatorIcEEEERA52_KcJPSA_ELi0EEEvRT_OT0_DpOT1_, symObjAddr: 0xD83C, symBinAddr: 0x1000107C8, symSize: 0x3C }
  - { offset: 0x2A30, size: 0x8, addend: 0x0, symName: __ZN8nlohmann16json_abi_v3_11_26detail13input_adapterERNSt3__113basic_istreamIcNS2_11char_traitsIcEEEE, symObjAddr: 0x14210, symBinAddr: 0x10001719C, symSize: 0x38 }
  - { offset: 0x33D5, size: 0x8, addend: 0x0, symName: __ZN8nlohmann16json_abi_v3_11_26detail6concatINSt3__112basic_stringIcNS3_11char_traitsIcEENS3_9allocatorIcEEEEJRA26_KcS9_cEEET_DpOT0_, symObjAddr: 0x1F0BC, symBinAddr: 0x100022048, symSize: 0xD8 }
  - { offset: 0x344F, size: 0x8, addend: 0x0, symName: __ZN8nlohmann16json_abi_v3_11_26detail6concatINSt3__112basic_stringIcNS3_11char_traitsIcEENS3_9allocatorIcEEEEJRA24_KcS9_EEET_DpOT0_, symObjAddr: 0x1FC04, symBinAddr: 0x100022B90, symSize: 0xCC }
  - { offset: 0x34B5, size: 0x8, addend: 0x0, symName: __ZN8nlohmann16json_abi_v3_11_26detail13concat_lengthIJNSt3__112basic_stringIcNS3_11char_traitsIcEENS3_9allocatorIcEEEEEEEmPKcDpOT_, symObjAddr: 0x215CC, symBinAddr: 0x100024558, symSize: 0x40 }
  - { offset: 0x34FD, size: 0x8, addend: 0x0, symName: __ZN8nlohmann16json_abi_v3_11_26detail11concat_intoINSt3__112basic_stringIcNS3_11char_traitsIcEENS3_9allocatorIcEEEERA24_KcJS9_ELi0EEEvRT_OT0_DpOT1_, symObjAddr: 0x2160C, symBinAddr: 0x100024598, symSize: 0x3C }
  - { offset: 0x3568, size: 0x8, addend: 0x0, symName: __ZN8nlohmann16json_abi_v3_11_26detail11concat_intoINSt3__112basic_stringIcNS3_11char_traitsIcEENS3_9allocatorIcEEEES9_JELi0EEEvRT_OT0_DpOT1_, symObjAddr: 0x21648, symBinAddr: 0x1000245D4, symSize: 0x34 }
  - { offset: 0x35BE, size: 0x8, addend: 0x0, symName: __ZN8nlohmann16json_abi_v3_11_26detail6concatINSt3__112basic_stringIcNS3_11char_traitsIcEENS3_9allocatorIcEEEEJRA25_KcPSA_EEET_DpOT0_, symObjAddr: 0x27B2C, symBinAddr: 0x10002AAB8, symSize: 0xCC }
  - { offset: 0x3624, size: 0x8, addend: 0x0, symName: __ZN8nlohmann16json_abi_v3_11_26detail11concat_intoINSt3__112basic_stringIcNS3_11char_traitsIcEENS3_9allocatorIcEEEERA25_KcJPSA_ELi0EEEvRT_OT0_DpOT1_, symObjAddr: 0x28878, symBinAddr: 0x10002B804, symSize: 0x3C }
  - { offset: 0x368F, size: 0x8, addend: 0x0, symName: __ZN8nlohmann16json_abi_v3_11_26detail7to_jsonINS0_10basic_jsonINSt3__13mapENS4_6vectorENS4_12basic_stringIcNS4_11char_traitsIcEENS4_9allocatorIcEEEEbxydSA_NS0_14adl_serializerENS6_IhNSA_IhEEEEEESC_Li0EEEvRT_RKT0_, symObjAddr: 0x28A58, symBinAddr: 0x10002B9E4, symSize: 0x2C }
  - { offset: 0x3711, size: 0x8, addend: 0x0, symName: __ZN8nlohmann16json_abi_v3_11_26detail6concatINSt3__112basic_stringIcNS3_11char_traitsIcEENS3_9allocatorIcEEEEJRA23_KcS9_EEET_DpOT0_, symObjAddr: 0x28FB0, symBinAddr: 0x10002BF3C, symSize: 0xCC }
  - { offset: 0x3777, size: 0x8, addend: 0x0, symName: __ZN8nlohmann16json_abi_v3_11_26detail11concat_intoINSt3__112basic_stringIcNS3_11char_traitsIcEENS3_9allocatorIcEEEERA23_KcJS9_ELi0EEEvRT_OT0_DpOT1_, symObjAddr: 0x2907C, symBinAddr: 0x10002C008, symSize: 0x3C }
  - { offset: 0x37E2, size: 0x8, addend: 0x0, symName: __ZN8nlohmann16json_abi_v3_11_26detail13concat_lengthIJNSt3__112basic_stringIcNS3_11char_traitsIcEENS3_9allocatorIcEEEEcEEEmPKcDpOT_, symObjAddr: 0x291BC, symBinAddr: 0x10002C148, symSize: 0x48 }
  - { offset: 0x383E, size: 0x8, addend: 0x0, symName: __ZN8nlohmann16json_abi_v3_11_26detail11concat_intoINSt3__112basic_stringIcNS3_11char_traitsIcEENS3_9allocatorIcEEEERA26_KcJS9_cELi0EEEvRT_OT0_DpOT1_, symObjAddr: 0x29204, symBinAddr: 0x10002C190, symSize: 0x44 }
  - { offset: 0x38BD, size: 0x8, addend: 0x0, symName: __ZN8nlohmann16json_abi_v3_11_26detail13concat_lengthINSt3__112basic_stringIcNS3_11char_traitsIcEENS3_9allocatorIcEEEEJcEEEmRKT_DpOT0_, symObjAddr: 0x29248, symBinAddr: 0x10002C1D4, symSize: 0x44 }
  - { offset: 0x390E, size: 0x8, addend: 0x0, symName: __ZN8nlohmann16json_abi_v3_11_26detail13concat_lengthIJEEEmcDpOT_, symObjAddr: 0x2928C, symBinAddr: 0x10002C218, symSize: 0x24 }
  - { offset: 0x393D, size: 0x8, addend: 0x0, symName: __ZN8nlohmann16json_abi_v3_11_26detail11concat_intoINSt3__112basic_stringIcNS3_11char_traitsIcEENS3_9allocatorIcEEEES9_JcELi0EEEvRT_OT0_DpOT1_, symObjAddr: 0x292B0, symBinAddr: 0x10002C23C, symSize: 0x3C }
  - { offset: 0x39A8, size: 0x8, addend: 0x0, symName: __ZN8nlohmann16json_abi_v3_11_26detail11concat_intoINSt3__112basic_stringIcNS3_11char_traitsIcEENS3_9allocatorIcEEEEcJELi0EEEvRT_OT0_DpOT1_, symObjAddr: 0x292EC, symBinAddr: 0x10002C278, symSize: 0x38 }
  - { offset: 0x39FE, size: 0x8, addend: 0x0, symName: __ZN8nlohmann16json_abi_v3_11_26detail7to_jsonINS0_10basic_jsonINSt3__13mapENS4_6vectorENS4_12basic_stringIcNS4_11char_traitsIcEENS4_9allocatorIcEEEEbxydSA_NS0_14adl_serializerENS6_IhNSA_IhEEEEEEdLi0EEEvRT_T0_, symObjAddr: 0x2991C, symBinAddr: 0x10002C8A8, symSize: 0x2C }
  - { offset: 0x3A80, size: 0x8, addend: 0x0, symName: __ZN8nlohmann16json_abi_v3_11_26detail7to_jsonINS0_10basic_jsonINSt3__13mapENS4_6vectorENS4_12basic_stringIcNS4_11char_traitsIcEENS4_9allocatorIcEEEEbxydSA_NS0_14adl_serializerENS6_IhNSA_IhEEEEEEbLi0EEEvRT_T0_, symObjAddr: 0x29F88, symBinAddr: 0x10002CF14, symSize: 0x38 }
  - { offset: 0x3B02, size: 0x8, addend: 0x0, symName: __ZN8nlohmann16json_abi_v3_11_26detail7to_jsonINS0_10basic_jsonINSt3__13mapENS4_6vectorENS4_12basic_stringIcNS4_11char_traitsIcEENS4_9allocatorIcEEEEbxydSA_NS0_14adl_serializerENS6_IhNSA_IhEEEEEExLi0EEEvRT_T0_, symObjAddr: 0x2AAE4, symBinAddr: 0x10002DA70, symSize: 0x2C }
  - { offset: 0x3B84, size: 0x8, addend: 0x0, symName: __ZN8nlohmann16json_abi_v3_11_26detail7to_jsonINS0_10basic_jsonINSt3__13mapENS4_6vectorENS4_12basic_stringIcNS4_11char_traitsIcEENS4_9allocatorIcEEEEbxydSA_NS0_14adl_serializerENS6_IhNSA_IhEEEEEEyLi0EEEvRT_T0_, symObjAddr: 0x2B628, symBinAddr: 0x10002E5B4, symSize: 0x2C }
  - { offset: 0x3C06, size: 0x8, addend: 0x0, symName: __ZN8nlohmann16json_abi_v3_11_26detail6concatINSt3__112basic_stringIcNS3_11char_traitsIcEENS3_9allocatorIcEEEEJS9_RA12_KcS9_RA3_SA_S9_RKS9_EEET_DpOT0_, symObjAddr: 0x2B85C, symBinAddr: 0x10002E7E8, symSize: 0xFC }
  - { offset: 0x3CBC, size: 0x8, addend: 0x0, symName: __ZN8nlohmann16json_abi_v3_11_26detail13concat_lengthINSt3__112basic_stringIcNS3_11char_traitsIcEENS3_9allocatorIcEEEEJRA12_KcS9_RA3_SA_S9_RKS9_EEEmRKT_DpOT0_, symObjAddr: 0x2BA58, symBinAddr: 0x10002E9E4, symSize: 0x60 }
  - { offset: 0x3D5D, size: 0x8, addend: 0x0, symName: __ZN8nlohmann16json_abi_v3_11_26detail11concat_intoINSt3__112basic_stringIcNS3_11char_traitsIcEENS3_9allocatorIcEEEES9_JRA12_KcS9_RA3_SA_S9_RKS9_ELi0EEEvRT_OT0_DpOT1_, symObjAddr: 0x2BAB8, symBinAddr: 0x10002EA44, symSize: 0x5C }
  - { offset: 0x3E18, size: 0x8, addend: 0x0, symName: __ZN8nlohmann16json_abi_v3_11_26detail13concat_lengthIJNSt3__112basic_stringIcNS3_11char_traitsIcEENS3_9allocatorIcEEEERA3_KcS9_RKS9_EEEmPSA_DpOT_, symObjAddr: 0x2BB14, symBinAddr: 0x10002EAA0, symSize: 0x58 }
  - { offset: 0x3E9C, size: 0x8, addend: 0x0, symName: __ZN8nlohmann16json_abi_v3_11_26detail13concat_lengthINSt3__112basic_stringIcNS3_11char_traitsIcEENS3_9allocatorIcEEEEJRA3_KcS9_RKS9_EEEmRKT_DpOT0_, symObjAddr: 0x2BB6C, symBinAddr: 0x10002EAF8, symSize: 0x50 }
  - { offset: 0x3F15, size: 0x8, addend: 0x0, symName: __ZN8nlohmann16json_abi_v3_11_26detail13concat_lengthIJNSt3__112basic_stringIcNS3_11char_traitsIcEENS3_9allocatorIcEEEERKS9_EEEmPKcDpOT_, symObjAddr: 0x2BBBC, symBinAddr: 0x10002EB48, symSize: 0x48 }
  - { offset: 0x3F71, size: 0x8, addend: 0x0, symName: __ZN8nlohmann16json_abi_v3_11_26detail11concat_intoINSt3__112basic_stringIcNS3_11char_traitsIcEENS3_9allocatorIcEEEERA12_KcJS9_RA3_SA_S9_RKS9_ELi0EEEvRT_OT0_DpOT1_, symObjAddr: 0x2BC04, symBinAddr: 0x10002EB90, symSize: 0x54 }
  - { offset: 0x4018, size: 0x8, addend: 0x0, symName: __ZN8nlohmann16json_abi_v3_11_26detail11concat_intoINSt3__112basic_stringIcNS3_11char_traitsIcEENS3_9allocatorIcEEEES9_JRA3_KcS9_RKS9_ELi0EEEvRT_OT0_DpOT1_, symObjAddr: 0x2BC58, symBinAddr: 0x10002EBE4, symSize: 0x4C }
  - { offset: 0x40AB, size: 0x8, addend: 0x0, symName: __ZN8nlohmann16json_abi_v3_11_26detail11concat_intoINSt3__112basic_stringIcNS3_11char_traitsIcEENS3_9allocatorIcEEEERA3_KcJS9_RKS9_ELi0EEEvRT_OT0_DpOT1_, symObjAddr: 0x2BCA4, symBinAddr: 0x10002EC30, symSize: 0x44 }
  - { offset: 0x412A, size: 0x8, addend: 0x0, symName: __ZN8nlohmann16json_abi_v3_11_26detail6concatINSt3__112basic_stringIcNS3_11char_traitsIcEENS3_9allocatorIcEEEEJRA10_KcS9_SC_S9_EEET_DpOT0_, symObjAddr: 0x2BCE8, symBinAddr: 0x10002EC74, symSize: 0xE4 }
  - { offset: 0x41B8, size: 0x8, addend: 0x0, symName: __ZN8nlohmann16json_abi_v3_11_26detail13concat_lengthIJNSt3__112basic_stringIcNS3_11char_traitsIcEENS3_9allocatorIcEEEERA10_KcS9_EEEmPSA_DpOT_, symObjAddr: 0x2BDCC, symBinAddr: 0x10002ED58, symSize: 0x50 }
  - { offset: 0x4228, size: 0x8, addend: 0x0, symName: __ZN8nlohmann16json_abi_v3_11_26detail11concat_intoINSt3__112basic_stringIcNS3_11char_traitsIcEENS3_9allocatorIcEEEERA10_KcJS9_SC_S9_ELi0EEEvRT_OT0_DpOT1_, symObjAddr: 0x2BE1C, symBinAddr: 0x10002EDA8, symSize: 0x4C }
  - { offset: 0x42BB, size: 0x8, addend: 0x0, symName: __ZN8nlohmann16json_abi_v3_11_26detail13concat_lengthINSt3__112basic_stringIcNS3_11char_traitsIcEENS3_9allocatorIcEEEEJRA10_KcS9_EEEmRKT_DpOT0_, symObjAddr: 0x2BE68, symBinAddr: 0x10002EDF4, symSize: 0x48 }
  - { offset: 0x4320, size: 0x8, addend: 0x0, symName: __ZN8nlohmann16json_abi_v3_11_26detail11concat_intoINSt3__112basic_stringIcNS3_11char_traitsIcEENS3_9allocatorIcEEEES9_JRA10_KcS9_ELi0EEEvRT_OT0_DpOT1_, symObjAddr: 0x2BEB0, symBinAddr: 0x10002EE3C, symSize: 0x44 }
  - { offset: 0x439F, size: 0x8, addend: 0x0, symName: __ZN8nlohmann16json_abi_v3_11_26detail11concat_intoINSt3__112basic_stringIcNS3_11char_traitsIcEENS3_9allocatorIcEEEERA10_KcJS9_ELi0EEEvRT_OT0_DpOT1_, symObjAddr: 0x2BEF4, symBinAddr: 0x10002EE80, symSize: 0x3C }
  - { offset: 0x440A, size: 0x8, addend: 0x0, symName: __ZN8nlohmann16json_abi_v3_11_26detail6concatINSt3__112basic_stringIcNS3_11char_traitsIcEENS3_9allocatorIcEEEEJRA15_KcRKS9_cEEET_DpOT0_, symObjAddr: 0x2BF88, symBinAddr: 0x10002EF14, symSize: 0xD8 }
  - { offset: 0x4484, size: 0x8, addend: 0x0, symName: __ZN8nlohmann16json_abi_v3_11_26detail6concatINSt3__112basic_stringIcNS3_11char_traitsIcEENS3_9allocatorIcEEEEJPKcRA15_SA_S9_cEEET_DpOT0_, symObjAddr: 0x2C08C, symBinAddr: 0x10002F018, symSize: 0xE8 }
  - { offset: 0x4512, size: 0x8, addend: 0x0, symName: __ZN8nlohmann16json_abi_v3_11_26detail6concatINSt3__112basic_stringIcNS3_11char_traitsIcEENS3_9allocatorIcEEEEJRA12_KcPSA_EEET_DpOT0_, symObjAddr: 0x2C18C, symBinAddr: 0x10002F118, symSize: 0xCC }
  - { offset: 0x4578, size: 0x8, addend: 0x0, symName: __ZN8nlohmann16json_abi_v3_11_26detail13concat_lengthIJRKNSt3__112basic_stringIcNS3_11char_traitsIcEENS3_9allocatorIcEEEEcEEEmPKcDpOT_, symObjAddr: 0x2C3E8, symBinAddr: 0x10002F374, symSize: 0x48 }
  - { offset: 0x45D4, size: 0x8, addend: 0x0, symName: __ZN8nlohmann16json_abi_v3_11_26detail11concat_intoINSt3__112basic_stringIcNS3_11char_traitsIcEENS3_9allocatorIcEEEERA15_KcJRKS9_cELi0EEEvRT_OT0_DpOT1_, symObjAddr: 0x2C430, symBinAddr: 0x10002F3BC, symSize: 0x44 }
  - { offset: 0x4653, size: 0x8, addend: 0x0, symName: __ZN8nlohmann16json_abi_v3_11_26detail11concat_intoINSt3__112basic_stringIcNS3_11char_traitsIcEENS3_9allocatorIcEEEERKS9_JcELi0EEEvRT_OT0_DpOT1_, symObjAddr: 0x2C474, symBinAddr: 0x10002F400, symSize: 0x3C }
  - { offset: 0x46BE, size: 0x8, addend: 0x0, symName: __ZN8nlohmann16json_abi_v3_11_26detail13concat_lengthIJRA15_KcNSt3__112basic_stringIcNS6_11char_traitsIcEENS6_9allocatorIcEEEEcEEEmPS3_DpOT_, symObjAddr: 0x2C4B0, symBinAddr: 0x10002F43C, symSize: 0x50 }
  - { offset: 0x472E, size: 0x8, addend: 0x0, symName: __ZN8nlohmann16json_abi_v3_11_26detail11concat_intoINSt3__112basic_stringIcNS3_11char_traitsIcEENS3_9allocatorIcEEEEPKcJRA15_SA_S9_cELi0EEEvRT_OT0_DpOT1_, symObjAddr: 0x2C500, symBinAddr: 0x10002F48C, symSize: 0x50 }
  - { offset: 0x47C1, size: 0x8, addend: 0x0, symName: __ZN8nlohmann16json_abi_v3_11_26detail11concat_intoINSt3__112basic_stringIcNS3_11char_traitsIcEENS3_9allocatorIcEEEERA15_KcJS9_cELi0EEEvRT_OT0_DpOT1_, symObjAddr: 0x2C550, symBinAddr: 0x10002F4DC, symSize: 0x44 }
  - { offset: 0x4840, size: 0x8, addend: 0x0, symName: __ZN8nlohmann16json_abi_v3_11_26detail11concat_intoINSt3__112basic_stringIcNS3_11char_traitsIcEENS3_9allocatorIcEEEERA12_KcJPSA_ELi0EEEvRT_OT0_DpOT1_, symObjAddr: 0x2C594, symBinAddr: 0x10002F520, symSize: 0x3C }
  - { offset: 0x6379, size: 0x8, addend: 0x0, symName: __ZN8nlohmann16json_abi_v3_11_2rsERNSt3__113basic_istreamIcNS1_11char_traitsIcEEEERNS0_10basic_jsonINS1_3mapENS1_6vectorENS1_12basic_stringIcS4_NS1_9allocatorIcEEEEbxydSB_NS0_14adl_serializerENS9_IhNSB_IhEEEEEE, symObjAddr: 0x2410, symBinAddr: 0x10000539C, symSize: 0x134 }
  - { offset: 0x6625, size: 0x8, addend: 0x0, symName: __ZNSt3__119piecewise_constructE, symObjAddr: 0x31E1D, symBinAddr: 0x100036501, symSize: 0x0 }
  - { offset: 0x1C3E9, size: 0x8, addend: 0x0, symName: __ZNSt3__17advanceB8ne180100INS_14__map_iteratorINS_15__tree_iteratorINS_12__value_typeINS_12basic_stringIcNS_11char_traitsIcEENS_9allocatorIcEEEEN8nlohmann16json_abi_v3_11_210basic_jsonINS_3mapENS_6vectorES9_bxydS7_NSB_14adl_serializerENSE_IhNS7_IhEEEEEEEEPNS_11__tree_nodeISJ_PvEElEEEEiivEEvRT_T0_, symObjAddr: 0xBA00, symBinAddr: 0x10000E98C, symSize: 0x40 }
  - { offset: 0x1C47E, size: 0x8, addend: 0x0, symName: __ZNSt3__17advanceB8ne180100INS_11__wrap_iterIPN8nlohmann16json_abi_v3_11_210basic_jsonINS_3mapENS_6vectorENS_12basic_stringIcNS_11char_traitsIcEENS_9allocatorIcEEEEbxydSA_NS3_14adl_serializerENS6_IhNSA_IhEEEEEEEEiivEEvRT_T0_, symObjAddr: 0xBA40, symBinAddr: 0x10000E9CC, symSize: 0x40 }
  - { offset: 0x1CA0F, size: 0x8, addend: 0x0, symName: __ZNSt3__124__put_character_sequenceB8ne180100IcNS_11char_traitsIcEEEERNS_13basic_ostreamIT_T0_EES7_PKS4_m, symObjAddr: 0xD9A4, symBinAddr: 0x100010930, symSize: 0x1EC }
  - { offset: 0x23F47, size: 0x8, addend: 0x0, symName: __ZNSt3__17advanceB8ne180100INS_21__tree_const_iteratorINS_12__value_typeINS_12basic_stringIcNS_11char_traitsIcEENS_9allocatorIcEEEEN8nlohmann16json_abi_v3_11_210basic_jsonINS_3mapENS_6vectorES8_bxydS6_NSA_14adl_serializerENSD_IhNS6_IhEEEEEEEEPNS_11__tree_nodeISI_PvEElEEllvEEvRT_T0_, symObjAddr: 0x23ACC, symBinAddr: 0x100026A58, symSize: 0x38 }
  - { offset: 0x24DD1, size: 0x8, addend: 0x0, symName: __ZNSt3__111make_sharedB8ne180100I8TreeNodeJRKNS_12basic_stringIcNS_11char_traitsIcEENS_9allocatorIcEEEERS7_SA_EvEENS_10shared_ptrIT_EEDpOT0_, symObjAddr: 0x774, symBinAddr: 0x100003700, symSize: 0x50 }
  - { offset: 0x24E3C, size: 0x8, addend: 0x0, symName: __ZNSt3__1plB8ne180100IcNS_11char_traitsIcEENS_9allocatorIcEEEENS_12basic_stringIT_T0_T1_EEPKS6_OS9_, symObjAddr: 0xCAC, symBinAddr: 0x100003C38, symSize: 0x44 }
  - { offset: 0x24E94, size: 0x8, addend: 0x0, symName: __ZNSt3__1lsB8ne180100INS_11char_traitsIcEEEERNS_13basic_ostreamIcT_EES6_PKc, symObjAddr: 0x10C4, symBinAddr: 0x100004050, symSize: 0x48 }
  - { offset: 0x24EDA, size: 0x8, addend: 0x0, symName: __ZNSt3__1lsB8ne180100IcNS_11char_traitsIcEENS_9allocatorIcEEEERNS_13basic_ostreamIT_T0_EES9_RKNS_12basic_stringIS6_S7_T1_EE, symObjAddr: 0x110C, symBinAddr: 0x100004098, symSize: 0x4C }
  - { offset: 0x24F33, size: 0x8, addend: 0x0, symName: __ZNSt3__1neB8ne180100IPNS_10shared_ptrI8TreeNodeEEEEbRKNS_11__wrap_iterIT_EES9_, symObjAddr: 0x121C, symBinAddr: 0x1000041A8, symSize: 0x34 }
  - { offset: 0x26726, size: 0x8, addend: 0x0, symName: __ZNSt3__112__to_addressB8ne180100IKcEEPT_S3_, symObjAddr: 0x3368, symBinAddr: 0x1000062F4, symSize: 0x14 }
  - { offset: 0x26790, size: 0x8, addend: 0x0, symName: __ZNSt3__1eqB8ne180100IPNS_10shared_ptrI8TreeNodeEEEEbRKNS_11__wrap_iterIT_EES9_, symObjAddr: 0x47C0, symBinAddr: 0x10000774C, symSize: 0x48 }
  - { offset: 0x267D6, size: 0x8, addend: 0x0, symName: __ZNSt3__1neB8ne180100IPKcEEbRKNS_11__wrap_iterIT_EES7_, symObjAddr: 0x48C0, symBinAddr: 0x10000784C, symSize: 0x34 }
  - { offset: 0x2681C, size: 0x8, addend: 0x0, symName: __ZNSt3__1eqB8ne180100IPKcEEbRKNS_11__wrap_iterIT_EES7_, symObjAddr: 0x49B0, symBinAddr: 0x10000793C, symSize: 0x48 }
  - { offset: 0x26861, size: 0x8, addend: 0x0, symName: __ZNSt3__119__libcpp_deallocateB8ne180100EPvmm, symObjAddr: 0x514C, symBinAddr: 0x1000080D8, symSize: 0x60 }
  - { offset: 0x268C7, size: 0x8, addend: 0x0, symName: __ZNSt3__124__is_overaligned_for_newB8ne180100Em, symObjAddr: 0x51AC, symBinAddr: 0x100008138, symSize: 0x20 }
  - { offset: 0x268F5, size: 0x8, addend: 0x0, symName: __ZNSt3__127__do_deallocate_handle_sizeB8ne180100IJSt11align_val_tEEEvPvmDpT_, symObjAddr: 0x51CC, symBinAddr: 0x100008158, symSize: 0x30 }
  - { offset: 0x26948, size: 0x8, addend: 0x0, symName: __ZNSt3__127__do_deallocate_handle_sizeB8ne180100IJEEEvPvmDpT_, symObjAddr: 0x51FC, symBinAddr: 0x100008188, symSize: 0x28 }
  - { offset: 0x26986, size: 0x8, addend: 0x0, symName: __ZNSt3__124__libcpp_operator_deleteB8ne180100IJPvSt11align_val_tEEEvDpT_, symObjAddr: 0x5224, symBinAddr: 0x1000081B0, symSize: 0x2C }
  - { offset: 0x269CF, size: 0x8, addend: 0x0, symName: __ZNSt3__124__libcpp_operator_deleteB8ne180100IJPvEEEvDpT_, symObjAddr: 0x5250, symBinAddr: 0x1000081DC, symSize: 0x24 }
  - { offset: 0x26A38, size: 0x8, addend: 0x0, symName: __ZNSt3__118__constexpr_strlenB8ne180100EPKc, symObjAddr: 0x5424, symBinAddr: 0x1000083B0, symSize: 0x24 }
  - { offset: 0x26A66, size: 0x8, addend: 0x0, symName: __ZNSt3__14moveB8ne180100INS_11__wrap_iterIPN8nlohmann16json_abi_v3_11_210basic_jsonINS_3mapENS_6vectorENS_12basic_stringIcNS_11char_traitsIcEENS_9allocatorIcEEEEbxydSA_NS3_14adl_serializerENS6_IhNSA_IhEEEEEEEENS_20back_insert_iteratorINS6_ISG_NSA_ISG_EEEEEEEET0_T_SO_SN_, symObjAddr: 0x5C4C, symBinAddr: 0x100008BD8, symSize: 0x60 }
  - { offset: 0x26AC4, size: 0x8, addend: 0x0, symName: __ZNSt3__113back_inserterB8ne180100INS_6vectorIN8nlohmann16json_abi_v3_11_210basic_jsonINS_3mapES1_NS_12basic_stringIcNS_11char_traitsIcEENS_9allocatorIcEEEEbxydS9_NS3_14adl_serializerENS1_IhNS9_IhEEEEEENS9_ISF_EEEEEENS_20back_insert_iteratorIT_EERSJ_, symObjAddr: 0x5D0C, symBinAddr: 0x100008C98, symSize: 0x2C }
  - { offset: 0x26AFA, size: 0x8, addend: 0x0, symName: __ZNSt3__1neB8ne180100ERKNS_14__map_iteratorINS_15__tree_iteratorINS_12__value_typeINS_12basic_stringIcNS_11char_traitsIcEENS_9allocatorIcEEEEN8nlohmann16json_abi_v3_11_210basic_jsonINS_3mapENS_6vectorES8_bxydS6_NSA_14adl_serializerENSD_IhNS6_IhEEEEEEEEPNS_11__tree_nodeISI_PvEElEEEESQ_, symObjAddr: 0x5DD0, symBinAddr: 0x100008D5C, symSize: 0x30 }
  - { offset: 0x27315, size: 0x8, addend: 0x0, symName: __ZNSt3__13minB8ne180100ImEERKT_S3_S3_, symObjAddr: 0x6660, symBinAddr: 0x1000095EC, symSize: 0x2C }
  - { offset: 0x27545, size: 0x8, addend: 0x0, symName: __ZNSt3__13minB8ne180100ImNS_6__lessIvvEEEERKT_S5_S5_T0_, symObjAddr: 0x66EC, symBinAddr: 0x100009678, symSize: 0x54 }
  - { offset: 0x275E8, size: 0x8, addend: 0x0, symName: __ZNSt3__120__throw_length_errorB8ne180100EPKc, symObjAddr: 0x67C8, symBinAddr: 0x100009754, symSize: 0x64 }
  - { offset: 0x27612, size: 0x8, addend: 0x0, symName: __ZNSt3__119__allocate_at_leastB8ne180100INS_9allocatorIN8nlohmann16json_abi_v3_11_210basic_jsonINS_3mapENS_6vectorENS_12basic_stringIcNS_11char_traitsIcEENS1_IcEEEEbxydS1_NS3_14adl_serializerENS6_IhNS1_IhEEEEEEEEEENS_19__allocation_resultINS_16allocator_traitsIT_E7pointerEEERSJ_m, symObjAddr: 0x69EC, symBinAddr: 0x100009978, symSize: 0x40 }
  - { offset: 0x27657, size: 0x8, addend: 0x0, symName: __ZNSt3__117__libcpp_allocateB8ne180100Emm, symObjAddr: 0x6B70, symBinAddr: 0x100009AFC, symSize: 0x60 }
  - { offset: 0x276B2, size: 0x8, addend: 0x0, symName: __ZNSt3__121__libcpp_operator_newB8ne180100IJmSt11align_val_tEEEPvDpT_, symObjAddr: 0x6BD0, symBinAddr: 0x100009B5C, symSize: 0x2C }
  - { offset: 0x276FF, size: 0x8, addend: 0x0, symName: __ZNSt3__121__libcpp_operator_newB8ne180100IJmEEEPvDpT_, symObjAddr: 0x6BFC, symBinAddr: 0x100009B88, symSize: 0x24 }
  - { offset: 0x27738, size: 0x8, addend: 0x0, symName: __ZNSt3__142__uninitialized_allocator_move_if_noexceptB8ne180100INS_9allocatorIN8nlohmann16json_abi_v3_11_210basic_jsonINS_3mapENS_6vectorENS_12basic_stringIcNS_11char_traitsIcEENS1_IcEEEEbxydS1_NS3_14adl_serializerENS6_IhNS1_IhEEEEEEEENS_16reverse_iteratorIPSF_EESJ_SJ_EET2_RT_T0_T1_SK_, symObjAddr: 0x6CA8, symBinAddr: 0x100009C34, symSize: 0x12C }
  - { offset: 0x277D9, size: 0x8, addend: 0x0, symName: __ZNSt3__14swapB8ne180100IPN8nlohmann16json_abi_v3_11_210basic_jsonINS_3mapENS_6vectorENS_12basic_stringIcNS_11char_traitsIcEENS_9allocatorIcEEEEbxydS9_NS2_14adl_serializerENS5_IhNS9_IhEEEEEEEENS_9enable_ifIXaasr21is_move_constructibleIT_EE5valuesr18is_move_assignableISI_EE5valueEvE4typeERSI_SL_, symObjAddr: 0x6E20, symBinAddr: 0x100009DAC, symSize: 0x3C }
  - { offset: 0x2782E, size: 0x8, addend: 0x0, symName: __ZNSt3__122__make_exception_guardB8ne180100INS_29_AllocatorDestroyRangeReverseINS_9allocatorIN8nlohmann16json_abi_v3_11_210basic_jsonINS_3mapENS_6vectorENS_12basic_stringIcNS_11char_traitsIcEENS2_IcEEEEbxydS2_NS4_14adl_serializerENS7_IhNS2_IhEEEEEEEENS_16reverse_iteratorIPSG_EEEEEENS_28__exception_guard_exceptionsIT_EESN_, symObjAddr: 0x6E98, symBinAddr: 0x100009E24, symSize: 0x4C }
  - { offset: 0x27866, size: 0x8, addend: 0x0, symName: __ZNSt3__1neB8ne180100IPN8nlohmann16json_abi_v3_11_210basic_jsonINS_3mapENS_6vectorENS_12basic_stringIcNS_11char_traitsIcEENS_9allocatorIcEEEEbxydS9_NS2_14adl_serializerENS5_IhNS9_IhEEEEEESG_EEbRKNS_16reverse_iteratorIT_EERKNSH_IT0_EE, symObjAddr: 0x6F28, symBinAddr: 0x100009EB4, symSize: 0x48 }
  - { offset: 0x278B5, size: 0x8, addend: 0x0, symName: __ZNSt3__112__to_addressB8ne180100INS_16reverse_iteratorIPN8nlohmann16json_abi_v3_11_210basic_jsonINS_3mapENS_6vectorENS_12basic_stringIcNS_11char_traitsIcEENS_9allocatorIcEEEEbxydSA_NS3_14adl_serializerENS6_IhNSA_IhEEEEEEEEvEEu7__decayIDTclsr19__to_address_helperIT_EE6__callclsr3stdE7declvalIRKSJ_EEEEESL_, symObjAddr: 0x6FA4, symBinAddr: 0x100009F30, symSize: 0x24 }
  - { offset: 0x27916, size: 0x8, addend: 0x0, symName: __ZNSt3__112__to_addressB8ne180100IN8nlohmann16json_abi_v3_11_210basic_jsonINS_3mapENS_6vectorENS_12basic_stringIcNS_11char_traitsIcEENS_9allocatorIcEEEEbxydS9_NS2_14adl_serializerENS5_IhNS9_IhEEEEEEEEPT_SH_, symObjAddr: 0x715C, symBinAddr: 0x10000A0E8, symSize: 0x14 }
  - { offset: 0x2794C, size: 0x8, addend: 0x0, symName: __ZNSt3__119__allocator_destroyB8ne180100INS_9allocatorIN8nlohmann16json_abi_v3_11_210basic_jsonINS_3mapENS_6vectorENS_12basic_stringIcNS_11char_traitsIcEENS1_IcEEEEbxydS1_NS3_14adl_serializerENS6_IhNS1_IhEEEEEEEENS_16reverse_iteratorINSH_IPSF_EEEESK_EEvRT_T0_T1_, symObjAddr: 0x7298, symBinAddr: 0x10000A224, symSize: 0x70 }
  - { offset: 0x279B2, size: 0x8, addend: 0x0, symName: __ZNSt3__1neB8ne180100INS_16reverse_iteratorIPN8nlohmann16json_abi_v3_11_210basic_jsonINS_3mapENS_6vectorENS_12basic_stringIcNS_11char_traitsIcEENS_9allocatorIcEEEEbxydSA_NS3_14adl_serializerENS6_IhNSA_IhEEEEEEEESI_EEbRKNS1_IT_EERKNS1_IT0_EE, symObjAddr: 0x7344, symBinAddr: 0x10000A2D0, symSize: 0x60 }
  - { offset: 0x27A01, size: 0x8, addend: 0x0, symName: __ZNSt3__112__to_addressB8ne180100INS_16reverse_iteratorINS1_IPN8nlohmann16json_abi_v3_11_210basic_jsonINS_3mapENS_6vectorENS_12basic_stringIcNS_11char_traitsIcEENS_9allocatorIcEEEEbxydSA_NS3_14adl_serializerENS6_IhNSA_IhEEEEEEEEEEvEEu7__decayIDTclsr19__to_address_helperIT_EE6__callclsr3stdE7declvalIRKSK_EEEEESM_, symObjAddr: 0x73D0, symBinAddr: 0x10000A35C, symSize: 0x24 }
  - { offset: 0x27A62, size: 0x8, addend: 0x0, symName: __ZNSt3__16__moveB8ne180100INS_17_ClassicAlgPolicyENS_11__wrap_iterIPN8nlohmann16json_abi_v3_11_210basic_jsonINS_3mapENS_6vectorENS_12basic_stringIcNS_11char_traitsIcEENS_9allocatorIcEEEEbxydSB_NS4_14adl_serializerENS7_IhNSB_IhEEEEEEEESJ_NS_20back_insert_iteratorINS7_ISH_NSB_ISH_EEEEEEEENS_4pairIT0_T2_EESP_T1_SQ_, symObjAddr: 0x77F8, symBinAddr: 0x10000A784, symSize: 0x5C }
  - { offset: 0x27AD2, size: 0x8, addend: 0x0, symName: __ZNSt3__123__dispatch_copy_or_moveB8ne180100INS_17_ClassicAlgPolicyENS_11__move_loopIS1_EENS_14__move_trivialENS_11__wrap_iterIPN8nlohmann16json_abi_v3_11_210basic_jsonINS_3mapENS_6vectorENS_12basic_stringIcNS_11char_traitsIcEENS_9allocatorIcEEEEbxydSE_NS7_14adl_serializerENSA_IhNSE_IhEEEEEEEESM_NS_20back_insert_iteratorINSA_ISK_NSE_ISK_EEEEEEEENS_4pairIT2_T4_EESS_T3_ST_, symObjAddr: 0x7854, symBinAddr: 0x10000A7E0, symSize: 0x5C }
  - { offset: 0x27B54, size: 0x8, addend: 0x0, symName: __ZNSt3__121__unwrap_and_dispatchB8ne180100INS_10__overloadINS_11__move_loopINS_17_ClassicAlgPolicyEEENS_14__move_trivialEEENS_11__wrap_iterIPN8nlohmann16json_abi_v3_11_210basic_jsonINS_3mapENS_6vectorENS_12basic_stringIcNS_11char_traitsIcEENS_9allocatorIcEEEEbxydSG_NS9_14adl_serializerENSC_IhNSG_IhEEEEEEEESO_NS_20back_insert_iteratorINSC_ISM_NSG_ISM_EEEEEELi0EEENS_4pairIT0_T2_EESU_T1_SV_, symObjAddr: 0x78B0, symBinAddr: 0x10000A83C, symSize: 0xE8 }
  - { offset: 0x27BE9, size: 0x8, addend: 0x0, symName: __ZNSt3__114__unwrap_rangeB8ne180100INS_11__wrap_iterIPN8nlohmann16json_abi_v3_11_210basic_jsonINS_3mapENS_6vectorENS_12basic_stringIcNS_11char_traitsIcEENS_9allocatorIcEEEEbxydSA_NS3_14adl_serializerENS6_IhNSA_IhEEEEEEEESH_EENS_4pairIT0_SK_EET_SM_, symObjAddr: 0x7998, symBinAddr: 0x10000A924, symSize: 0x70 }
  - { offset: 0x27E24, size: 0x8, addend: 0x0, symName: __ZNSt3__113__unwrap_iterB8ne180100INS_20back_insert_iteratorINS_6vectorIN8nlohmann16json_abi_v3_11_210basic_jsonINS_3mapES2_NS_12basic_stringIcNS_11char_traitsIcEENS_9allocatorIcEEEEbxydSA_NS4_14adl_serializerENS2_IhNSA_IhEEEEEENSA_ISG_EEEEEENS_18__unwrap_iter_implISJ_Lb0EEELi0EEEDTclsrT0_8__unwrapclsr3stdE7declvalIT_EEEESN_, symObjAddr: 0x7AA0, symBinAddr: 0x10000AA2C, symSize: 0x34 }
  - { offset: 0x27E69, size: 0x8, addend: 0x0, symName: __ZNSt3__19make_pairB8ne180100INS_11__wrap_iterIPN8nlohmann16json_abi_v3_11_210basic_jsonINS_3mapENS_6vectorENS_12basic_stringIcNS_11char_traitsIcEENS_9allocatorIcEEEEbxydSA_NS3_14adl_serializerENS6_IhNSA_IhEEEEEEEENS_20back_insert_iteratorINS6_ISG_NSA_ISG_EEEEEEEENS_4pairINS_18__unwrap_ref_decayIT_E4typeENSO_IT0_E4typeEEEOSP_OSS_, symObjAddr: 0x7AD4, symBinAddr: 0x10000AA60, symSize: 0x38 }
  - { offset: 0x27EB9, size: 0x8, addend: 0x0, symName: __ZNSt3__114__rewrap_rangeB8ne180100INS_11__wrap_iterIPN8nlohmann16json_abi_v3_11_210basic_jsonINS_3mapENS_6vectorENS_12basic_stringIcNS_11char_traitsIcEENS_9allocatorIcEEEEbxydSA_NS3_14adl_serializerENS6_IhNSA_IhEEEEEEEESH_EET_SJ_T0_, symObjAddr: 0x7B0C, symBinAddr: 0x10000AA98, symSize: 0x3C }
  - { offset: 0x27F08, size: 0x8, addend: 0x0, symName: __ZNSt3__113__rewrap_iterB8ne180100INS_20back_insert_iteratorINS_6vectorIN8nlohmann16json_abi_v3_11_210basic_jsonINS_3mapES2_NS_12basic_stringIcNS_11char_traitsIcEENS_9allocatorIcEEEEbxydSA_NS4_14adl_serializerENS2_IhNSA_IhEEEEEENSA_ISG_EEEEEESJ_NS_18__unwrap_iter_implISJ_Lb0EEEEET_SM_T0_, symObjAddr: 0x7B48, symBinAddr: 0x10000AAD4, symSize: 0x54 }
  - { offset: 0x27F5F, size: 0x8, addend: 0x0, symName: __ZNSt3__19make_pairB8ne180100IPN8nlohmann16json_abi_v3_11_210basic_jsonINS_3mapENS_6vectorENS_12basic_stringIcNS_11char_traitsIcEENS_9allocatorIcEEEEbxydS9_NS2_14adl_serializerENS5_IhNS9_IhEEEEEESG_EENS_4pairINS_18__unwrap_ref_decayIT_E4typeENSI_IT0_E4typeEEEOSJ_OSM_, symObjAddr: 0x7B9C, symBinAddr: 0x10000AB28, symSize: 0x38 }
  - { offset: 0x27FAF, size: 0x8, addend: 0x0, symName: __ZNSt3__113__unwrap_iterB8ne180100INS_11__wrap_iterIPN8nlohmann16json_abi_v3_11_210basic_jsonINS_3mapENS_6vectorENS_12basic_stringIcNS_11char_traitsIcEENS_9allocatorIcEEEEbxydSA_NS3_14adl_serializerENS6_IhNSA_IhEEEEEEEENS_18__unwrap_iter_implISI_Lb1EEELi0EEEDTclsrT0_8__unwrapclsr3stdE7declvalIT_EEEESM_, symObjAddr: 0x7BD4, symBinAddr: 0x10000AB60, symSize: 0x2C }
  - { offset: 0x2811C, size: 0x8, addend: 0x0, symName: __ZNSt3__112__to_addressB8ne180100INS_11__wrap_iterIPN8nlohmann16json_abi_v3_11_210basic_jsonINS_3mapENS_6vectorENS_12basic_stringIcNS_11char_traitsIcEENS_9allocatorIcEEEEbxydSA_NS3_14adl_serializerENS6_IhNSA_IhEEEEEEEEvEEu7__decayIDTclsr19__to_address_helperIT_EE6__callclsr3stdE7declvalIRKSJ_EEEEESL_, symObjAddr: 0x7C98, symBinAddr: 0x10000AC24, symSize: 0x24 }
  - { offset: 0x282E2, size: 0x8, addend: 0x0, symName: __ZNSt3__19make_pairB8ne180100IPN8nlohmann16json_abi_v3_11_210basic_jsonINS_3mapENS_6vectorENS_12basic_stringIcNS_11char_traitsIcEENS_9allocatorIcEEEEbxydS9_NS2_14adl_serializerENS5_IhNS9_IhEEEEEENS_20back_insert_iteratorINS5_ISF_NS9_ISF_EEEEEEEENS_4pairINS_18__unwrap_ref_decayIT_E4typeENSM_IT0_E4typeEEEOSN_OSQ_, symObjAddr: 0x7DB8, symBinAddr: 0x10000AD44, symSize: 0x38 }
  - { offset: 0x2844E, size: 0x8, addend: 0x0, symName: __ZNSt3__113__rewrap_iterB8ne180100INS_11__wrap_iterIPN8nlohmann16json_abi_v3_11_210basic_jsonINS_3mapENS_6vectorENS_12basic_stringIcNS_11char_traitsIcEENS_9allocatorIcEEEEbxydSA_NS3_14adl_serializerENS6_IhNSA_IhEEEEEEEESH_NS_18__unwrap_iter_implISI_Lb1EEEEET_SL_T0_, symObjAddr: 0x7EF0, symBinAddr: 0x10000AE7C, symSize: 0x4C }
  - { offset: 0x284D8, size: 0x8, addend: 0x0, symName: __ZNSt3__1neB8ne180100ERKNS_15__tree_iteratorINS_12__value_typeINS_12basic_stringIcNS_11char_traitsIcEENS_9allocatorIcEEEEN8nlohmann16json_abi_v3_11_210basic_jsonINS_3mapENS_6vectorES7_bxydS5_NS9_14adl_serializerENSC_IhNS5_IhEEEEEEEEPNS_11__tree_nodeISH_PvEElEESO_, symObjAddr: 0x82F0, symBinAddr: 0x10000B27C, symSize: 0x34 }
  - { offset: 0x28515, size: 0x8, addend: 0x0, symName: __ZNSt3__1eqB8ne180100ERKNS_15__tree_iteratorINS_12__value_typeINS_12basic_stringIcNS_11char_traitsIcEENS_9allocatorIcEEEEN8nlohmann16json_abi_v3_11_210basic_jsonINS_3mapENS_6vectorES7_bxydS5_NS9_14adl_serializerENSC_IhNS5_IhEEEEEEEEPNS_11__tree_nodeISH_PvEElEESO_, symObjAddr: 0x8324, symBinAddr: 0x10000B2B0, symSize: 0x30 }
  - { offset: 0x28585, size: 0x8, addend: 0x0, symName: __ZNSt3__17launderB8ne180100INS_4pairIKNS_12basic_stringIcNS_11char_traitsIcEENS_9allocatorIcEEEEN8nlohmann16json_abi_v3_11_210basic_jsonINS_3mapENS_6vectorES7_bxydS5_NSA_14adl_serializerENSD_IhNS5_IhEEEEEEEEEEPT_SK_, symObjAddr: 0x83D0, symBinAddr: 0x10000B35C, symSize: 0x24 }
  - { offset: 0x285BC, size: 0x8, addend: 0x0, symName: __ZNSt3__19__launderB8ne180100INS_4pairIKNS_12basic_stringIcNS_11char_traitsIcEENS_9allocatorIcEEEEN8nlohmann16json_abi_v3_11_210basic_jsonINS_3mapENS_6vectorES7_bxydS5_NSA_14adl_serializerENSD_IhNS5_IhEEEEEEEEEEPT_SK_, symObjAddr: 0x83F4, symBinAddr: 0x10000B380, symSize: 0x14 }
  - { offset: 0x285F4, size: 0x8, addend: 0x0, symName: __ZNSt3__13maxB8ne180100ImEERKT_S3_S3_, symObjAddr: 0x8700, symBinAddr: 0x10000B68C, symSize: 0x2C }
  - { offset: 0x2863A, size: 0x8, addend: 0x0, symName: __ZNSt3__13maxB8ne180100ImNS_6__lessIvvEEEERKT_S5_S5_T0_, symObjAddr: 0x872C, symBinAddr: 0x10000B6B8, symSize: 0x54 }
  - { offset: 0x28698, size: 0x8, addend: 0x0, symName: __ZNSt3__116__tree_next_iterB8ne180100IPNS_15__tree_end_nodeIPNS_16__tree_node_baseIPvEEEES5_EET_T0_, symObjAddr: 0x87B8, symBinAddr: 0x10000B744, symSize: 0x90 }
  - { offset: 0x286D8, size: 0x8, addend: 0x0, symName: __ZNSt3__110__tree_minB8ne180100IPNS_16__tree_node_baseIPvEEEET_S5_, symObjAddr: 0x8848, symBinAddr: 0x10000B7D4, symSize: 0x40 }
  - { offset: 0x2870F, size: 0x8, addend: 0x0, symName: __ZNSt3__120__tree_is_left_childB8ne180100IPNS_16__tree_node_baseIPvEEEEbT_, symObjAddr: 0x8888, symBinAddr: 0x10000B814, symSize: 0x2C }
  - { offset: 0x28746, size: 0x8, addend: 0x0, symName: __ZNSt3__112__destroy_atB8ne180100INS_4pairIKNS_12basic_stringIcNS_11char_traitsIcEENS_9allocatorIcEEEEN8nlohmann16json_abi_v3_11_210basic_jsonINS_3mapENS_6vectorES7_bxydS5_NSA_14adl_serializerENSD_IhNS5_IhEEEEEEEELi0EEEvPT_, symObjAddr: 0x8CCC, symBinAddr: 0x10000BC58, symSize: 0x24 }
  - { offset: 0x2877F, size: 0x8, addend: 0x0, symName: __ZNSt3__112__to_addressB8ne180100IhEEPT_S2_, symObjAddr: 0x9588, symBinAddr: 0x10000C514, symSize: 0x14 }
  - { offset: 0x287B5, size: 0x8, addend: 0x0, symName: __ZNSt3__115allocate_sharedB8ne180100I8TreeNodeNS_9allocatorIS1_EEJRKNS_12basic_stringIcNS_11char_traitsIcEENS2_IcEEEERS8_SB_EvEENS_10shared_ptrIT_EERKT0_DpOT1_, symObjAddr: 0x96CC, symBinAddr: 0x10000C658, symSize: 0xA8 }
  - { offset: 0x28C28, size: 0x8, addend: 0x0, symName: __ZNSt3__112__to_addressB8ne180100INS_10shared_ptrI8TreeNodeEEEEPT_S5_, symObjAddr: 0xA5EC, symBinAddr: 0x10000D578, symSize: 0x14 }
  - { offset: 0x28C92, size: 0x8, addend: 0x0, symName: __ZNSt3__134__libcpp_atomic_refcount_decrementB8ne180100IlEET_RS1_, symObjAddr: 0xAA4C, symBinAddr: 0x10000D9D8, symSize: 0x30 }
  - { offset: 0x28CC9, size: 0x8, addend: 0x0, symName: __ZNSt3__134__libcpp_atomic_refcount_incrementB8ne180100IlEET_RS1_, symObjAddr: 0xAB8C, symBinAddr: 0x10000DB18, symSize: 0x30 }
  - { offset: 0x28D00, size: 0x8, addend: 0x0, symName: __ZNSt3__14swapB8ne180100IP8TreeNodeEENS_9enable_ifIXaasr21is_move_constructibleIT_EE5valuesr18is_move_assignableIS4_EE5valueEvE4typeERS4_S7_, symObjAddr: 0xABBC, symBinAddr: 0x10000DB48, symSize: 0x3C }
  - { offset: 0x28D55, size: 0x8, addend: 0x0, symName: __ZNSt3__14swapB8ne180100IPNS_19__shared_weak_countEEENS_9enable_ifIXaasr21is_move_constructibleIT_EE5valuesr18is_move_assignableIS4_EE5valueEvE4typeERS4_S7_, symObjAddr: 0xABF8, symBinAddr: 0x10000DB84, symSize: 0x3C }
  - { offset: 0x28DA9, size: 0x8, addend: 0x0, symName: __ZNSt3__1eqB8ne180100ERKNS_14__map_iteratorINS_15__tree_iteratorINS_12__value_typeINS_12basic_stringIcNS_11char_traitsIcEENS_9allocatorIcEEEEN8nlohmann16json_abi_v3_11_210basic_jsonINS_3mapENS_6vectorES8_bxydS6_NSA_14adl_serializerENSD_IhNS6_IhEEEEEEEEPNS_11__tree_nodeISI_PvEElEEEESQ_, symObjAddr: 0xB774, symBinAddr: 0x10000E700, symSize: 0x30 }
  - { offset: 0x28DE7, size: 0x8, addend: 0x0, symName: __ZNSt3__1eqB8ne180100IPN8nlohmann16json_abi_v3_11_210basic_jsonINS_3mapENS_6vectorENS_12basic_stringIcNS_11char_traitsIcEENS_9allocatorIcEEEEbxydS9_NS2_14adl_serializerENS5_IhNS9_IhEEEEEEEEbRKNS_11__wrap_iterIT_EESL_, symObjAddr: 0xB7A4, symBinAddr: 0x10000E730, symSize: 0x48 }
  - { offset: 0x28E2D, size: 0x8, addend: 0x0, symName: __ZNSt3__121__convert_to_integralB8ne180100Ei, symObjAddr: 0xBAA0, symBinAddr: 0x10000EA2C, symSize: 0x14 }
  - { offset: 0x28E5B, size: 0x8, addend: 0x0, symName: __ZNSt3__19__advanceB8ne180100INS_14__map_iteratorINS_15__tree_iteratorINS_12__value_typeINS_12basic_stringIcNS_11char_traitsIcEENS_9allocatorIcEEEEN8nlohmann16json_abi_v3_11_210basic_jsonINS_3mapENS_6vectorES9_bxydS7_NSB_14adl_serializerENSE_IhNS7_IhEEEEEEEEPNS_11__tree_nodeISJ_PvEElEEEEEEvRT_NS_15iterator_traitsISQ_E15difference_typeENS_26bidirectional_iterator_tagE, symObjAddr: 0xBAB4, symBinAddr: 0x10000EA40, symSize: 0xA4 }
  - { offset: 0x28EA8, size: 0x8, addend: 0x0, symName: __ZNSt3__116__tree_prev_iterB8ne180100IPNS_16__tree_node_baseIPvEEPNS_15__tree_end_nodeIS4_EEEET_T0_, symObjAddr: 0xBBBC, symBinAddr: 0x10000EB48, symSize: 0x88 }
  - { offset: 0x28EF7, size: 0x8, addend: 0x0, symName: __ZNSt3__110__tree_maxB8ne180100IPNS_16__tree_node_baseIPvEEEET_S5_, symObjAddr: 0xBC44, symBinAddr: 0x10000EBD0, symSize: 0x40 }
  - { offset: 0x28F2E, size: 0x8, addend: 0x0, symName: __ZNSt3__19__advanceB8ne180100INS_11__wrap_iterIPN8nlohmann16json_abi_v3_11_210basic_jsonINS_3mapENS_6vectorENS_12basic_stringIcNS_11char_traitsIcEENS_9allocatorIcEEEEbxydSA_NS3_14adl_serializerENS6_IhNSA_IhEEEEEEEEEEvRT_NS_15iterator_traitsISJ_E15difference_typeENS_26random_access_iterator_tagE, symObjAddr: 0xBC84, symBinAddr: 0x10000EC10, symSize: 0x2C }
  - { offset: 0x28FAE, size: 0x8, addend: 0x0, symName: __ZNSt3__1neB8ne180100IPN8nlohmann16json_abi_v3_11_210basic_jsonINS_3mapENS_6vectorENS_12basic_stringIcNS_11char_traitsIcEENS_9allocatorIcEEEEbxydS9_NS2_14adl_serializerENS5_IhNS9_IhEEEEEEEEbRKNS_11__wrap_iterIT_EESL_, symObjAddr: 0xC368, symBinAddr: 0x10000F2F4, symSize: 0x34 }
  - { offset: 0x28FF4, size: 0x8, addend: 0x0, symName: __ZNSt3__119__allocate_at_leastB8ne180100INS_9allocatorINS_10shared_ptrI8TreeNodeEEEEEENS_19__allocation_resultINS_16allocator_traitsIT_E7pointerEEERS8_m, symObjAddr: 0xCBD4, symBinAddr: 0x10000FB60, symSize: 0x40 }
  - { offset: 0x29039, size: 0x8, addend: 0x0, symName: __ZNSt3__142__uninitialized_allocator_move_if_noexceptB8ne180100INS_9allocatorINS_10shared_ptrI8TreeNodeEEEENS_16reverse_iteratorIPS4_EES8_S8_EET2_RT_T0_T1_S9_, symObjAddr: 0xCD88, symBinAddr: 0x10000FD14, symSize: 0x12C }
  - { offset: 0x290DA, size: 0x8, addend: 0x0, symName: __ZNSt3__14swapB8ne180100IPNS_10shared_ptrI8TreeNodeEEEENS_9enable_ifIXaasr21is_move_constructibleIT_EE5valuesr18is_move_assignableIS6_EE5valueEvE4typeERS6_S9_, symObjAddr: 0xCF00, symBinAddr: 0x10000FE8C, symSize: 0x3C }
  - { offset: 0x2912F, size: 0x8, addend: 0x0, symName: __ZNSt3__122__make_exception_guardB8ne180100INS_29_AllocatorDestroyRangeReverseINS_9allocatorINS_10shared_ptrI8TreeNodeEEEENS_16reverse_iteratorIPS5_EEEEEENS_28__exception_guard_exceptionsIT_EESC_, symObjAddr: 0xCF50, symBinAddr: 0x10000FEDC, symSize: 0x4C }
  - { offset: 0x29167, size: 0x8, addend: 0x0, symName: __ZNSt3__1neB8ne180100IPNS_10shared_ptrI8TreeNodeEES4_EEbRKNS_16reverse_iteratorIT_EERKNS5_IT0_EE, symObjAddr: 0xCFE0, symBinAddr: 0x10000FF6C, symSize: 0x48 }
  - { offset: 0x291B6, size: 0x8, addend: 0x0, symName: __ZNSt3__112__to_addressB8ne180100INS_16reverse_iteratorIPNS_10shared_ptrI8TreeNodeEEEEvEEu7__decayIDTclsr19__to_address_helperIT_EE6__callclsr3stdE7declvalIRKS7_EEEEES9_, symObjAddr: 0xD028, symBinAddr: 0x10000FFB4, symSize: 0x24 }
  - { offset: 0x29216, size: 0x8, addend: 0x0, symName: __ZNSt3__119__allocator_destroyB8ne180100INS_9allocatorINS_10shared_ptrI8TreeNodeEEEENS_16reverse_iteratorINS6_IPS4_EEEES9_EEvRT_T0_T1_, symObjAddr: 0xD2D8, symBinAddr: 0x100010264, symSize: 0x70 }
  - { offset: 0x2927C, size: 0x8, addend: 0x0, symName: __ZNSt3__1neB8ne180100INS_16reverse_iteratorIPNS_10shared_ptrI8TreeNodeEEEES6_EEbRKNS1_IT_EERKNS1_IT0_EE, symObjAddr: 0xD384, symBinAddr: 0x100010310, symSize: 0x60 }
  - { offset: 0x292CB, size: 0x8, addend: 0x0, symName: __ZNSt3__112__to_addressB8ne180100INS_16reverse_iteratorINS1_IPNS_10shared_ptrI8TreeNodeEEEEEEvEEu7__decayIDTclsr19__to_address_helperIT_EE6__callclsr3stdE7declvalIRKS8_EEEEESA_, symObjAddr: 0xD3E4, symBinAddr: 0x100010370, symSize: 0x24 }
  - { offset: 0x2932B, size: 0x8, addend: 0x0, symName: __ZNSt3__116__pad_and_outputB8ne180100IcNS_11char_traitsIcEEEENS_19ostreambuf_iteratorIT_T0_EES6_PKS4_S8_S8_RNS_8ios_baseES4_, symObjAddr: 0xDBAC, symBinAddr: 0x100010B38, symSize: 0x240 }
  - { offset: 0x293FC, size: 0x8, addend: 0x0, symName: __ZNSt3__112__to_addressB8ne180100IcEEPT_S2_, symObjAddr: 0xE01C, symBinAddr: 0x100010FA8, symSize: 0x14 }
  - { offset: 0x29433, size: 0x8, addend: 0x0, symName: __ZNSt3__19use_facetB8ne180100INS_5ctypeIcEEEERKT_RKNS_6localeE, symObjAddr: 0xE1C8, symBinAddr: 0x100011154, symSize: 0x2C }
  - { offset: 0x29901, size: 0x8, addend: 0x0, symName: __ZNSt3__1neB8ne180100ERKNS_21__hash_const_iteratorIPNS_11__hash_nodeINS_17__hash_value_typeIPK8TreeNodeNS_12basic_stringIcNS_11char_traitsIcEENS_9allocatorIcEEEEEEPvEEEESI_, symObjAddr: 0xE348, symBinAddr: 0x1000112D4, symSize: 0x34 }
  - { offset: 0x2993E, size: 0x8, addend: 0x0, symName: __ZNSt3__1eqB8ne180100ERKNS_21__hash_const_iteratorIPNS_11__hash_nodeINS_17__hash_value_typeIPK8TreeNodeNS_12basic_stringIcNS_11char_traitsIcEENS_9allocatorIcEEEEEEPvEEEESI_, symObjAddr: 0xE560, symBinAddr: 0x1000114EC, symSize: 0x30 }
  - { offset: 0x2997C, size: 0x8, addend: 0x0, symName: __ZNSt3__116__constrain_hashB8ne180100Emm, symObjAddr: 0xE610, symBinAddr: 0x10001159C, symSize: 0x98 }
  - { offset: 0x299B9, size: 0x8, addend: 0x0, symName: __ZNSt3__110__loadwordB8ne180100ImEET_PKv, symObjAddr: 0xF214, symBinAddr: 0x1000121A0, symSize: 0x20 }
  - { offset: 0x299FF, size: 0x8, addend: 0x0, symName: __ZNSt3__14swapB8ne180100ImEENS_9enable_ifIXaasr21is_move_constructibleIT_EE5valuesr18is_move_assignableIS2_EE5valueEvE4typeERS2_S5_, symObjAddr: 0xF3D0, symBinAddr: 0x10001235C, symSize: 0x3C }
  - { offset: 0x29A54, size: 0x8, addend: 0x0, symName: __ZNSt3__110__loadwordB8ne180100IjEET_PKv, symObjAddr: 0xF460, symBinAddr: 0x1000123EC, symSize: 0x20 }
  - { offset: 0x29A99, size: 0x8, addend: 0x0, symName: __ZNSt3__17launderB8ne180100IKNS_4pairIKPK8TreeNodeNS_12basic_stringIcNS_11char_traitsIcEENS_9allocatorIcEEEEEEEEPT_SF_, symObjAddr: 0xF73C, symBinAddr: 0x1000126C8, symSize: 0x24 }
  - { offset: 0x29AD0, size: 0x8, addend: 0x0, symName: __ZNSt3__19__launderB8ne180100IKNS_4pairIKPK8TreeNodeNS_12basic_stringIcNS_11char_traitsIcEENS_9allocatorIcEEEEEEEEPT_SF_, symObjAddr: 0xF760, symBinAddr: 0x1000126EC, symSize: 0x14 }
  - { offset: 0x29B71, size: 0x8, addend: 0x0, symName: __ZNSt3__116forward_as_tupleB8ne180100IJRKPK8TreeNodeEEENS_5tupleIJDpOT_EEES9_, symObjAddr: 0xFC60, symBinAddr: 0x100012BEC, symSize: 0x2C }
  - { offset: 0x29BAA, size: 0x8, addend: 0x0, symName: __ZNSt3__116forward_as_tupleB8ne180100IJEEENS_5tupleIJDpOT_EEES4_, symObjAddr: 0xFC8C, symBinAddr: 0x100012C18, symSize: 0x4 }
  - { offset: 0x29BCF, size: 0x8, addend: 0x0, symName: __ZNSt3__116__is_hash_power2B8ne180100Em, symObjAddr: 0xFEFC, symBinAddr: 0x100012E88, symSize: 0x50 }
  - { offset: 0x29C02, size: 0x8, addend: 0x0, symName: __ZNSt3__16__math4ceilB8ne180100Ef, symObjAddr: 0xFF4C, symBinAddr: 0x100012ED8, symSize: 0x18 }
  - { offset: 0x29C30, size: 0x8, addend: 0x0, symName: __ZNSt3__16__math8isfiniteB8ne180100IdLi0EEEbT_, symObjAddr: 0x1EEF4, symBinAddr: 0x100021E80, symSize: 0x24 }
  - { offset: 0x29CD0, size: 0x8, addend: 0x0, symName: __ZNSt3__114__construct_atB8ne180100INS_11__hash_nodeINS_17__hash_value_typeIPK8TreeNodeNS_12basic_stringIcNS_11char_traitsIcEENS_9allocatorIcEEEEEEPvEEJDnRmEPSE_EEPT_SI_DpOT0_, symObjAddr: 0x10224, symBinAddr: 0x1000131B0, symSize: 0x40 }
  - { offset: 0x29D45, size: 0x8, addend: 0x0, symName: __ZNSt3__13getB8ne180100ILm0EJRKPK8TreeNodeEEERNS_13tuple_elementIXT_ENS_5tupleIJDpT0_EEEE4typeERSA_, symObjAddr: 0x10718, symBinAddr: 0x1000136A4, symSize: 0x24 }
  - { offset: 0x29D89, size: 0x8, addend: 0x0, symName: __ZNSt3__116__next_hash_pow2B8ne180100Em, symObjAddr: 0x10C1C, symBinAddr: 0x100013BA8, symSize: 0x6C }
  - { offset: 0x29DB7, size: 0x8, addend: 0x0, symName: __ZNSt3__112__libcpp_clzB8ne180100Em, symObjAddr: 0x10FC4, symBinAddr: 0x100013F50, symSize: 0x1C }
  - { offset: 0x29DE5, size: 0x8, addend: 0x0, symName: __ZNSt3__112__destroy_atB8ne180100INS_11__hash_nodeINS_17__hash_value_typeIPK8TreeNodeNS_12basic_stringIcNS_11char_traitsIcEENS_9allocatorIcEEEEEEPvEELi0EEEvPT_, symObjAddr: 0x111A0, symBinAddr: 0x10001412C, symSize: 0x24 }
  - { offset: 0x29E1E, size: 0x8, addend: 0x0, symName: __ZNSt3__112__destroy_atB8ne180100INS_4pairIKPK8TreeNodeNS_12basic_stringIcNS_11char_traitsIcEENS_9allocatorIcEEEEEELi0EEEvPT_, symObjAddr: 0x111F8, symBinAddr: 0x100014184, symSize: 0x24 }
  - { offset: 0x29EAD, size: 0x8, addend: 0x0, symName: __ZNSt3__17launderB8ne180100INS_4pairIKPK8TreeNodeNS_12basic_stringIcNS_11char_traitsIcEENS_9allocatorIcEEEEEEEEPT_SE_, symObjAddr: 0x11458, symBinAddr: 0x1000143E4, symSize: 0x24 }
  - { offset: 0x29EE4, size: 0x8, addend: 0x0, symName: __ZNSt3__19__launderB8ne180100INS_4pairIKPK8TreeNodeNS_12basic_stringIcNS_11char_traitsIcEENS_9allocatorIcEEEEEEEEPT_SE_, symObjAddr: 0x1147C, symBinAddr: 0x100014408, symSize: 0x14 }
  - { offset: 0x2A312, size: 0x8, addend: 0x0, symName: __ZNSt3__1neB8ne180100INS_3mapINS_12basic_stringIcNS_11char_traitsIcEENS_9allocatorIcEEEEN8nlohmann16json_abi_v3_11_210basic_jsonIS1_NS_6vectorES7_bxydS5_NS9_14adl_serializerENSB_IhNS5_IhEEEEEENS_4lessIvEENS5_INS_4pairIKS7_SF_EEEEEEZNSF_6createISM_JEEEPT_DpOT0_EUlPSM_E_EEbRKNS_10unique_ptrISO_T0_EEDn, symObjAddr: 0x1282C, symBinAddr: 0x1000157B8, symSize: 0x2C }
  - { offset: 0x2A754, size: 0x8, addend: 0x0, symName: __ZNSt3__1neB8ne180100INS_6vectorIN8nlohmann16json_abi_v3_11_210basic_jsonINS_3mapES1_NS_12basic_stringIcNS_11char_traitsIcEENS_9allocatorIcEEEEbxydS9_NS3_14adl_serializerENS1_IhNS9_IhEEEEEENS9_ISF_EEEEZNSF_6createISH_JEEEPT_DpOT0_EUlPSH_E_EEbRKNS_10unique_ptrISJ_T0_EEDn, symObjAddr: 0x1304C, symBinAddr: 0x100015FD8, symSize: 0x2C }
  - { offset: 0x2AAE2, size: 0x8, addend: 0x0, symName: __ZNSt3__1neB8ne180100INS_12basic_stringIcNS_11char_traitsIcEENS_9allocatorIcEEEEZN8nlohmann16json_abi_v3_11_210basic_jsonINS_3mapENS_6vectorES6_bxydS4_NS8_14adl_serializerENSB_IhNS4_IhEEEEE6createIS6_JRA1_KcEEEPT_DpOT0_EUlPS6_E_EEbRKNS_10unique_ptrISK_T0_EEDn, symObjAddr: 0x13544, symBinAddr: 0x1000164D0, symSize: 0x2C }
  - { offset: 0x2AF24, size: 0x8, addend: 0x0, symName: __ZNSt3__1neB8ne180100IN8nlohmann16json_abi_v3_11_227byte_container_with_subtypeINS_6vectorIhNS_9allocatorIhEEEEEEZNS2_10basic_jsonINS_3mapES4_NS_12basic_stringIcNS_11char_traitsIcEENS5_IcEEEEbxydS5_NS2_14adl_serializerES7_E6createIS8_JEEEPT_DpOT0_EUlPS8_E_EEbRKNS_10unique_ptrISJ_T0_EEDn, symObjAddr: 0x13A3C, symBinAddr: 0x1000169C8, symSize: 0x2C }
  - { offset: 0x2B4FE, size: 0x8, addend: 0x0, symName: __ZNSt3__119__allocate_at_leastB8ne180100INS_9allocatorIcEEEENS_19__allocation_resultINS_16allocator_traitsIT_E7pointerEEERS5_m, symObjAddr: 0x17CF0, symBinAddr: 0x10001AC7C, symSize: 0x40 }
  - { offset: 0x2B543, size: 0x8, addend: 0x0, symName: __ZNSt3__142__uninitialized_allocator_move_if_noexceptB8ne180100INS_9allocatorIcEENS_16reverse_iteratorIPcEES5_cvEET1_RT_T0_S9_S6_, symObjAddr: 0x17EB4, symBinAddr: 0x10001AE40, symSize: 0x78 }
  - { offset: 0x2B5C1, size: 0x8, addend: 0x0, symName: __ZNSt3__14swapB8ne180100IPcEENS_9enable_ifIXaasr21is_move_constructibleIT_EE5valuesr18is_move_assignableIS3_EE5valueEvE4typeERS3_S6_, symObjAddr: 0x17F78, symBinAddr: 0x10001AF04, symSize: 0x3C }
  - { offset: 0x2B616, size: 0x8, addend: 0x0, symName: __ZNSt3__14moveB8ne180100INS_16reverse_iteratorIPcEES3_EET0_T_S5_S4_, symObjAddr: 0x17FC8, symBinAddr: 0x10001AF54, symSize: 0x78 }
  - { offset: 0x2B674, size: 0x8, addend: 0x0, symName: __ZNSt3__16__moveB8ne180100INS_17_ClassicAlgPolicyENS_16reverse_iteratorIPcEES4_S4_EENS_4pairIT0_T2_EES6_T1_S7_, symObjAddr: 0x18040, symBinAddr: 0x10001AFCC, symSize: 0x64 }
  - { offset: 0x2B6E4, size: 0x8, addend: 0x0, symName: __ZNSt3__123__dispatch_copy_or_moveB8ne180100INS_17_ClassicAlgPolicyENS_11__move_loopIS1_EENS_14__move_trivialENS_16reverse_iteratorIPcEES7_S7_EENS_4pairIT2_T4_EES9_T3_SA_, symObjAddr: 0x180A4, symBinAddr: 0x10001B030, symSize: 0x64 }
  - { offset: 0x2B766, size: 0x8, addend: 0x0, symName: __ZNSt3__121__unwrap_and_dispatchB8ne180100INS_10__overloadINS_11__move_loopINS_17_ClassicAlgPolicyEEENS_14__move_trivialEEENS_16reverse_iteratorIPcEES9_S9_Li0EEENS_4pairIT0_T2_EESB_T1_SC_, symObjAddr: 0x18108, symBinAddr: 0x10001B094, symSize: 0x12C }
  - { offset: 0x2B7FC, size: 0x8, addend: 0x0, symName: __ZNSt3__114__unwrap_rangeB8ne180100INS_16reverse_iteratorIPcEES3_EENS_4pairIT0_S5_EET_S7_, symObjAddr: 0x18234, symBinAddr: 0x10001B1C0, symSize: 0x84 }
  - { offset: 0x2B91F, size: 0x8, addend: 0x0, symName: __ZNSt3__113__unwrap_iterB8ne180100INS_16reverse_iteratorIPcEENS_18__unwrap_iter_implIS3_Lb0EEELi0EEEDTclsrT0_8__unwrapclsr3stdE7declvalIT_EEEES7_, symObjAddr: 0x18358, symBinAddr: 0x10001B2E4, symSize: 0x44 }
  - { offset: 0x2B964, size: 0x8, addend: 0x0, symName: __ZNSt3__19make_pairB8ne180100INS_16reverse_iteratorIPcEES3_EENS_4pairINS_18__unwrap_ref_decayIT_E4typeENS5_IT0_E4typeEEEOS6_OS9_, symObjAddr: 0x1839C, symBinAddr: 0x10001B328, symSize: 0x38 }
  - { offset: 0x2B9B4, size: 0x8, addend: 0x0, symName: __ZNSt3__114__rewrap_rangeB8ne180100INS_16reverse_iteratorIPcEES3_EET_S4_T0_, symObjAddr: 0x183D4, symBinAddr: 0x10001B360, symSize: 0x5C }
  - { offset: 0x2BA03, size: 0x8, addend: 0x0, symName: __ZNSt3__113__rewrap_iterB8ne180100INS_16reverse_iteratorIPcEES3_NS_18__unwrap_iter_implIS3_Lb0EEEEET_S6_T0_, symObjAddr: 0x18430, symBinAddr: 0x10001B3BC, symSize: 0x74 }
  - { offset: 0x2BA5B, size: 0x8, addend: 0x0, symName: __ZNSt3__1neB8ne180100IPcS1_EEbRKNS_16reverse_iteratorIT_EERKNS2_IT0_EE, symObjAddr: 0x184A4, symBinAddr: 0x10001B430, symSize: 0x48 }
  - { offset: 0x2BAFD, size: 0x8, addend: 0x0, symName: __ZNSt3__119__allocate_at_leastB8ne180100INS_9allocatorImEEEENS_19__allocation_resultINS_16allocator_traitsIT_E7pointerEEERS5_m, symObjAddr: 0x1D3F4, symBinAddr: 0x100020380, symSize: 0x40 }
  - { offset: 0x2BB43, size: 0x8, addend: 0x0, symName: __ZNSt3__16__copyB8ne180100INS_17_ClassicAlgPolicyENS_14__bit_iteratorINS_6vectorIbNS_9allocatorIbEEEELb0ELm0EEES7_S7_EENS_4pairIT0_T2_EES9_T1_SA_, symObjAddr: 0x1D55C, symBinAddr: 0x1000204E8, symSize: 0x88 }
  - { offset: 0x2BBB6, size: 0x8, addend: 0x0, symName: __ZNSt3__123__dispatch_copy_or_moveB8ne180100INS_17_ClassicAlgPolicyENS_11__copy_loopIS1_EENS_14__copy_trivialENS_14__bit_iteratorINS_6vectorIbNS_9allocatorIbEEEELb0ELm0EEESA_SA_EENS_4pairIT2_T4_EESC_T3_SD_, symObjAddr: 0x1D67C, symBinAddr: 0x100020608, symSize: 0x88 }
  - { offset: 0x2BC3B, size: 0x8, addend: 0x0, symName: __ZNSt3__121__unwrap_and_dispatchB8ne180100INS_10__overloadINS_11__copy_loopINS_17_ClassicAlgPolicyEEENS_14__copy_trivialEEENS_14__bit_iteratorINS_6vectorIbNS_9allocatorIbEEEELb0ELm0EEESC_SC_Li0EEENS_4pairIT0_T2_EESE_T1_SF_, symObjAddr: 0x1D704, symBinAddr: 0x100020690, symSize: 0x15C }
  - { offset: 0x2BCD4, size: 0x8, addend: 0x0, symName: __ZNSt3__114__unwrap_rangeB8ne180100INS_14__bit_iteratorINS_6vectorIbNS_9allocatorIbEEEELb0ELm0EEES6_EENS_4pairIT0_S8_EET_SA_, symObjAddr: 0x1D860, symBinAddr: 0x1000207EC, symSize: 0x8C }
  - { offset: 0x2BE4B, size: 0x8, addend: 0x0, symName: __ZNSt3__113__unwrap_iterB8ne180100INS_14__bit_iteratorINS_6vectorIbNS_9allocatorIbEEEELb0ELm0EEENS_18__unwrap_iter_implIS6_Lb0EEELi0EEEDTclsrT0_8__unwrapclsr3stdE7declvalIT_EEEESA_, symObjAddr: 0x1D9A4, symBinAddr: 0x100020930, symSize: 0x44 }
  - { offset: 0x2BE91, size: 0x8, addend: 0x0, symName: __ZNSt3__19make_pairB8ne180100INS_14__bit_iteratorINS_6vectorIbNS_9allocatorIbEEEELb0ELm0EEES6_EENS_4pairINS_18__unwrap_ref_decayIT_E4typeENS8_IT0_E4typeEEEOS9_OSC_, symObjAddr: 0x1D9E8, symBinAddr: 0x100020974, symSize: 0x40 }
  - { offset: 0x2BEE1, size: 0x8, addend: 0x0, symName: __ZNSt3__114__rewrap_rangeB8ne180100INS_14__bit_iteratorINS_6vectorIbNS_9allocatorIbEEEELb0ELm0EEES6_EET_S7_T0_, symObjAddr: 0x1DA28, symBinAddr: 0x1000209B4, symSize: 0x6C }
  - { offset: 0x2BF32, size: 0x8, addend: 0x0, symName: __ZNSt3__113__rewrap_iterB8ne180100INS_14__bit_iteratorINS_6vectorIbNS_9allocatorIbEEEELb0ELm0EEES6_NS_18__unwrap_iter_implIS6_Lb0EEEEET_S9_T0_, symObjAddr: 0x1DA94, symBinAddr: 0x100020A20, symSize: 0x74 }
  - { offset: 0x2BF8B, size: 0x8, addend: 0x0, symName: __ZNSt3__1neB8ne180100ERKNS_14__bit_iteratorINS_6vectorIbNS_9allocatorIbEEEELb0ELm0EEES7_, symObjAddr: 0x1DB08, symBinAddr: 0x100020A94, symSize: 0x34 }
  - { offset: 0x2BFC8, size: 0x8, addend: 0x0, symName: __ZNSt3__1eqB8ne180100ERKNS_14__bit_iteratorINS_6vectorIbNS_9allocatorIbEEEELb0ELm0EEES7_, symObjAddr: 0x1DC1C, symBinAddr: 0x100020BA8, symSize: 0x64 }
  - { offset: 0x2C04E, size: 0x8, addend: 0x0, symName: __ZNSt3__14swapB8ne180100IPmEENS_9enable_ifIXaasr21is_move_constructibleIT_EE5valuesr18is_move_assignableIS3_EE5valueEvE4typeERS3_S6_, symObjAddr: 0x1DEA4, symBinAddr: 0x100020E30, symSize: 0x3C }
  - { offset: 0x2C0A3, size: 0x8, addend: 0x0, symName: __ZNSt3__116__swap_allocatorB8ne180100INS_9allocatorImEEEEvRT_S4_NS_17integral_constantIbLb0EEE, symObjAddr: 0x1DEE0, symBinAddr: 0x100020E6C, symSize: 0x14 }
  - { offset: 0x2C0E8, size: 0x8, addend: 0x0, symName: __ZNSt3__112__to_addressB8ne180100IPN8nlohmann16json_abi_v3_11_210basic_jsonINS_3mapENS_6vectorENS_12basic_stringIcNS_11char_traitsIcEENS_9allocatorIcEEEEbxydS9_NS2_14adl_serializerENS5_IhNS9_IhEEEEEEEEPT_SI_, symObjAddr: 0x1E3AC, symBinAddr: 0x100021338, symSize: 0x14 }
  - { offset: 0x2C251, size: 0x8, addend: 0x0, symName: __ZNSt3__125__throw_bad_function_callB8ne180100Ev, symObjAddr: 0x1FD3C, symBinAddr: 0x100022CC8, symSize: 0x38 }
  - { offset: 0x2C2D2, size: 0x8, addend: 0x0, symName: __ZNSt3__119__allocate_at_leastB8ne180100INS_9allocatorIPN8nlohmann16json_abi_v3_11_210basic_jsonINS_3mapENS_6vectorENS_12basic_stringIcNS_11char_traitsIcEENS1_IcEEEEbxydS1_NS3_14adl_serializerENS6_IhNS1_IhEEEEEEEEEENS_19__allocation_resultINS_16allocator_traitsIT_E7pointerEEERSK_m, symObjAddr: 0x208B8, symBinAddr: 0x100023844, symSize: 0x40 }
  - { offset: 0x2C317, size: 0x8, addend: 0x0, symName: __ZNSt3__142__uninitialized_allocator_move_if_noexceptB8ne180100INS_9allocatorIPN8nlohmann16json_abi_v3_11_210basic_jsonINS_3mapENS_6vectorENS_12basic_stringIcNS_11char_traitsIcEENS1_IcEEEEbxydS1_NS3_14adl_serializerENS6_IhNS1_IhEEEEEEEENS_16reverse_iteratorIPSG_EESK_SG_vEET1_RT_T0_SO_SL_, symObjAddr: 0x20A6C, symBinAddr: 0x1000239F8, symSize: 0x78 }
  - { offset: 0x2C395, size: 0x8, addend: 0x0, symName: __ZNSt3__14swapB8ne180100IPPN8nlohmann16json_abi_v3_11_210basic_jsonINS_3mapENS_6vectorENS_12basic_stringIcNS_11char_traitsIcEENS_9allocatorIcEEEEbxydS9_NS2_14adl_serializerENS5_IhNS9_IhEEEEEEEENS_9enable_ifIXaasr21is_move_constructibleIT_EE5valuesr18is_move_assignableISJ_EE5valueEvE4typeERSJ_SM_, symObjAddr: 0x20B30, symBinAddr: 0x100023ABC, symSize: 0x3C }
  - { offset: 0x2C3EA, size: 0x8, addend: 0x0, symName: __ZNSt3__14moveB8ne180100INS_16reverse_iteratorIPPN8nlohmann16json_abi_v3_11_210basic_jsonINS_3mapENS_6vectorENS_12basic_stringIcNS_11char_traitsIcEENS_9allocatorIcEEEEbxydSA_NS3_14adl_serializerENS6_IhNSA_IhEEEEEEEESJ_EET0_T_SL_SK_, symObjAddr: 0x20B80, symBinAddr: 0x100023B0C, symSize: 0x78 }
  - { offset: 0x2C448, size: 0x8, addend: 0x0, symName: __ZNSt3__16__moveB8ne180100INS_17_ClassicAlgPolicyENS_16reverse_iteratorIPPN8nlohmann16json_abi_v3_11_210basic_jsonINS_3mapENS_6vectorENS_12basic_stringIcNS_11char_traitsIcEENS_9allocatorIcEEEEbxydSB_NS4_14adl_serializerENS7_IhNSB_IhEEEEEEEESK_SK_EENS_4pairIT0_T2_EESM_T1_SN_, symObjAddr: 0x20BF8, symBinAddr: 0x100023B84, symSize: 0x64 }
  - { offset: 0x2C4B8, size: 0x8, addend: 0x0, symName: __ZNSt3__123__dispatch_copy_or_moveB8ne180100INS_17_ClassicAlgPolicyENS_11__move_loopIS1_EENS_14__move_trivialENS_16reverse_iteratorIPPN8nlohmann16json_abi_v3_11_210basic_jsonINS_3mapENS_6vectorENS_12basic_stringIcNS_11char_traitsIcEENS_9allocatorIcEEEEbxydSE_NS7_14adl_serializerENSA_IhNSE_IhEEEEEEEESN_SN_EENS_4pairIT2_T4_EESP_T3_SQ_, symObjAddr: 0x20C5C, symBinAddr: 0x100023BE8, symSize: 0x64 }
  - { offset: 0x2C53A, size: 0x8, addend: 0x0, symName: __ZNSt3__121__unwrap_and_dispatchB8ne180100INS_10__overloadINS_11__move_loopINS_17_ClassicAlgPolicyEEENS_14__move_trivialEEENS_16reverse_iteratorIPPN8nlohmann16json_abi_v3_11_210basic_jsonINS_3mapENS_6vectorENS_12basic_stringIcNS_11char_traitsIcEENS_9allocatorIcEEEEbxydSG_NS9_14adl_serializerENSC_IhNSG_IhEEEEEEEESP_SP_Li0EEENS_4pairIT0_T2_EESR_T1_SS_, symObjAddr: 0x20CC0, symBinAddr: 0x100023C4C, symSize: 0x12C }
  - { offset: 0x2C5D0, size: 0x8, addend: 0x0, symName: __ZNSt3__114__unwrap_rangeB8ne180100INS_16reverse_iteratorIPPN8nlohmann16json_abi_v3_11_210basic_jsonINS_3mapENS_6vectorENS_12basic_stringIcNS_11char_traitsIcEENS_9allocatorIcEEEEbxydSA_NS3_14adl_serializerENS6_IhNSA_IhEEEEEEEESJ_EENS_4pairIT0_SL_EET_SN_, symObjAddr: 0x20DEC, symBinAddr: 0x100023D78, symSize: 0x84 }
  - { offset: 0x2C6F3, size: 0x8, addend: 0x0, symName: __ZNSt3__113__unwrap_iterB8ne180100INS_16reverse_iteratorIPPN8nlohmann16json_abi_v3_11_210basic_jsonINS_3mapENS_6vectorENS_12basic_stringIcNS_11char_traitsIcEENS_9allocatorIcEEEEbxydSA_NS3_14adl_serializerENS6_IhNSA_IhEEEEEEEENS_18__unwrap_iter_implISJ_Lb0EEELi0EEEDTclsrT0_8__unwrapclsr3stdE7declvalIT_EEEESN_, symObjAddr: 0x20F10, symBinAddr: 0x100023E9C, symSize: 0x44 }
  - { offset: 0x2C738, size: 0x8, addend: 0x0, symName: __ZNSt3__19make_pairB8ne180100INS_16reverse_iteratorIPPN8nlohmann16json_abi_v3_11_210basic_jsonINS_3mapENS_6vectorENS_12basic_stringIcNS_11char_traitsIcEENS_9allocatorIcEEEEbxydSA_NS3_14adl_serializerENS6_IhNSA_IhEEEEEEEESJ_EENS_4pairINS_18__unwrap_ref_decayIT_E4typeENSL_IT0_E4typeEEEOSM_OSP_, symObjAddr: 0x20F54, symBinAddr: 0x100023EE0, symSize: 0x38 }
  - { offset: 0x2C788, size: 0x8, addend: 0x0, symName: __ZNSt3__114__rewrap_rangeB8ne180100INS_16reverse_iteratorIPPN8nlohmann16json_abi_v3_11_210basic_jsonINS_3mapENS_6vectorENS_12basic_stringIcNS_11char_traitsIcEENS_9allocatorIcEEEEbxydSA_NS3_14adl_serializerENS6_IhNSA_IhEEEEEEEESJ_EET_SK_T0_, symObjAddr: 0x20F8C, symBinAddr: 0x100023F18, symSize: 0x5C }
  - { offset: 0x2C7D7, size: 0x8, addend: 0x0, symName: __ZNSt3__113__rewrap_iterB8ne180100INS_16reverse_iteratorIPPN8nlohmann16json_abi_v3_11_210basic_jsonINS_3mapENS_6vectorENS_12basic_stringIcNS_11char_traitsIcEENS_9allocatorIcEEEEbxydSA_NS3_14adl_serializerENS6_IhNSA_IhEEEEEEEESJ_NS_18__unwrap_iter_implISJ_Lb0EEEEET_SM_T0_, symObjAddr: 0x20FE8, symBinAddr: 0x100023F74, symSize: 0x74 }
  - { offset: 0x2C82F, size: 0x8, addend: 0x0, symName: __ZNSt3__1neB8ne180100IPPN8nlohmann16json_abi_v3_11_210basic_jsonINS_3mapENS_6vectorENS_12basic_stringIcNS_11char_traitsIcEENS_9allocatorIcEEEEbxydS9_NS2_14adl_serializerENS5_IhNS9_IhEEEEEESH_EEbRKNS_16reverse_iteratorIT_EERKNSI_IT0_EE, symObjAddr: 0x2105C, symBinAddr: 0x100023FE8, symSize: 0x48 }
  - { offset: 0x2CC08, size: 0x8, addend: 0x0, symName: __ZNSt3__1neB8ne180100INS_3mapINS_12basic_stringIcNS_11char_traitsIcEENS_9allocatorIcEEEEN8nlohmann16json_abi_v3_11_210basic_jsonIS1_NS_6vectorES7_bxydS5_NS9_14adl_serializerENSB_IhNS5_IhEEEEEENS_4lessIvEENS5_INS_4pairIKS7_SF_EEEEEEZNSF_6createISM_JRKSM_EEEPT_DpOT0_EUlPSM_E_EEbRKNS_10unique_ptrISQ_T0_EEDn, symObjAddr: 0x22560, symBinAddr: 0x1000254EC, symSize: 0x2C }
  - { offset: 0x2CC53, size: 0x8, addend: 0x0, symName: __ZNSt3__1neB8ne180100ERKNS_20__map_const_iteratorINS_21__tree_const_iteratorINS_12__value_typeINS_12basic_stringIcNS_11char_traitsIcEENS_9allocatorIcEEEEN8nlohmann16json_abi_v3_11_210basic_jsonINS_3mapENS_6vectorES8_bxydS6_NSA_14adl_serializerENSD_IhNS6_IhEEEEEEEEPNS_11__tree_nodeISI_PvEElEEEESQ_, symObjAddr: 0x22B00, symBinAddr: 0x100025A8C, symSize: 0x30 }
  - { offset: 0x2CC90, size: 0x8, addend: 0x0, symName: __ZNSt3__1neB8ne180100ERKNS_21__tree_const_iteratorINS_12__value_typeINS_12basic_stringIcNS_11char_traitsIcEENS_9allocatorIcEEEEN8nlohmann16json_abi_v3_11_210basic_jsonINS_3mapENS_6vectorES7_bxydS5_NS9_14adl_serializerENSC_IhNS5_IhEEEEEEEEPNS_11__tree_nodeISH_PvEElEESO_, symObjAddr: 0x22C08, symBinAddr: 0x100025B94, symSize: 0x34 }
  - { offset: 0x2CCCD, size: 0x8, addend: 0x0, symName: __ZNSt3__1eqB8ne180100ERKNS_21__tree_const_iteratorINS_12__value_typeINS_12basic_stringIcNS_11char_traitsIcEENS_9allocatorIcEEEEN8nlohmann16json_abi_v3_11_210basic_jsonINS_3mapENS_6vectorES7_bxydS5_NS9_14adl_serializerENSC_IhNS5_IhEEEEEEEEPNS_11__tree_nodeISH_PvEElEESO_, symObjAddr: 0x22C3C, symBinAddr: 0x100025BC8, symSize: 0x30 }
  - { offset: 0x2CD0B, size: 0x8, addend: 0x0, symName: __ZNSt3__14nextB8ne180100INS_21__tree_const_iteratorINS_12__value_typeINS_12basic_stringIcNS_11char_traitsIcEENS_9allocatorIcEEEEN8nlohmann16json_abi_v3_11_210basic_jsonINS_3mapENS_6vectorES8_bxydS6_NSA_14adl_serializerENSD_IhNS6_IhEEEEEEEEPNS_11__tree_nodeISI_PvEElEELi0EEET_SO_NS_15iterator_traitsISO_E15difference_typeE, symObjAddr: 0x236A0, symBinAddr: 0x10002662C, symSize: 0x3C }
  - { offset: 0x2CD56, size: 0x8, addend: 0x0, symName: __ZNSt3__1ltB8ne180100IcNS_11char_traitsIcEENS_9allocatorIcEEEEbRKNS_12basic_stringIT_T0_T1_EESB_, symObjAddr: 0x237A4, symBinAddr: 0x100026730, symSize: 0x38 }
  - { offset: 0x2CDAE, size: 0x8, addend: 0x0, symName: __ZNSt3__17launderB8ne180100IKNS_4pairIKNS_12basic_stringIcNS_11char_traitsIcEENS_9allocatorIcEEEEN8nlohmann16json_abi_v3_11_210basic_jsonINS_3mapENS_6vectorES7_bxydS5_NSA_14adl_serializerENSD_IhNS5_IhEEEEEEEEEEPT_SL_, symObjAddr: 0x23A70, symBinAddr: 0x1000269FC, symSize: 0x24 }
  - { offset: 0x2CDE5, size: 0x8, addend: 0x0, symName: __ZNSt3__19__launderB8ne180100IKNS_4pairIKNS_12basic_stringIcNS_11char_traitsIcEENS_9allocatorIcEEEEN8nlohmann16json_abi_v3_11_210basic_jsonINS_3mapENS_6vectorES7_bxydS5_NSA_14adl_serializerENSD_IhNS5_IhEEEEEEEEEEPT_SL_, symObjAddr: 0x23A94, symBinAddr: 0x100026A20, symSize: 0x14 }
  - { offset: 0x2CE1D, size: 0x8, addend: 0x0, symName: __ZNSt3__121__convert_to_integralB8ne180100El, symObjAddr: 0x23B04, symBinAddr: 0x100026A90, symSize: 0x14 }
  - { offset: 0x2CE4B, size: 0x8, addend: 0x0, symName: __ZNSt3__19__advanceB8ne180100INS_21__tree_const_iteratorINS_12__value_typeINS_12basic_stringIcNS_11char_traitsIcEENS_9allocatorIcEEEEN8nlohmann16json_abi_v3_11_210basic_jsonINS_3mapENS_6vectorES8_bxydS6_NSA_14adl_serializerENSD_IhNS6_IhEEEEEEEEPNS_11__tree_nodeISI_PvEElEEEEvRT_NS_15iterator_traitsISO_E15difference_typeENS_26bidirectional_iterator_tagE, symObjAddr: 0x23B18, symBinAddr: 0x100026AA4, symSize: 0xA4 }
  - { offset: 0x2CEB5, size: 0x8, addend: 0x0, symName: __ZNSt3__127__tree_balance_after_insertB8ne180100IPNS_16__tree_node_baseIPvEEEEvT_S5_, symObjAddr: 0x24014, symBinAddr: 0x100026FA0, symSize: 0x27C }
  - { offset: 0x2CF34, size: 0x8, addend: 0x0, symName: __ZNSt3__118__tree_left_rotateB8ne180100IPNS_16__tree_node_baseIPvEEEEvT_, symObjAddr: 0x24290, symBinAddr: 0x10002721C, symSize: 0xD8 }
  - { offset: 0x2CF75, size: 0x8, addend: 0x0, symName: __ZNSt3__119__tree_right_rotateB8ne180100IPNS_16__tree_node_baseIPvEEEEvT_, symObjAddr: 0x24368, symBinAddr: 0x1000272F4, symSize: 0xCC }
  - { offset: 0x2D322, size: 0x8, addend: 0x0, symName: __ZNSt3__1neB8ne180100INS_6vectorIN8nlohmann16json_abi_v3_11_210basic_jsonINS_3mapES1_NS_12basic_stringIcNS_11char_traitsIcEENS_9allocatorIcEEEEbxydS9_NS3_14adl_serializerENS1_IhNS9_IhEEEEEENS9_ISF_EEEEZNSF_6createISH_JRKSH_EEEPT_DpOT0_EUlPSH_E_EEbRKNS_10unique_ptrISL_T0_EEDn, symObjAddr: 0x24AB0, symBinAddr: 0x100027A3C, symSize: 0x2C }
  - { offset: 0x2D36E, size: 0x8, addend: 0x0, symName: __ZNSt3__122__make_exception_guardB8ne180100INS_6vectorIN8nlohmann16json_abi_v3_11_210basic_jsonINS_3mapES1_NS_12basic_stringIcNS_11char_traitsIcEENS_9allocatorIcEEEEbxydS9_NS3_14adl_serializerENS1_IhNS9_IhEEEEEENS9_ISF_EEE16__destroy_vectorEEENS_28__exception_guard_exceptionsIT_EESK_, symObjAddr: 0x24E94, symBinAddr: 0x100027E20, symSize: 0x40 }
  - { offset: 0x2D3A4, size: 0x8, addend: 0x0, symName: __ZNSt3__130__uninitialized_allocator_copyB8ne180100INS_9allocatorIN8nlohmann16json_abi_v3_11_210basic_jsonINS_3mapENS_6vectorENS_12basic_stringIcNS_11char_traitsIcEENS1_IcEEEEbxydS1_NS3_14adl_serializerENS6_IhNS1_IhEEEEEEEEPSF_SH_SH_EET2_RT_T0_T1_SI_, symObjAddr: 0x250AC, symBinAddr: 0x100028038, symSize: 0x80 }
  - { offset: 0x2D442, size: 0x8, addend: 0x0, symName: __ZNSt3__114__unwrap_rangeB8ne180100IPN8nlohmann16json_abi_v3_11_210basic_jsonINS_3mapENS_6vectorENS_12basic_stringIcNS_11char_traitsIcEENS_9allocatorIcEEEEbxydS9_NS2_14adl_serializerENS5_IhNS9_IhEEEEEESG_EENS_4pairIT0_SI_EET_SK_, symObjAddr: 0x2512C, symBinAddr: 0x1000280B8, symSize: 0x60 }
  - { offset: 0x2D490, size: 0x8, addend: 0x0, symName: __ZNSt3__135__uninitialized_allocator_copy_implB8ne180100INS_9allocatorIN8nlohmann16json_abi_v3_11_210basic_jsonINS_3mapENS_6vectorENS_12basic_stringIcNS_11char_traitsIcEENS1_IcEEEEbxydS1_NS3_14adl_serializerENS6_IhNS1_IhEEEEEEEEPSF_SH_SH_EET2_RT_T0_T1_SI_, symObjAddr: 0x2518C, symBinAddr: 0x100028118, symSize: 0xF4 }
  - { offset: 0x2D52F, size: 0x8, addend: 0x0, symName: __ZNSt3__113__unwrap_iterB8ne180100IPN8nlohmann16json_abi_v3_11_210basic_jsonINS_3mapENS_6vectorENS_12basic_stringIcNS_11char_traitsIcEENS_9allocatorIcEEEEbxydS9_NS2_14adl_serializerENS5_IhNS9_IhEEEEEENS_18__unwrap_iter_implISG_Lb1EEELi0EEEDTclsrT0_8__unwrapclsr3stdE7declvalIT_EEEESK_, symObjAddr: 0x25280, symBinAddr: 0x10002820C, symSize: 0x24 }
  - { offset: 0x2D575, size: 0x8, addend: 0x0, symName: __ZNSt3__113__rewrap_iterB8ne180100IPN8nlohmann16json_abi_v3_11_210basic_jsonINS_3mapENS_6vectorENS_12basic_stringIcNS_11char_traitsIcEENS_9allocatorIcEEEEbxydS9_NS2_14adl_serializerENS5_IhNS9_IhEEEEEESG_NS_18__unwrap_iter_implISG_Lb1EEEEET_SJ_T0_, symObjAddr: 0x252A4, symBinAddr: 0x100028230, symSize: 0x3C }
  - { offset: 0x2D5CD, size: 0x8, addend: 0x0, symName: __ZNSt3__122__make_exception_guardB8ne180100INS_29_AllocatorDestroyRangeReverseINS_9allocatorIN8nlohmann16json_abi_v3_11_210basic_jsonINS_3mapENS_6vectorENS_12basic_stringIcNS_11char_traitsIcEENS2_IcEEEEbxydS2_NS4_14adl_serializerENS7_IhNS2_IhEEEEEEEEPSG_EEEENS_28__exception_guard_exceptionsIT_EESL_, symObjAddr: 0x252E0, symBinAddr: 0x10002826C, symSize: 0x4C }
  - { offset: 0x2D604, size: 0x8, addend: 0x0, symName: __ZNSt3__119__allocator_destroyB8ne180100INS_9allocatorIN8nlohmann16json_abi_v3_11_210basic_jsonINS_3mapENS_6vectorENS_12basic_stringIcNS_11char_traitsIcEENS1_IcEEEEbxydS1_NS3_14adl_serializerENS6_IhNS1_IhEEEEEEEENS_16reverse_iteratorIPSF_EESJ_EEvRT_T0_T1_, symObjAddr: 0x25570, symBinAddr: 0x1000284FC, symSize: 0x70 }
  - { offset: 0x2D9F2, size: 0x8, addend: 0x0, symName: __ZNSt3__1neB8ne180100INS_12basic_stringIcNS_11char_traitsIcEENS_9allocatorIcEEEEZN8nlohmann16json_abi_v3_11_210basic_jsonINS_3mapENS_6vectorES6_bxydS4_NS8_14adl_serializerENSB_IhNS4_IhEEEEE6createIS6_JRKS6_EEEPT_DpOT0_EUlPS6_E_EEbRKNS_10unique_ptrISJ_T0_EEDn, symObjAddr: 0x25A00, symBinAddr: 0x10002898C, symSize: 0x2C }
  - { offset: 0x2DD75, size: 0x8, addend: 0x0, symName: __ZNSt3__1neB8ne180100IN8nlohmann16json_abi_v3_11_227byte_container_with_subtypeINS_6vectorIhNS_9allocatorIhEEEEEEZNS2_10basic_jsonINS_3mapES4_NS_12basic_stringIcNS_11char_traitsIcEENS5_IcEEEEbxydS5_NS2_14adl_serializerES7_E6createIS8_JRKS8_EEEPT_DpOT0_EUlPS8_E_EEbRKNS_10unique_ptrISL_T0_EEDn, symObjAddr: 0x25FAC, symBinAddr: 0x100028F38, symSize: 0x2C }
  - { offset: 0x2DDC1, size: 0x8, addend: 0x0, symName: __ZNSt3__122__make_exception_guardB8ne180100INS_6vectorIhNS_9allocatorIhEEE16__destroy_vectorEEENS_28__exception_guard_exceptionsIT_EES7_, symObjAddr: 0x26458, symBinAddr: 0x1000293E4, symSize: 0x40 }
  - { offset: 0x2DDF8, size: 0x8, addend: 0x0, symName: __ZNSt3__119__allocate_at_leastB8ne180100INS_9allocatorIhEEEENS_19__allocation_resultINS_16allocator_traitsIT_E7pointerEEERS5_m, symObjAddr: 0x266EC, symBinAddr: 0x100029678, symSize: 0x40 }
  - { offset: 0x2DE3D, size: 0x8, addend: 0x0, symName: __ZNSt3__130__uninitialized_allocator_copyB8ne180100INS_9allocatorIhEEPhS3_S3_EET2_RT_T0_T1_S4_, symObjAddr: 0x2686C, symBinAddr: 0x1000297F8, symSize: 0x80 }
  - { offset: 0x2DEDB, size: 0x8, addend: 0x0, symName: __ZNSt3__114__unwrap_rangeB8ne180100IPhS1_EENS_4pairIT0_S3_EET_S5_, symObjAddr: 0x2695C, symBinAddr: 0x1000298E8, symSize: 0x60 }
  - { offset: 0x2DF29, size: 0x8, addend: 0x0, symName: __ZNSt3__135__uninitialized_allocator_copy_implB8ne180100INS_9allocatorIhEEhhhLPv0EEEPT2_RT_PT0_S9_S5_, symObjAddr: 0x269BC, symBinAddr: 0x100029948, symSize: 0x38 }
  - { offset: 0x2DFAB, size: 0x8, addend: 0x0, symName: __ZNSt3__113__unwrap_iterB8ne180100IPhNS_18__unwrap_iter_implIS1_Lb1EEELi0EEEDTclsrT0_8__unwrapclsr3stdE7declvalIT_EEEES5_, symObjAddr: 0x269F4, symBinAddr: 0x100029980, symSize: 0x24 }
  - { offset: 0x2DFF1, size: 0x8, addend: 0x0, symName: __ZNSt3__113__rewrap_iterB8ne180100IPhS1_NS_18__unwrap_iter_implIS1_Lb1EEEEET_S4_T0_, symObjAddr: 0x26A18, symBinAddr: 0x1000299A4, symSize: 0x3C }
  - { offset: 0x2E048, size: 0x8, addend: 0x0, symName: __ZNSt3__19make_pairB8ne180100IPhS1_EENS_4pairINS_18__unwrap_ref_decayIT_E4typeENS3_IT0_E4typeEEEOS4_OS7_, symObjAddr: 0x26A54, symBinAddr: 0x1000299E0, symSize: 0x38 }
  - { offset: 0x2E19B, size: 0x8, addend: 0x0, symName: __ZNSt3__14copyB8ne180100IPhS1_EET0_T_S3_S2_, symObjAddr: 0x26AFC, symBinAddr: 0x100029A88, symSize: 0x40 }
  - { offset: 0x2E1F9, size: 0x8, addend: 0x0, symName: __ZNSt3__16__copyB8ne180100INS_17_ClassicAlgPolicyEPhS2_S2_EENS_4pairIT0_T2_EES4_T1_S5_, symObjAddr: 0x26B3C, symBinAddr: 0x100029AC8, symSize: 0x44 }
  - { offset: 0x2E269, size: 0x8, addend: 0x0, symName: __ZNSt3__123__dispatch_copy_or_moveB8ne180100INS_17_ClassicAlgPolicyENS_11__copy_loopIS1_EENS_14__copy_trivialEPhS5_S5_EENS_4pairIT2_T4_EES7_T3_S8_, symObjAddr: 0x26B80, symBinAddr: 0x100029B0C, symSize: 0x44 }
  - { offset: 0x2E2EB, size: 0x8, addend: 0x0, symName: __ZNSt3__121__unwrap_and_dispatchB8ne180100INS_10__overloadINS_11__copy_loopINS_17_ClassicAlgPolicyEEENS_14__copy_trivialEEEPhS7_S7_Li0EEENS_4pairIT0_T2_EES9_T1_SA_, symObjAddr: 0x26BC4, symBinAddr: 0x100029B50, symSize: 0xB4 }
  - { offset: 0x2E3C5, size: 0x8, addend: 0x0, symName: __ZNSt3__114__rewrap_rangeB8ne180100IPhS1_EET_S2_T0_, symObjAddr: 0x26CC0, symBinAddr: 0x100029C4C, symSize: 0x2C }
  - { offset: 0x2E414, size: 0x8, addend: 0x0, symName: __ZNSt3__119__copy_trivial_implB8ne180100IhhEENS_4pairIPT_PT0_EES3_S3_S5_, symObjAddr: 0x26CEC, symBinAddr: 0x100029C78, symSize: 0x78 }
  - { offset: 0x2E481, size: 0x8, addend: 0x0, symName: __ZNSt3__119__constexpr_memmoveB8ne180100IhhLi0EEEPT_S2_PT0_NS_15__element_countE, symObjAddr: 0x26D64, symBinAddr: 0x100029CF0, symSize: 0x64 }
  - { offset: 0x2E4F3, size: 0x8, addend: 0x0, symName: __ZNSt3__19make_pairB8ne180100IRPhS1_EENS_4pairINS_18__unwrap_ref_decayIT_E4typeENS4_IT0_E4typeEEEOS5_OS8_, symObjAddr: 0x26DC8, symBinAddr: 0x100029D54, symSize: 0x38 }
  - { offset: 0x2E595, size: 0x8, addend: 0x0, symName: __ZNSt3__113__tree_removeB8ne180100IPNS_16__tree_node_baseIPvEEEEvT_S5_, symObjAddr: 0x27D3C, symBinAddr: 0x10002ACC8, symSize: 0x6F0 }
  - { offset: 0x2E614, size: 0x8, addend: 0x0, symName: __ZNSt3__111__tree_nextB8ne180100IPNS_16__tree_node_baseIPvEEEET_S5_, symObjAddr: 0x2842C, symBinAddr: 0x10002B3B8, symSize: 0x80 }
  - { offset: 0x2E64B, size: 0x8, addend: 0x0, symName: __ZNSt3__1miB8ne180100IPKN8nlohmann16json_abi_v3_11_210basic_jsonINS_3mapENS_6vectorENS_12basic_stringIcNS_11char_traitsIcEENS_9allocatorIcEEEEbxydS9_NS2_14adl_serializerENS5_IhNS9_IhEEEEEESH_EEDTmicldtfp_4baseEcldtfp0_4baseEERKNS_11__wrap_iterIT_EERKNSJ_IT0_EE, symObjAddr: 0x284AC, symBinAddr: 0x10002B438, symSize: 0x48 }
  - { offset: 0x2E69A, size: 0x8, addend: 0x0, symName: __ZNSt3__14moveB8ne180100IPN8nlohmann16json_abi_v3_11_210basic_jsonINS_3mapENS_6vectorENS_12basic_stringIcNS_11char_traitsIcEENS_9allocatorIcEEEEbxydS9_NS2_14adl_serializerENS5_IhNS9_IhEEEEEESG_EET0_T_SI_SH_, symObjAddr: 0x28520, symBinAddr: 0x10002B4AC, symSize: 0x40 }
  - { offset: 0x2E6F8, size: 0x8, addend: 0x0, symName: __ZNSt3__16__moveB8ne180100INS_17_ClassicAlgPolicyEPN8nlohmann16json_abi_v3_11_210basic_jsonINS_3mapENS_6vectorENS_12basic_stringIcNS_11char_traitsIcEENS_9allocatorIcEEEEbxydSA_NS3_14adl_serializerENS6_IhNSA_IhEEEEEESH_SH_EENS_4pairIT0_T2_EESJ_T1_SK_, symObjAddr: 0x2862C, symBinAddr: 0x10002B5B8, symSize: 0x44 }
  - { offset: 0x2E768, size: 0x8, addend: 0x0, symName: __ZNSt3__123__dispatch_copy_or_moveB8ne180100INS_17_ClassicAlgPolicyENS_11__move_loopIS1_EENS_14__move_trivialEPN8nlohmann16json_abi_v3_11_210basic_jsonINS_3mapENS_6vectorENS_12basic_stringIcNS_11char_traitsIcEENS_9allocatorIcEEEEbxydSD_NS6_14adl_serializerENS9_IhNSD_IhEEEEEESK_SK_EENS_4pairIT2_T4_EESM_T3_SN_, symObjAddr: 0x28670, symBinAddr: 0x10002B5FC, symSize: 0x44 }
  - { offset: 0x2E7EA, size: 0x8, addend: 0x0, symName: __ZNSt3__121__unwrap_and_dispatchB8ne180100INS_10__overloadINS_11__move_loopINS_17_ClassicAlgPolicyEEENS_14__move_trivialEEEPN8nlohmann16json_abi_v3_11_210basic_jsonINS_3mapENS_6vectorENS_12basic_stringIcNS_11char_traitsIcEENS_9allocatorIcEEEEbxydSF_NS8_14adl_serializerENSB_IhNSF_IhEEEEEESM_SM_Li0EEENS_4pairIT0_T2_EESO_T1_SP_, symObjAddr: 0x286B4, symBinAddr: 0x10002B640, symSize: 0xB4 }
  - { offset: 0x2E87E, size: 0x8, addend: 0x0, symName: __ZNSt3__114__rewrap_rangeB8ne180100IPN8nlohmann16json_abi_v3_11_210basic_jsonINS_3mapENS_6vectorENS_12basic_stringIcNS_11char_traitsIcEENS_9allocatorIcEEEEbxydS9_NS2_14adl_serializerENS5_IhNS9_IhEEEEEESG_EET_SH_T0_, symObjAddr: 0x28810, symBinAddr: 0x10002B79C, symSize: 0x2C }
  - { offset: 0x2E8CC, size: 0x8, addend: 0x0, symName: __ZNSt3__116forward_as_tupleB8ne180100IJRKNS_12basic_stringIcNS_11char_traitsIcEENS_9allocatorIcEEEEEEENS_5tupleIJDpOT_EEESC_, symObjAddr: 0x28BEC, symBinAddr: 0x10002BB78, symSize: 0x2C }
  - { offset: 0x2E905, size: 0x8, addend: 0x0, symName: __ZNSt3__13getB8ne180100ILm0EJRKNS_12basic_stringIcNS_11char_traitsIcEENS_9allocatorIcEEEEEEERNS_13tuple_elementIXT_ENS_5tupleIJDpT0_EEEE4typeERSD_, symObjAddr: 0x28E84, symBinAddr: 0x10002BE10, symSize: 0x24 }
  - { offset: 0x2EC25, size: 0x8, addend: 0x0, symName: __ZNSt3__14swapB8ne180100IN8nlohmann16json_abi_v3_11_26detail7value_tEEENS_9enable_ifIXaasr21is_move_constructibleIT_EE5valuesr18is_move_assignableIS6_EE5valueEvE4typeERS6_S9_, symObjAddr: 0x2C5FC, symBinAddr: 0x10002F588, symSize: 0x3C }
  - { offset: 0x2EC7A, size: 0x8, addend: 0x0, symName: __ZNSt3__14swapB8ne180100IN8nlohmann16json_abi_v3_11_210basic_jsonINS_3mapENS_6vectorENS_12basic_stringIcNS_11char_traitsIcEENS_9allocatorIcEEEEbxydS9_NS2_14adl_serializerENS5_IhNS9_IhEEEEE10json_valueEEENS_9enable_ifIXaasr21is_move_constructibleIT_EE5valuesr18is_move_assignableISI_EE5valueEvE4typeERSI_SL_, symObjAddr: 0x2C638, symBinAddr: 0x10002F5C4, symSize: 0x3C }
  - { offset: 0x30588, size: 0x8, addend: 0x0, symName: __ZSt28__throw_bad_array_new_lengthB8ne180100v, symObjAddr: 0x6B3C, symBinAddr: 0x100009AC8, symSize: 0x34 }
  - { offset: 0x30645, size: 0x8, addend: 0x0, symName: __ZN8nlohmann16json_abi_v3_11_26detail12static_constINS1_10to_json_fnEE5valueE, symObjAddr: 0x31EEF, symBinAddr: 0x1000365D3, symSize: 0x0 }
  - { offset: 0x31F2F, size: 0x8, addend: 0x0, symName: __ZNSt3__16vectorIN8nlohmann16json_abi_v3_11_210basic_jsonINS_3mapES0_NS_12basic_stringIcNS_11char_traitsIcEENS_9allocatorIcEEEEbxydS8_NS2_14adl_serializerENS0_IhNS8_IhEEEEEENS8_ISE_EEE26__swap_out_circular_bufferERNS_14__split_bufferISE_RSF_EE, symObjAddr: 0x64C4, symBinAddr: 0x100009450, symSize: 0x110 }
  - { offset: 0x3232A, size: 0x8, addend: 0x0, symName: __ZNSt3__16vectorINS_10shared_ptrI8TreeNodeEENS_9allocatorIS3_EEE26__swap_out_circular_bufferERNS_14__split_bufferIS3_RS5_EE, symObjAddr: 0xC874, symBinAddr: 0x10000F800, symSize: 0x110 }
  - { offset: 0x32BD3, size: 0x8, addend: 0x0, symName: __ZNSt3__16vectorIcNS_9allocatorIcEEE26__swap_out_circular_bufferERNS_14__split_bufferIcRS2_EE, symObjAddr: 0x178F8, symBinAddr: 0x10001A884, symSize: 0x110 }
  - { offset: 0x32F67, size: 0x8, addend: 0x0, symName: __ZNSt3__16vectorIPN8nlohmann16json_abi_v3_11_210basic_jsonINS_3mapES0_NS_12basic_stringIcNS_11char_traitsIcEENS_9allocatorIcEEEEbxydS8_NS2_14adl_serializerENS0_IhNS8_IhEEEEEENS8_ISF_EEE26__swap_out_circular_bufferERNS_14__split_bufferISF_RSG_EE, symObjAddr: 0x20558, symBinAddr: 0x1000234E4, symSize: 0x110 }
  - { offset: 0x330D6, size: 0x8, addend: 0x0, symName: __Z9buildTreeRKN8nlohmann16json_abi_v3_11_210basic_jsonINSt3__13mapENS2_6vectorENS2_12basic_stringIcNS2_11char_traitsIcEENS2_9allocatorIcEEEEbxydS8_NS0_14adl_serializerENS4_IhNS8_IhEEEEEERKSA_RKNS2_10shared_ptrI8TreeNodeEE, symObjAddr: 0x0, symBinAddr: 0x100002F8C, symSize: 0x4DC }
  - { offset: 0x331D9, size: 0x8, addend: 0x0, symName: __ZNSt3__112basic_stringIcNS_11char_traitsIcEENS_9allocatorIcEEEC1B8ne180100Ev, symObjAddr: 0x4DC, symBinAddr: 0x100003468, symSize: 0x2C }
  - { offset: 0x33203, size: 0x8, addend: 0x0, symName: __ZNK8nlohmann16json_abi_v3_11_210basic_jsonINSt3__13mapENS2_6vectorENS2_12basic_stringIcNS2_11char_traitsIcEENS2_9allocatorIcEEEEbxydS8_NS0_14adl_serializerENS4_IhNS8_IhEEEEE9is_objectEv, symObjAddr: 0x508, symBinAddr: 0x100003494, symSize: 0x24 }
  - { offset: 0x33229, size: 0x8, addend: 0x0, symName: __ZNSt3__112basic_stringIcNS_11char_traitsIcEENS_9allocatorIcEEEaSB8ne180100EPKc, symObjAddr: 0x52C, symBinAddr: 0x1000034B8, symSize: 0x2C }
  - { offset: 0x3325E, size: 0x8, addend: 0x0, symName: __ZNK8nlohmann16json_abi_v3_11_210basic_jsonINSt3__13mapENS2_6vectorENS2_12basic_stringIcNS2_11char_traitsIcEENS2_9allocatorIcEEEEbxydS8_NS0_14adl_serializerENS4_IhNS8_IhEEEEE8is_arrayEv, symObjAddr: 0x558, symBinAddr: 0x1000034E4, symSize: 0x24 }
  - { offset: 0x33284, size: 0x8, addend: 0x0, symName: __ZNK8nlohmann16json_abi_v3_11_210basic_jsonINSt3__13mapENS2_6vectorENS2_12basic_stringIcNS2_11char_traitsIcEENS2_9allocatorIcEEEEbxydS8_NS0_14adl_serializerENS4_IhNS8_IhEEEEE9is_stringEv, symObjAddr: 0x57C, symBinAddr: 0x100003508, symSize: 0x24 }
  - { offset: 0x332AA, size: 0x8, addend: 0x0, symName: __ZNK8nlohmann16json_abi_v3_11_210basic_jsonINSt3__13mapENS2_6vectorENS2_12basic_stringIcNS2_11char_traitsIcEENS2_9allocatorIcEEEEbxydS8_NS0_14adl_serializerENS4_IhNS8_IhEEEEE9is_numberEv, symObjAddr: 0x5A0, symBinAddr: 0x10000352C, symSize: 0x50 }
  - { offset: 0x332D0, size: 0x8, addend: 0x0, symName: __ZNK8nlohmann16json_abi_v3_11_210basic_jsonINSt3__13mapENS2_6vectorENS2_12basic_stringIcNS2_11char_traitsIcEENS2_9allocatorIcEEEEbxydS8_NS0_14adl_serializerENS4_IhNS8_IhEEEEE10is_booleanEv, symObjAddr: 0x5F0, symBinAddr: 0x10000357C, symSize: 0x24 }
  - { offset: 0x332F6, size: 0x8, addend: 0x0, symName: __ZL17primitiveToStringRKN8nlohmann16json_abi_v3_11_210basic_jsonINSt3__13mapENS2_6vectorENS2_12basic_stringIcNS2_11char_traitsIcEENS2_9allocatorIcEEEEbxydS8_NS0_14adl_serializerENS4_IhNS8_IhEEEEEE, symObjAddr: 0x614, symBinAddr: 0x1000035A0, symSize: 0x12C }
  - { offset: 0x33324, size: 0x8, addend: 0x0, symName: __ZNSt3__112basic_stringIcNS_11char_traitsIcEENS_9allocatorIcEEEaSB8ne180100EOS5_, symObjAddr: 0x740, symBinAddr: 0x1000036CC, symSize: 0x34 }
  - { offset: 0x33359, size: 0x8, addend: 0x0, symName: __ZNKSt3__110shared_ptrI8TreeNodeEcvbB8ne180100Ev, symObjAddr: 0x7C4, symBinAddr: 0x100003750, symSize: 0x30 }
  - { offset: 0x3337F, size: 0x8, addend: 0x0, symName: __ZNKSt3__110shared_ptrI8TreeNodeEptB8ne180100Ev, symObjAddr: 0x7F4, symBinAddr: 0x100003780, symSize: 0x18 }
  - { offset: 0x333A5, size: 0x8, addend: 0x0, symName: __ZNSt3__18weak_ptrI8TreeNodeEaSIS1_Li0EEERS2_RKNS_10shared_ptrIT_EE, symObjAddr: 0x80C, symBinAddr: 0x100003798, symSize: 0x50 }
  - { offset: 0x333EB, size: 0x8, addend: 0x0, symName: __ZNK8nlohmann16json_abi_v3_11_210basic_jsonINSt3__13mapENS2_6vectorENS2_12basic_stringIcNS2_11char_traitsIcEENS2_9allocatorIcEEEEbxydS8_NS0_14adl_serializerENS4_IhNS8_IhEEEEE5itemsEv, symObjAddr: 0x85C, symBinAddr: 0x1000037E8, symSize: 0x2C }
  - { offset: 0x33411, size: 0x8, addend: 0x0, symName: __ZNK8nlohmann16json_abi_v3_11_26detail15iteration_proxyINS1_9iter_implIKNS0_10basic_jsonINSt3__13mapENS5_6vectorENS5_12basic_stringIcNS5_11char_traitsIcEENS5_9allocatorIcEEEEbxydSB_NS0_14adl_serializerENS7_IhNSB_IhEEEEEEEEE5beginEv, symObjAddr: 0x888, symBinAddr: 0x100003814, symSize: 0x48 }
  - { offset: 0x33437, size: 0x8, addend: 0x0, symName: __ZNK8nlohmann16json_abi_v3_11_26detail15iteration_proxyINS1_9iter_implIKNS0_10basic_jsonINSt3__13mapENS5_6vectorENS5_12basic_stringIcNS5_11char_traitsIcEENS5_9allocatorIcEEEEbxydSB_NS0_14adl_serializerENS7_IhNSB_IhEEEEEEEEE3endEv, symObjAddr: 0x8D0, symBinAddr: 0x10000385C, symSize: 0x48 }
  - { offset: 0x3345D, size: 0x8, addend: 0x0, symName: __ZNK8nlohmann16json_abi_v3_11_26detail21iteration_proxy_valueINS1_9iter_implIKNS0_10basic_jsonINSt3__13mapENS5_6vectorENS5_12basic_stringIcNS5_11char_traitsIcEENS5_9allocatorIcEEEEbxydSB_NS0_14adl_serializerENS7_IhNSB_IhEEEEEEEEEneERKSK_, symObjAddr: 0x918, symBinAddr: 0x1000038A4, symSize: 0x30 }
  - { offset: 0x33492, size: 0x8, addend: 0x0, symName: __ZNK8nlohmann16json_abi_v3_11_26detail21iteration_proxy_valueINS1_9iter_implIKNS0_10basic_jsonINSt3__13mapENS5_6vectorENS5_12basic_stringIcNS5_11char_traitsIcEENS5_9allocatorIcEEEEbxydSB_NS0_14adl_serializerENS7_IhNSB_IhEEEEEEEEEdeEv, symObjAddr: 0x948, symBinAddr: 0x1000038D4, symSize: 0x14 }
  - { offset: 0x334B8, size: 0x8, addend: 0x0, symName: __ZNSt3__16vectorINS_10shared_ptrI8TreeNodeEENS_9allocatorIS3_EEE9push_backB8ne180100EOS3_, symObjAddr: 0x9A4, symBinAddr: 0x100003930, symSize: 0x90 }
  - { offset: 0x334FE, size: 0x8, addend: 0x0, symName: __ZNSt3__110shared_ptrI8TreeNodeED1B8ne180100Ev, symObjAddr: 0xA34, symBinAddr: 0x1000039C0, symSize: 0x2C }
  - { offset: 0x33528, size: 0x8, addend: 0x0, symName: __ZN8nlohmann16json_abi_v3_11_26detail21iteration_proxy_valueINS1_9iter_implIKNS0_10basic_jsonINSt3__13mapENS5_6vectorENS5_12basic_stringIcNS5_11char_traitsIcEENS5_9allocatorIcEEEEbxydSB_NS0_14adl_serializerENS7_IhNSB_IhEEEEEEEEEppEv, symObjAddr: 0xA60, symBinAddr: 0x1000039EC, symSize: 0x38 }
  - { offset: 0x3354E, size: 0x8, addend: 0x0, symName: __ZN8nlohmann16json_abi_v3_11_26detail21iteration_proxy_valueINS1_9iter_implIKNS0_10basic_jsonINSt3__13mapENS5_6vectorENS5_12basic_stringIcNS5_11char_traitsIcEENS5_9allocatorIcEEEEbxydSB_NS0_14adl_serializerENS7_IhNSB_IhEEEEEEEEED1Ev, symObjAddr: 0xA98, symBinAddr: 0x100003A24, symSize: 0x2C }
  - { offset: 0x33578, size: 0x8, addend: 0x0, symName: __ZNK8nlohmann16json_abi_v3_11_210basic_jsonINSt3__13mapENS2_6vectorENS2_12basic_stringIcNS2_11char_traitsIcEENS2_9allocatorIcEEEEbxydS8_NS0_14adl_serializerENS4_IhNS8_IhEEEEE4sizeEv, symObjAddr: 0xAC4, symBinAddr: 0x100003A50, symSize: 0xA4 }
  - { offset: 0x3359E, size: 0x8, addend: 0x0, symName: __ZNK8nlohmann16json_abi_v3_11_210basic_jsonINSt3__13mapENS2_6vectorENS2_12basic_stringIcNS2_11char_traitsIcEENS2_9allocatorIcEEEEbxydS8_NS0_14adl_serializerENS4_IhNS8_IhEEEEEixEm, symObjAddr: 0xB90, symBinAddr: 0x100003B1C, symSize: 0x11C }
  - { offset: 0x335D3, size: 0x8, addend: 0x0, symName: __Z14printTreeToCSVRKNSt3__110shared_ptrI8TreeNodeEERNS_14basic_ofstreamIcNS_11char_traitsIcEEEEi, symObjAddr: 0xCF0, symBinAddr: 0x100003C7C, symSize: 0x2F0 }
  - { offset: 0x33682, size: 0x8, addend: 0x0, symName: __ZNKSt3__18weak_ptrI8TreeNodeE4lockEv, symObjAddr: 0xFE0, symBinAddr: 0x100003F6C, symSize: 0xE4 }
  - { offset: 0x336BA, size: 0x8, addend: 0x0, symName: __ZNKSt3__112basic_stringIcNS_11char_traitsIcEENS_9allocatorIcEEE5emptyB8ne180100Ev, symObjAddr: 0x1158, symBinAddr: 0x1000040E4, symSize: 0x30 }
  - { offset: 0x336E6, size: 0x8, addend: 0x0, symName: __ZNSt3__112basic_stringIcNS_11char_traitsIcEENS_9allocatorIcEEEC1B8ne180100ILi0EEEPKc, symObjAddr: 0x1188, symBinAddr: 0x100004114, symSize: 0x34 }
  - { offset: 0x33725, size: 0x8, addend: 0x0, symName: __ZNSt3__16vectorINS_10shared_ptrI8TreeNodeEENS_9allocatorIS3_EEE5beginB8ne180100Ev, symObjAddr: 0x11BC, symBinAddr: 0x100004148, symSize: 0x30 }
  - { offset: 0x3374D, size: 0x8, addend: 0x0, symName: __ZNSt3__16vectorINS_10shared_ptrI8TreeNodeEENS_9allocatorIS3_EEE3endB8ne180100Ev, symObjAddr: 0x11EC, symBinAddr: 0x100004178, symSize: 0x30 }
  - { offset: 0x33775, size: 0x8, addend: 0x0, symName: __ZNKSt3__111__wrap_iterIPNS_10shared_ptrI8TreeNodeEEEdeB8ne180100Ev, symObjAddr: 0x1250, symBinAddr: 0x1000041DC, symSize: 0x18 }
  - { offset: 0x3379B, size: 0x8, addend: 0x0, symName: __ZNSt3__111__wrap_iterIPNS_10shared_ptrI8TreeNodeEEEppB8ne180100Ev, symObjAddr: 0x1268, symBinAddr: 0x1000041F4, symSize: 0x20 }
  - { offset: 0x337C1, size: 0x8, addend: 0x0, symName: __Z10emitDotDFSRKNSt3__110shared_ptrI8TreeNodeEERNS_13basic_ostreamIcNS_11char_traitsIcEEEERNS_13unordered_mapIPKS1_NS_12basic_stringIcS7_NS_9allocatorIcEEEENS_4hashISC_EENS_8equal_toISC_EENSE_INS_4pairIKSC_SG_EEEEEERm, symObjAddr: 0x1288, symBinAddr: 0x100004214, symSize: 0x3CC }
  - { offset: 0x338B5, size: 0x8, addend: 0x0, symName: __ZNKSt3__110shared_ptrI8TreeNodeE3getB8ne180100Ev, symObjAddr: 0x1654, symBinAddr: 0x1000045E0, symSize: 0x18 }
  - { offset: 0x3397B, size: 0x8, addend: 0x0, symName: __ZNKSt3__113unordered_mapIPK8TreeNodeNS_12basic_stringIcNS_11char_traitsIcEENS_9allocatorIcEEEENS_4hashIS3_EENS_8equal_toIS3_EENS7_INS_4pairIKS3_S9_EEEEE5countB8ne180100ERSF_, symObjAddr: 0x166C, symBinAddr: 0x1000045F8, symSize: 0x2C }
  - { offset: 0x339B0, size: 0x8, addend: 0x0, symName: __ZNSt3__113unordered_mapIPK8TreeNodeNS_12basic_stringIcNS_11char_traitsIcEENS_9allocatorIcEEEENS_4hashIS3_EENS_8equal_toIS3_EENS7_INS_4pairIKS3_S9_EEEEEixERSF_, symObjAddr: 0x1698, symBinAddr: 0x100004624, symSize: 0x80 }
  - { offset: 0x33A43, size: 0x8, addend: 0x0, symName: __ZNSt3__119basic_ostringstreamIcNS_11char_traitsIcEENS_9allocatorIcEEEC1B8ne180100Ev, symObjAddr: 0x1718, symBinAddr: 0x1000046A4, symSize: 0xE4 }
  - { offset: 0x33A6D, size: 0x8, addend: 0x0, symName: __ZL9escapeDotRKNSt3__112basic_stringIcNS_11char_traitsIcEENS_9allocatorIcEEEE, symObjAddr: 0x17FC, symBinAddr: 0x100004788, symSize: 0x134 }
  - { offset: 0x33AEF, size: 0x8, addend: 0x0, symName: __ZNKSt3__119basic_ostringstreamIcNS_11char_traitsIcEENS_9allocatorIcEEE3strB8ne180100Ev, symObjAddr: 0x1930, symBinAddr: 0x1000048BC, symSize: 0x30 }
  - { offset: 0x33B1B, size: 0x8, addend: 0x0, symName: __ZNSt3__119basic_ostringstreamIcNS_11char_traitsIcEENS_9allocatorIcEEED1Ev, symObjAddr: 0x1960, symBinAddr: 0x1000048EC, symSize: 0x40 }
  - { offset: 0x33B48, size: 0x8, addend: 0x0, symName: __Z9exportDotRKNSt3__110shared_ptrI8TreeNodeEERKNS_12basic_stringIcNS_11char_traitsIcEENS_9allocatorIcEEEE, symObjAddr: 0x19A0, symBinAddr: 0x10000492C, symSize: 0x214 }
  - { offset: 0x33E6F, size: 0x8, addend: 0x0, symName: __ZNSt3__114basic_ofstreamIcNS_11char_traitsIcEEEC1ERKNS_12basic_stringIcS2_NS_9allocatorIcEEEEj, symObjAddr: 0x1BB4, symBinAddr: 0x100004B40, symSize: 0x164 }
  - { offset: 0x33EB9, size: 0x8, addend: 0x0, symName: __ZNKSt3__19basic_iosIcNS_11char_traitsIcEEEntB8ne180100Ev, symObjAddr: 0x1D18, symBinAddr: 0x100004CA4, symSize: 0x28 }
  - { offset: 0x33EDF, size: 0x8, addend: 0x0, symName: __ZNSt3__113unordered_mapIPK8TreeNodeNS_12basic_stringIcNS_11char_traitsIcEENS_9allocatorIcEEEENS_4hashIS3_EENS_8equal_toIS3_EENS7_INS_4pairIKS3_S9_EEEEEC1B8ne180100Ev, symObjAddr: 0x1D40, symBinAddr: 0x100004CCC, symSize: 0x2C }
  - { offset: 0x33F09, size: 0x8, addend: 0x0, symName: __ZNSt3__113unordered_mapIPK8TreeNodeNS_12basic_stringIcNS_11char_traitsIcEENS_9allocatorIcEEEENS_4hashIS3_EENS_8equal_toIS3_EENS7_INS_4pairIKS3_S9_EEEEED1B8ne180100Ev, symObjAddr: 0x1D6C, symBinAddr: 0x100004CF8, symSize: 0x2C }
  - { offset: 0x33F39, size: 0x8, addend: 0x0, symName: __ZNSt3__114basic_ofstreamIcNS_11char_traitsIcEEED1Ev, symObjAddr: 0x1D98, symBinAddr: 0x100004D24, symSize: 0x40 }
  - { offset: 0x33F66, size: 0x8, addend: 0x0, symName: _main, symObjAddr: 0x1DD8, symBinAddr: 0x100004D64, symSize: 0x45C }
  - { offset: 0x34005, size: 0x8, addend: 0x0, symName: __ZNSt3__114basic_ifstreamIcNS_11char_traitsIcEEEC1ERKNS_12basic_stringIcS2_NS_9allocatorIcEEEEj, symObjAddr: 0x2234, symBinAddr: 0x1000051C0, symSize: 0x164 }
  - { offset: 0x3404F, size: 0x8, addend: 0x0, symName: __ZNKSt3__114basic_ifstreamIcNS_11char_traitsIcEEE7is_openEv, symObjAddr: 0x2398, symBinAddr: 0x100005324, symSize: 0x2C }
  - { offset: 0x34077, size: 0x8, addend: 0x0, symName: __ZN8nlohmann16json_abi_v3_11_210basic_jsonINSt3__13mapENS2_6vectorENS2_12basic_stringIcNS2_11char_traitsIcEENS2_9allocatorIcEEEEbxydS8_NS0_14adl_serializerENS4_IhNS8_IhEEEEEC1EDn, symObjAddr: 0x23C4, symBinAddr: 0x100005350, symSize: 0x4C }
  - { offset: 0x340AC, size: 0x8, addend: 0x0, symName: __ZNSt3__110shared_ptrI8TreeNodeEC1B8ne180100EDn, symObjAddr: 0x2544, symBinAddr: 0x1000054D0, symSize: 0x34 }
  - { offset: 0x340E1, size: 0x8, addend: 0x0, symName: __ZNSt3__114basic_ofstreamIcNS_11char_traitsIcEEEC1EPKcj, symObjAddr: 0x2578, symBinAddr: 0x100005504, symSize: 0x164 }
  - { offset: 0x3412B, size: 0x8, addend: 0x0, symName: __ZNKSt3__114basic_ofstreamIcNS_11char_traitsIcEEE7is_openEv, symObjAddr: 0x26DC, symBinAddr: 0x100005668, symSize: 0x2C }
  - { offset: 0x34153, size: 0x8, addend: 0x0, symName: __ZN8nlohmann16json_abi_v3_11_210basic_jsonINSt3__13mapENS2_6vectorENS2_12basic_stringIcNS2_11char_traitsIcEENS2_9allocatorIcEEEEbxydS8_NS0_14adl_serializerENS4_IhNS8_IhEEEEED1Ev, symObjAddr: 0x2708, symBinAddr: 0x100005694, symSize: 0x2C }
  - { offset: 0x34183, size: 0x8, addend: 0x0, symName: __ZNSt3__114basic_ifstreamIcNS_11char_traitsIcEEED1Ev, symObjAddr: 0x2734, symBinAddr: 0x1000056C0, symSize: 0x40 }
  - { offset: 0x341B0, size: 0x8, addend: 0x0, symName: __ZNK8nlohmann16json_abi_v3_11_210basic_jsonINSt3__13mapENS2_6vectorENS2_12basic_stringIcNS2_11char_traitsIcEENS2_9allocatorIcEEEEbxydS8_NS0_14adl_serializerENS4_IhNS8_IhEEEEE17is_number_integerEv, symObjAddr: 0x2784, symBinAddr: 0x100005710, symSize: 0x54 }
  - { offset: 0x341D6, size: 0x8, addend: 0x0, symName: __ZNK8nlohmann16json_abi_v3_11_210basic_jsonINSt3__13mapENS2_6vectorENS2_12basic_stringIcNS2_11char_traitsIcEENS2_9allocatorIcEEEEbxydS8_NS0_14adl_serializerENS4_IhNS8_IhEEEEE15is_number_floatEv, symObjAddr: 0x27D8, symBinAddr: 0x100005764, symSize: 0x24 }
  - { offset: 0x341FC, size: 0x8, addend: 0x0, symName: __ZNK8nlohmann16json_abi_v3_11_210basic_jsonINSt3__13mapENS2_6vectorENS2_12basic_stringIcNS2_11char_traitsIcEENS2_9allocatorIcEEEEbxydS8_NS0_14adl_serializerENS4_IhNS8_IhEEEEE3getISA_SA_EEDTcldtclL_ZNS2_7declvalB8ne180100IRKSE_EEDTclsr3stdE9__declvalIT_ELi0EEEvEE8get_implIT0_EtlNS0_6detail12priority_tagILj4EEEEEEv, symObjAddr: 0x27FC, symBinAddr: 0x100005788, symSize: 0x2C }
  - { offset: 0x34234, size: 0x8, addend: 0x0, symName: __ZNK8nlohmann16json_abi_v3_11_210basic_jsonINSt3__13mapENS2_6vectorENS2_12basic_stringIcNS2_11char_traitsIcEENS2_9allocatorIcEEEEbxydS8_NS0_14adl_serializerENS4_IhNS8_IhEEEEE3getIbbEEDTcldtclL_ZNS2_7declvalB8ne180100IRKSE_EEDTclsr3stdE9__declvalIT_ELi0EEEvEE8get_implIT0_EtlNS0_6detail12priority_tagILj4EEEEEEv, symObjAddr: 0x2828, symBinAddr: 0x1000057B4, symSize: 0x28 }
  - { offset: 0x3426C, size: 0x8, addend: 0x0, symName: __ZNK8nlohmann16json_abi_v3_11_210basic_jsonINSt3__13mapENS2_6vectorENS2_12basic_stringIcNS2_11char_traitsIcEENS2_9allocatorIcEEEEbxydS8_NS0_14adl_serializerENS4_IhNS8_IhEEEEE3getIddEEDTcldtclL_ZNS2_7declvalB8ne180100IRKSE_EEDTclsr3stdE9__declvalIT_ELi0EEEvEE8get_implIT0_EtlNS0_6detail12priority_tagILj4EEEEEEv, symObjAddr: 0x2850, symBinAddr: 0x1000057DC, symSize: 0x24 }
  - { offset: 0x342A4, size: 0x8, addend: 0x0, symName: __ZNK8nlohmann16json_abi_v3_11_210basic_jsonINSt3__13mapENS2_6vectorENS2_12basic_stringIcNS2_11char_traitsIcEENS2_9allocatorIcEEEEbxydS8_NS0_14adl_serializerENS4_IhNS8_IhEEEEE3getIxxEEDTcldtclL_ZNS2_7declvalB8ne180100IRKSE_EEDTclsr3stdE9__declvalIT_ELi0EEEvEE8get_implIT0_EtlNS0_6detail12priority_tagILj4EEEEEEv, symObjAddr: 0x2874, symBinAddr: 0x100005800, symSize: 0x24 }
  - { offset: 0x342DC, size: 0x8, addend: 0x0, symName: __ZNK8nlohmann16json_abi_v3_11_210basic_jsonINSt3__13mapENS2_6vectorENS2_12basic_stringIcNS2_11char_traitsIcEENS2_9allocatorIcEEEEbxydS8_NS0_14adl_serializerENS4_IhNS8_IhEEEEE18is_number_unsignedEv, symObjAddr: 0x2898, symBinAddr: 0x100005824, symSize: 0x24 }
  - { offset: 0x34302, size: 0x8, addend: 0x0, symName: __ZNK8nlohmann16json_abi_v3_11_210basic_jsonINSt3__13mapENS2_6vectorENS2_12basic_stringIcNS2_11char_traitsIcEENS2_9allocatorIcEEEEbxydS8_NS0_14adl_serializerENS4_IhNS8_IhEEEEE3getIyyEEDTcldtclL_ZNS2_7declvalB8ne180100IRKSE_EEDTclsr3stdE9__declvalIT_ELi0EEEvEE8get_implIT0_EtlNS0_6detail12priority_tagILj4EEEEEEv, symObjAddr: 0x28BC, symBinAddr: 0x100005848, symSize: 0x24 }
  - { offset: 0x3433A, size: 0x8, addend: 0x0, symName: __ZNK8nlohmann16json_abi_v3_11_210basic_jsonINSt3__13mapENS2_6vectorENS2_12basic_stringIcNS2_11char_traitsIcEENS2_9allocatorIcEEEEbxydS8_NS0_14adl_serializerENS4_IhNS8_IhEEEEE7is_nullEv, symObjAddr: 0x28E0, symBinAddr: 0x10000586C, symSize: 0x24 }
  - { offset: 0x34360, size: 0x8, addend: 0x0, symName: __ZNK8nlohmann16json_abi_v3_11_210basic_jsonINSt3__13mapENS2_6vectorENS2_12basic_stringIcNS2_11char_traitsIcEENS2_9allocatorIcEEEEbxydS8_NS0_14adl_serializerENS4_IhNS8_IhEEEEE8get_implISA_Li0EEET_NS0_6detail12priority_tagILj0EEE, symObjAddr: 0x2904, symBinAddr: 0x100005890, symSize: 0xA8 }
  - { offset: 0x343B0, size: 0x8, addend: 0x0, symName: __ZN8nlohmann16json_abi_v3_11_214adl_serializerINSt3__112basic_stringIcNS2_11char_traitsIcEENS2_9allocatorIcEEEEvE9from_jsonIRKNS0_10basic_jsonINS2_3mapENS2_6vectorES8_bxydS6_S1_NSD_IhNS6_IhEEEEEES8_EEDTcmclL_ZNS0_9from_jsonEEclsr3stdE7forwardIT_Efp_Efp0_Ecvv_EEOSJ_RT0_, symObjAddr: 0x29AC, symBinAddr: 0x100005938, symSize: 0x34 }
  - { offset: 0x343FB, size: 0x8, addend: 0x0, symName: __ZNK8nlohmann16json_abi_v3_11_26detail12from_json_fnclINS0_10basic_jsonINSt3__13mapENS5_6vectorENS5_12basic_stringIcNS5_11char_traitsIcEENS5_9allocatorIcEEEEbxydSB_NS0_14adl_serializerENS7_IhNSB_IhEEEEEERSD_EEDTcl9from_jsonfp_clsr3stdE7forwardIT0_Efp0_EEERKT_OSJ_, symObjAddr: 0x29E0, symBinAddr: 0x10000596C, symSize: 0x30 }
  - { offset: 0x34468, size: 0x8, addend: 0x0, symName: __ZN8nlohmann16json_abi_v3_11_26detail10type_error6createIPKNS0_10basic_jsonINSt3__13mapENS5_6vectorENS5_12basic_stringIcNS5_11char_traitsIcEENS5_9allocatorIcEEEEbxydSB_NS0_14adl_serializerENS7_IhNSB_IhEEEEEELi0EEES2_iRKSD_T_, symObjAddr: 0x2B28, symBinAddr: 0x100005AB4, symSize: 0x130 }
  - { offset: 0x344C8, size: 0x8, addend: 0x0, symName: __ZNK8nlohmann16json_abi_v3_11_210basic_jsonINSt3__13mapENS2_6vectorENS2_12basic_stringIcNS2_11char_traitsIcEENS2_9allocatorIcEEEEbxydS8_NS0_14adl_serializerENS4_IhNS8_IhEEEEE9type_nameEv, symObjAddr: 0x2D24, symBinAddr: 0x100005CB0, symSize: 0xD8 }
  - { offset: 0x344EE, size: 0x8, addend: 0x0, symName: __ZN8nlohmann16json_abi_v3_11_26detail10type_errorD1Ev, symObjAddr: 0x2E24, symBinAddr: 0x100005DB0, symSize: 0x2C }
  - { offset: 0x3451B, size: 0x8, addend: 0x0, symName: __ZNK8nlohmann16json_abi_v3_11_210basic_jsonINSt3__13mapENS2_6vectorENS2_12basic_stringIcNS2_11char_traitsIcEENS2_9allocatorIcEEEEbxydS8_NS0_14adl_serializerENS4_IhNS8_IhEEEEE7get_ptrIPKSA_Li0EEEDTcldtclL_ZNS2_7declvalB8ne180100IRKSE_EEDTclsr3stdE9__declvalIT_ELi0EEEvEE12get_impl_ptrclsr3stdE7declvalISL_EEEEv, symObjAddr: 0x2E50, symBinAddr: 0x100005DDC, symSize: 0x28 }
  - { offset: 0x34550, size: 0x8, addend: 0x0, symName: __ZN8nlohmann16json_abi_v3_11_26detail9exception4nameERKNSt3__112basic_stringIcNS3_11char_traitsIcEENS3_9allocatorIcEEEEi, symObjAddr: 0x2F50, symBinAddr: 0x100005EDC, symSize: 0xA0 }
  - { offset: 0x34583, size: 0x8, addend: 0x0, symName: __ZN8nlohmann16json_abi_v3_11_26detail9exception11diagnosticsINS0_10basic_jsonINSt3__13mapENS5_6vectorENS5_12basic_stringIcNS5_11char_traitsIcEENS5_9allocatorIcEEEEbxydSB_NS0_14adl_serializerENS7_IhNSB_IhEEEEEEEESD_PKT_, symObjAddr: 0x2FF0, symBinAddr: 0x100005F7C, symSize: 0x3C }
  - { offset: 0x345B0, size: 0x8, addend: 0x0, symName: __ZNKSt3__112basic_stringIcNS_11char_traitsIcEENS_9allocatorIcEEE5c_strB8ne180100Ev, symObjAddr: 0x302C, symBinAddr: 0x100005FB8, symSize: 0x24 }
  - { offset: 0x345D6, size: 0x8, addend: 0x0, symName: __ZN8nlohmann16json_abi_v3_11_26detail10type_errorC1EiPKc, symObjAddr: 0x3050, symBinAddr: 0x100005FDC, symSize: 0x3C }
  - { offset: 0x3461E, size: 0x8, addend: 0x0, symName: __ZNKSt3__112basic_stringIcNS_11char_traitsIcEENS_9allocatorIcEEE4sizeB8ne180100Ev, symObjAddr: 0x3118, symBinAddr: 0x1000060A4, symSize: 0x54 }
  - { offset: 0x34644, size: 0x8, addend: 0x0, symName: __ZNKSt3__112basic_stringIcNS_11char_traitsIcEENS_9allocatorIcEEE9__is_longB8ne180100Ev, symObjAddr: 0x31AC, symBinAddr: 0x100006138, symSize: 0x38 }
  - { offset: 0x3466A, size: 0x8, addend: 0x0, symName: __ZNKSt3__112basic_stringIcNS_11char_traitsIcEENS_9allocatorIcEEE15__get_long_sizeB8ne180100Ev, symObjAddr: 0x31E4, symBinAddr: 0x100006170, symSize: 0x28 }
  - { offset: 0x34690, size: 0x8, addend: 0x0, symName: __ZNKSt3__112basic_stringIcNS_11char_traitsIcEENS_9allocatorIcEEE16__get_short_sizeB8ne180100Ev, symObjAddr: 0x320C, symBinAddr: 0x100006198, symSize: 0x34 }
  - { offset: 0x346B6, size: 0x8, addend: 0x0, symName: __ZNKSt3__117__compressed_pairINS_12basic_stringIcNS_11char_traitsIcEENS_9allocatorIcEEE5__repES5_E5firstB8ne180100Ev, symObjAddr: 0x3240, symBinAddr: 0x1000061CC, symSize: 0x24 }
  - { offset: 0x346DC, size: 0x8, addend: 0x0, symName: __ZNKSt3__122__compressed_pair_elemINS_12basic_stringIcNS_11char_traitsIcEENS_9allocatorIcEEE5__repELi0ELb0EE5__getB8ne180100Ev, symObjAddr: 0x3264, symBinAddr: 0x1000061F0, symSize: 0x14 }
  - { offset: 0x34702, size: 0x8, addend: 0x0, symName: __ZNSt3__112basic_stringIcNS_11char_traitsIcEENS_9allocatorIcEEE6appendB8ne180100ERKS5_, symObjAddr: 0x32B8, symBinAddr: 0x100006244, symSize: 0x4C }
  - { offset: 0x34737, size: 0x8, addend: 0x0, symName: __ZNKSt3__112basic_stringIcNS_11char_traitsIcEENS_9allocatorIcEEE4dataB8ne180100Ev, symObjAddr: 0x3340, symBinAddr: 0x1000062CC, symSize: 0x28 }
  - { offset: 0x3475D, size: 0x8, addend: 0x0, symName: __ZNKSt3__112basic_stringIcNS_11char_traitsIcEENS_9allocatorIcEEE13__get_pointerB8ne180100Ev, symObjAddr: 0x337C, symBinAddr: 0x100006308, symSize: 0x54 }
  - { offset: 0x34783, size: 0x8, addend: 0x0, symName: __ZNKSt3__112basic_stringIcNS_11char_traitsIcEENS_9allocatorIcEEE18__get_long_pointerB8ne180100Ev, symObjAddr: 0x33D0, symBinAddr: 0x10000635C, symSize: 0x28 }
  - { offset: 0x347A9, size: 0x8, addend: 0x0, symName: __ZNKSt3__112basic_stringIcNS_11char_traitsIcEENS_9allocatorIcEEE19__get_short_pointerB8ne180100Ev, symObjAddr: 0x33F8, symBinAddr: 0x100006384, symSize: 0x28 }
  - { offset: 0x347CF, size: 0x8, addend: 0x0, symName: __ZNSt3__114pointer_traitsIPKcE10pointer_toB8ne180100ERS1_, symObjAddr: 0x3420, symBinAddr: 0x1000063AC, symSize: 0x14 }
  - { offset: 0x347F3, size: 0x8, addend: 0x0, symName: __ZNSt3__112basic_stringIcNS_11char_traitsIcEENS_9allocatorIcEEEpLB8ne180100Ec, symObjAddr: 0x37A8, symBinAddr: 0x100006734, symSize: 0x34 }
  - { offset: 0x34828, size: 0x8, addend: 0x0, symName: __ZN8nlohmann16json_abi_v3_11_26detail10type_errorC2EiPKc, symObjAddr: 0x384C, symBinAddr: 0x1000067D8, symSize: 0x4C }
  - { offset: 0x34870, size: 0x8, addend: 0x0, symName: __ZN8nlohmann16json_abi_v3_11_26detail9exceptionC2EiPKc, symObjAddr: 0x3898, symBinAddr: 0x100006824, symSize: 0x84 }
  - { offset: 0x348B8, size: 0x8, addend: 0x0, symName: __ZN8nlohmann16json_abi_v3_11_26detail10type_errorD0Ev, symObjAddr: 0x391C, symBinAddr: 0x1000068A8, symSize: 0x30 }
  - { offset: 0x348E5, size: 0x8, addend: 0x0, symName: __ZNK8nlohmann16json_abi_v3_11_26detail9exception4whatEv, symObjAddr: 0x394C, symBinAddr: 0x1000068D8, symSize: 0x28 }
  - { offset: 0x3490B, size: 0x8, addend: 0x0, symName: __ZNSt9exceptionC2B8ne180100Ev, symObjAddr: 0x3974, symBinAddr: 0x100006900, symSize: 0x24 }
  - { offset: 0x34935, size: 0x8, addend: 0x0, symName: __ZN8nlohmann16json_abi_v3_11_26detail9exceptionD1Ev, symObjAddr: 0x3998, symBinAddr: 0x100006924, symSize: 0x2C }
  - { offset: 0x34962, size: 0x8, addend: 0x0, symName: __ZN8nlohmann16json_abi_v3_11_26detail9exceptionD0Ev, symObjAddr: 0x39C4, symBinAddr: 0x100006950, symSize: 0x30 }
  - { offset: 0x3498F, size: 0x8, addend: 0x0, symName: __ZN8nlohmann16json_abi_v3_11_26detail9exceptionD2Ev, symObjAddr: 0x39F4, symBinAddr: 0x100006980, symSize: 0x48 }
  - { offset: 0x349BC, size: 0x8, addend: 0x0, symName: __ZN8nlohmann16json_abi_v3_11_26detail10type_errorD2Ev, symObjAddr: 0x3AF4, symBinAddr: 0x100006A80, symSize: 0x2C }
  - { offset: 0x349E9, size: 0x8, addend: 0x0, symName: __ZNK8nlohmann16json_abi_v3_11_210basic_jsonINSt3__13mapENS2_6vectorENS2_12basic_stringIcNS2_11char_traitsIcEENS2_9allocatorIcEEEEbxydS8_NS0_14adl_serializerENS4_IhNS8_IhEEEEE12get_impl_ptrEPKSA_, symObjAddr: 0x3B20, symBinAddr: 0x100006AAC, symSize: 0x54 }
  - { offset: 0x34A1A, size: 0x8, addend: 0x0, symName: __ZNK8nlohmann16json_abi_v3_11_210basic_jsonINSt3__13mapENS2_6vectorENS2_12basic_stringIcNS2_11char_traitsIcEENS2_9allocatorIcEEEEbxydS8_NS0_14adl_serializerENS4_IhNS8_IhEEEEE8get_implIbLi0EEET_NS0_6detail12priority_tagILj0EEE, symObjAddr: 0x3B74, symBinAddr: 0x100006B00, symSize: 0x34 }
  - { offset: 0x34A69, size: 0x8, addend: 0x0, symName: __ZN8nlohmann16json_abi_v3_11_214adl_serializerIbvE9from_jsonIRKNS0_10basic_jsonINSt3__13mapENS5_6vectorENS5_12basic_stringIcNS5_11char_traitsIcEENS5_9allocatorIcEEEEbxydSB_S1_NS7_IhNSB_IhEEEEEEbEEDTcmclL_ZNS0_9from_jsonEEclsr3stdE7forwardIT_Efp_Efp0_Ecvv_EEOSJ_RT0_, symObjAddr: 0x3BA8, symBinAddr: 0x100006B34, symSize: 0x34 }
  - { offset: 0x34AAE, size: 0x8, addend: 0x0, symName: __ZNK8nlohmann16json_abi_v3_11_26detail12from_json_fnclINS0_10basic_jsonINSt3__13mapENS5_6vectorENS5_12basic_stringIcNS5_11char_traitsIcEENS5_9allocatorIcEEEEbxydSB_NS0_14adl_serializerENS7_IhNSB_IhEEEEEERbEEDTcl9from_jsonfp_clsr3stdE7forwardIT0_Efp0_EEERKT_OSJ_, symObjAddr: 0x3BDC, symBinAddr: 0x100006B68, symSize: 0x30 }
  - { offset: 0x34B04, size: 0x8, addend: 0x0, symName: __ZNK8nlohmann16json_abi_v3_11_210basic_jsonINSt3__13mapENS2_6vectorENS2_12basic_stringIcNS2_11char_traitsIcEENS2_9allocatorIcEEEEbxydS8_NS0_14adl_serializerENS4_IhNS8_IhEEEEE7get_ptrIPKbLi0EEEDTcldtclL_ZNS2_7declvalB8ne180100IRKSE_EEDTclsr3stdE9__declvalIT_ELi0EEEvEE12get_impl_ptrclsr3stdE7declvalISL_EEEEv, symObjAddr: 0x3DF4, symBinAddr: 0x100006D80, symSize: 0x28 }
  - { offset: 0x34B39, size: 0x8, addend: 0x0, symName: __ZNK8nlohmann16json_abi_v3_11_210basic_jsonINSt3__13mapENS2_6vectorENS2_12basic_stringIcNS2_11char_traitsIcEENS2_9allocatorIcEEEEbxydS8_NS0_14adl_serializerENS4_IhNS8_IhEEEEE12get_impl_ptrEPKb, symObjAddr: 0x3E58, symBinAddr: 0x100006DE4, symSize: 0x54 }
  - { offset: 0x34B6A, size: 0x8, addend: 0x0, symName: __ZNK8nlohmann16json_abi_v3_11_210basic_jsonINSt3__13mapENS2_6vectorENS2_12basic_stringIcNS2_11char_traitsIcEENS2_9allocatorIcEEEEbxydS8_NS0_14adl_serializerENS4_IhNS8_IhEEEEE8get_implIdLi0EEET_NS0_6detail12priority_tagILj0EEE, symObjAddr: 0x3EAC, symBinAddr: 0x100006E38, symSize: 0x34 }
  - { offset: 0x34BB9, size: 0x8, addend: 0x0, symName: __ZN8nlohmann16json_abi_v3_11_214adl_serializerIdvE9from_jsonIRKNS0_10basic_jsonINSt3__13mapENS5_6vectorENS5_12basic_stringIcNS5_11char_traitsIcEENS5_9allocatorIcEEEEbxydSB_S1_NS7_IhNSB_IhEEEEEEdEEDTcmclL_ZNS0_9from_jsonEEclsr3stdE7forwardIT_Efp_Efp0_Ecvv_EEOSJ_RT0_, symObjAddr: 0x3EE0, symBinAddr: 0x100006E6C, symSize: 0x34 }
  - { offset: 0x34BFE, size: 0x8, addend: 0x0, symName: __ZNK8nlohmann16json_abi_v3_11_26detail12from_json_fnclINS0_10basic_jsonINSt3__13mapENS5_6vectorENS5_12basic_stringIcNS5_11char_traitsIcEENS5_9allocatorIcEEEEbxydSB_NS0_14adl_serializerENS7_IhNSB_IhEEEEEERdEEDTcl9from_jsonfp_clsr3stdE7forwardIT0_Efp0_EEERKT_OSJ_, symObjAddr: 0x3F14, symBinAddr: 0x100006EA0, symSize: 0x30 }
  - { offset: 0x34C54, size: 0x8, addend: 0x0, symName: __ZNK8nlohmann16json_abi_v3_11_210basic_jsonINSt3__13mapENS2_6vectorENS2_12basic_stringIcNS2_11char_traitsIcEENS2_9allocatorIcEEEEbxydS8_NS0_14adl_serializerENS4_IhNS8_IhEEEEEcvNS0_6detail7value_tEEv, symObjAddr: 0x4120, symBinAddr: 0x1000070AC, symSize: 0x18 }
  - { offset: 0x34C7A, size: 0x8, addend: 0x0, symName: __ZNK8nlohmann16json_abi_v3_11_210basic_jsonINSt3__13mapENS2_6vectorENS2_12basic_stringIcNS2_11char_traitsIcEENS2_9allocatorIcEEEEbxydS8_NS0_14adl_serializerENS4_IhNS8_IhEEEEE7get_ptrIPKyLi0EEEDTcldtclL_ZNS2_7declvalB8ne180100IRKSE_EEDTclsr3stdE9__declvalIT_ELi0EEEvEE12get_impl_ptrclsr3stdE7declvalISL_EEEEv, symObjAddr: 0x4138, symBinAddr: 0x1000070C4, symSize: 0x28 }
  - { offset: 0x34CAF, size: 0x8, addend: 0x0, symName: __ZNK8nlohmann16json_abi_v3_11_210basic_jsonINSt3__13mapENS2_6vectorENS2_12basic_stringIcNS2_11char_traitsIcEENS2_9allocatorIcEEEEbxydS8_NS0_14adl_serializerENS4_IhNS8_IhEEEEE7get_ptrIPKxLi0EEEDTcldtclL_ZNS2_7declvalB8ne180100IRKSE_EEDTclsr3stdE9__declvalIT_ELi0EEEvEE12get_impl_ptrclsr3stdE7declvalISL_EEEEv, symObjAddr: 0x4160, symBinAddr: 0x1000070EC, symSize: 0x28 }
  - { offset: 0x34CE4, size: 0x8, addend: 0x0, symName: __ZNK8nlohmann16json_abi_v3_11_210basic_jsonINSt3__13mapENS2_6vectorENS2_12basic_stringIcNS2_11char_traitsIcEENS2_9allocatorIcEEEEbxydS8_NS0_14adl_serializerENS4_IhNS8_IhEEEEE7get_ptrIPKdLi0EEEDTcldtclL_ZNS2_7declvalB8ne180100IRKSE_EEDTclsr3stdE9__declvalIT_ELi0EEEvEE12get_impl_ptrclsr3stdE7declvalISL_EEEEv, symObjAddr: 0x4188, symBinAddr: 0x100007114, symSize: 0x28 }
  - { offset: 0x34D19, size: 0x8, addend: 0x0, symName: __ZNK8nlohmann16json_abi_v3_11_210basic_jsonINSt3__13mapENS2_6vectorENS2_12basic_stringIcNS2_11char_traitsIcEENS2_9allocatorIcEEEEbxydS8_NS0_14adl_serializerENS4_IhNS8_IhEEEEE12get_impl_ptrEPKy, symObjAddr: 0x41B0, symBinAddr: 0x10000713C, symSize: 0x54 }
  - { offset: 0x34D4A, size: 0x8, addend: 0x0, symName: __ZNK8nlohmann16json_abi_v3_11_210basic_jsonINSt3__13mapENS2_6vectorENS2_12basic_stringIcNS2_11char_traitsIcEENS2_9allocatorIcEEEEbxydS8_NS0_14adl_serializerENS4_IhNS8_IhEEEEE12get_impl_ptrEPKx, symObjAddr: 0x4204, symBinAddr: 0x100007190, symSize: 0x54 }
  - { offset: 0x34D7B, size: 0x8, addend: 0x0, symName: __ZNK8nlohmann16json_abi_v3_11_210basic_jsonINSt3__13mapENS2_6vectorENS2_12basic_stringIcNS2_11char_traitsIcEENS2_9allocatorIcEEEEbxydS8_NS0_14adl_serializerENS4_IhNS8_IhEEEEE12get_impl_ptrEPKd, symObjAddr: 0x4258, symBinAddr: 0x1000071E4, symSize: 0x54 }
  - { offset: 0x34DAC, size: 0x8, addend: 0x0, symName: __ZNK8nlohmann16json_abi_v3_11_210basic_jsonINSt3__13mapENS2_6vectorENS2_12basic_stringIcNS2_11char_traitsIcEENS2_9allocatorIcEEEEbxydS8_NS0_14adl_serializerENS4_IhNS8_IhEEEEE8get_implIxLi0EEET_NS0_6detail12priority_tagILj0EEE, symObjAddr: 0x42AC, symBinAddr: 0x100007238, symSize: 0x30 }
  - { offset: 0x34DFB, size: 0x8, addend: 0x0, symName: __ZN8nlohmann16json_abi_v3_11_214adl_serializerIxvE9from_jsonIRKNS0_10basic_jsonINSt3__13mapENS5_6vectorENS5_12basic_stringIcNS5_11char_traitsIcEENS5_9allocatorIcEEEEbxydSB_S1_NS7_IhNSB_IhEEEEEExEEDTcmclL_ZNS0_9from_jsonEEclsr3stdE7forwardIT_Efp_Efp0_Ecvv_EEOSJ_RT0_, symObjAddr: 0x42DC, symBinAddr: 0x100007268, symSize: 0x34 }
  - { offset: 0x34E40, size: 0x8, addend: 0x0, symName: __ZNK8nlohmann16json_abi_v3_11_26detail12from_json_fnclINS0_10basic_jsonINSt3__13mapENS5_6vectorENS5_12basic_stringIcNS5_11char_traitsIcEENS5_9allocatorIcEEEEbxydSB_NS0_14adl_serializerENS7_IhNSB_IhEEEEEERxEEDTcl9from_jsonfp_clsr3stdE7forwardIT0_Efp0_EEERKT_OSJ_, symObjAddr: 0x4310, symBinAddr: 0x10000729C, symSize: 0x30 }
  - { offset: 0x34E96, size: 0x8, addend: 0x0, symName: __ZNK8nlohmann16json_abi_v3_11_210basic_jsonINSt3__13mapENS2_6vectorENS2_12basic_stringIcNS2_11char_traitsIcEENS2_9allocatorIcEEEEbxydS8_NS0_14adl_serializerENS4_IhNS8_IhEEEEE8get_implIyLi0EEET_NS0_6detail12priority_tagILj0EEE, symObjAddr: 0x4518, symBinAddr: 0x1000074A4, symSize: 0x30 }
  - { offset: 0x34EE5, size: 0x8, addend: 0x0, symName: __ZN8nlohmann16json_abi_v3_11_214adl_serializerIyvE9from_jsonIRKNS0_10basic_jsonINSt3__13mapENS5_6vectorENS5_12basic_stringIcNS5_11char_traitsIcEENS5_9allocatorIcEEEEbxydSB_S1_NS7_IhNSB_IhEEEEEEyEEDTcmclL_ZNS0_9from_jsonEEclsr3stdE7forwardIT_Efp_Efp0_Ecvv_EEOSJ_RT0_, symObjAddr: 0x4548, symBinAddr: 0x1000074D4, symSize: 0x34 }
  - { offset: 0x34F2A, size: 0x8, addend: 0x0, symName: __ZNK8nlohmann16json_abi_v3_11_26detail12from_json_fnclINS0_10basic_jsonINSt3__13mapENS5_6vectorENS5_12basic_stringIcNS5_11char_traitsIcEENS5_9allocatorIcEEEEbxydSB_NS0_14adl_serializerENS7_IhNSB_IhEEEEEERyEEDTcl9from_jsonfp_clsr3stdE7forwardIT0_Efp0_EEERKT_OSJ_, symObjAddr: 0x457C, symBinAddr: 0x100007508, symSize: 0x30 }
  - { offset: 0x34F80, size: 0x8, addend: 0x0, symName: __ZN8nlohmann16json_abi_v3_11_26detail21iteration_proxy_valueINS1_9iter_implIKNS0_10basic_jsonINSt3__13mapENS5_6vectorENS5_12basic_stringIcNS5_11char_traitsIcEENS5_9allocatorIcEEEEbxydSB_NS0_14adl_serializerENS7_IhNSB_IhEEEEEEEEED2Ev, symObjAddr: 0x4784, symBinAddr: 0x100007710, symSize: 0x3C }
  - { offset: 0x34FAA, size: 0x8, addend: 0x0, symName: __ZNKSt3__111__wrap_iterIPNS_10shared_ptrI8TreeNodeEEE4baseB8ne180100Ev, symObjAddr: 0x4808, symBinAddr: 0x100007794, symSize: 0x18 }
  - { offset: 0x34FD0, size: 0x8, addend: 0x0, symName: __ZNKSt3__112basic_stringIcNS_11char_traitsIcEENS_9allocatorIcEEE5beginB8ne180100Ev, symObjAddr: 0x4820, symBinAddr: 0x1000077AC, symSize: 0x4C }
  - { offset: 0x34FF6, size: 0x8, addend: 0x0, symName: __ZNKSt3__112basic_stringIcNS_11char_traitsIcEENS_9allocatorIcEEE3endB8ne180100Ev, symObjAddr: 0x486C, symBinAddr: 0x1000077F8, symSize: 0x54 }
  - { offset: 0x3501C, size: 0x8, addend: 0x0, symName: __ZNKSt3__111__wrap_iterIPKcEdeB8ne180100Ev, symObjAddr: 0x48F4, symBinAddr: 0x100007880, symSize: 0x18 }
  - { offset: 0x35042, size: 0x8, addend: 0x0, symName: __ZNSt3__111__wrap_iterIPKcEppB8ne180100Ev, symObjAddr: 0x490C, symBinAddr: 0x100007898, symSize: 0x20 }
  - { offset: 0x35068, size: 0x8, addend: 0x0, symName: __ZNKSt3__112basic_stringIcNS_11char_traitsIcEENS_9allocatorIcEEE21__make_const_iteratorB8ne180100EPKc, symObjAddr: 0x492C, symBinAddr: 0x1000078B8, symSize: 0x30 }
  - { offset: 0x3509D, size: 0x8, addend: 0x0, symName: __ZNSt3__111__wrap_iterIPKcEC1B8ne180100ES2_, symObjAddr: 0x495C, symBinAddr: 0x1000078E8, symSize: 0x34 }
  - { offset: 0x350D6, size: 0x8, addend: 0x0, symName: __ZNSt3__111__wrap_iterIPKcEC2B8ne180100ES2_, symObjAddr: 0x4990, symBinAddr: 0x10000791C, symSize: 0x20 }
  - { offset: 0x3510F, size: 0x8, addend: 0x0, symName: __ZNKSt3__111__wrap_iterIPKcE4baseB8ne180100Ev, symObjAddr: 0x49F8, symBinAddr: 0x100007984, symSize: 0x18 }
  - { offset: 0x35135, size: 0x8, addend: 0x0, symName: __ZNSt3__119basic_ostringstreamIcNS_11char_traitsIcEENS_9allocatorIcEEED2Ev, symObjAddr: 0x4A10, symBinAddr: 0x10000799C, symSize: 0x64 }
  - { offset: 0x3516F, size: 0x8, addend: 0x0, symName: __ZTv0_n24_NSt3__119basic_ostringstreamIcNS_11char_traitsIcEENS_9allocatorIcEEED1Ev, symObjAddr: 0x4A74, symBinAddr: 0x100007A00, symSize: 0x28 }
  - { offset: 0x3518C, size: 0x8, addend: 0x0, symName: __ZNSt3__115basic_stringbufIcNS_11char_traitsIcEENS_9allocatorIcEEED1Ev, symObjAddr: 0x4A9C, symBinAddr: 0x100007A28, symSize: 0x2C }
  - { offset: 0x351B9, size: 0x8, addend: 0x0, symName: __ZNSt3__115basic_stringbufIcNS_11char_traitsIcEENS_9allocatorIcEEED2Ev, symObjAddr: 0x4AC8, symBinAddr: 0x100007A54, symSize: 0x48 }
  - { offset: 0x351E6, size: 0x8, addend: 0x0, symName: __ZNSt3__114basic_ofstreamIcNS_11char_traitsIcEEED2Ev, symObjAddr: 0x4B10, symBinAddr: 0x100007A9C, symSize: 0x64 }
  - { offset: 0x35220, size: 0x8, addend: 0x0, symName: __ZTv0_n24_NSt3__114basic_ofstreamIcNS_11char_traitsIcEEED1Ev, symObjAddr: 0x4B74, symBinAddr: 0x100007B00, symSize: 0x28 }
  - { offset: 0x35237, size: 0x8, addend: 0x0, symName: __ZNSt3__110shared_ptrI8TreeNodeEC2B8ne180100EDn, symObjAddr: 0x4B9C, symBinAddr: 0x100007B28, symSize: 0x20 }
  - { offset: 0x3526C, size: 0x8, addend: 0x0, symName: __ZNSt3__114basic_ifstreamIcNS_11char_traitsIcEEED2Ev, symObjAddr: 0x4BBC, symBinAddr: 0x100007B48, symSize: 0x64 }
  - { offset: 0x352A6, size: 0x8, addend: 0x0, symName: __ZTv0_n24_NSt3__114basic_ifstreamIcNS_11char_traitsIcEEED1Ev, symObjAddr: 0x4C20, symBinAddr: 0x100007BAC, symSize: 0x28 }
  - { offset: 0x352BD, size: 0x8, addend: 0x0, symName: __ZNSt3__112basic_stringIcNS_11char_traitsIcEENS_9allocatorIcEEEC2B8ne180100Ev, symObjAddr: 0x4C48, symBinAddr: 0x100007BD4, symSize: 0x48 }
  - { offset: 0x352F3, size: 0x8, addend: 0x0, symName: __ZNSt3__117__compressed_pairINS_12basic_stringIcNS_11char_traitsIcEENS_9allocatorIcEEE5__repES5_EC1B8ne180100INS_16__value_init_tagENS_18__default_init_tagEEEOT_OT0_, symObjAddr: 0x4C90, symBinAddr: 0x100007C1C, symSize: 0x3C }
  - { offset: 0x3534D, size: 0x8, addend: 0x0, symName: __ZNKSt3__112basic_stringIcNS_11char_traitsIcEENS_9allocatorIcEEE14__annotate_newB8ne180100Em, symObjAddr: 0x4CCC, symBinAddr: 0x100007C58, symSize: 0x14 }
  - { offset: 0x35382, size: 0x8, addend: 0x0, symName: __ZNSt3__117__compressed_pairINS_12basic_stringIcNS_11char_traitsIcEENS_9allocatorIcEEE5__repES5_EC2B8ne180100INS_16__value_init_tagENS_18__default_init_tagEEEOT_OT0_, symObjAddr: 0x4CE0, symBinAddr: 0x100007C6C, symSize: 0x3C }
  - { offset: 0x353DC, size: 0x8, addend: 0x0, symName: __ZNSt3__122__compressed_pair_elemINS_12basic_stringIcNS_11char_traitsIcEENS_9allocatorIcEEE5__repELi0ELb0EEC2B8ne180100ENS_16__value_init_tagE, symObjAddr: 0x4D1C, symBinAddr: 0x100007CA8, symSize: 0x20 }
  - { offset: 0x35411, size: 0x8, addend: 0x0, symName: __ZNSt3__122__compressed_pair_elemINS_9allocatorIcEELi1ELb1EEC2B8ne180100ENS_18__default_init_tagE, symObjAddr: 0x4D3C, symBinAddr: 0x100007CC8, symSize: 0x2C }
  - { offset: 0x35446, size: 0x8, addend: 0x0, symName: __ZNSt3__19allocatorIcEC2B8ne180100Ev, symObjAddr: 0x4D68, symBinAddr: 0x100007CF4, symSize: 0x2C }
  - { offset: 0x35470, size: 0x8, addend: 0x0, symName: __ZNSt3__116__non_trivial_ifILb1ENS_9allocatorIcEEEC2B8ne180100Ev, symObjAddr: 0x4D94, symBinAddr: 0x100007D20, symSize: 0x14 }
  - { offset: 0x3549A, size: 0x8, addend: 0x0, symName: __ZNSt3__112basic_stringIcNS_11char_traitsIcEENS_9allocatorIcEEE13__move_assignB8ne180100ERS5_NS_17integral_constantIbLb1EEE, symObjAddr: 0x4DA8, symBinAddr: 0x100007D34, symSize: 0x17C }
  - { offset: 0x354FA, size: 0x8, addend: 0x0, symName: __ZNKSt3__112basic_stringIcNS_11char_traitsIcEENS_9allocatorIcEEE17__annotate_deleteB8ne180100Ev, symObjAddr: 0x4F24, symBinAddr: 0x100007EB0, symSize: 0x10 }
  - { offset: 0x35520, size: 0x8, addend: 0x0, symName: __ZNSt3__116allocator_traitsINS_9allocatorIcEEE10deallocateB8ne180100ERS2_Pcm, symObjAddr: 0x4F34, symBinAddr: 0x100007EC0, symSize: 0x34 }
  - { offset: 0x35562, size: 0x8, addend: 0x0, symName: __ZNSt3__112basic_stringIcNS_11char_traitsIcEENS_9allocatorIcEEE7__allocB8ne180100Ev, symObjAddr: 0x4F68, symBinAddr: 0x100007EF4, symSize: 0x24 }
  - { offset: 0x35588, size: 0x8, addend: 0x0, symName: __ZNSt3__112basic_stringIcNS_11char_traitsIcEENS_9allocatorIcEEE18__get_long_pointerB8ne180100Ev, symObjAddr: 0x4F8C, symBinAddr: 0x100007F18, symSize: 0x28 }
  - { offset: 0x355AE, size: 0x8, addend: 0x0, symName: __ZNKSt3__112basic_stringIcNS_11char_traitsIcEENS_9allocatorIcEEE14__get_long_capB8ne180100Ev, symObjAddr: 0x4FB4, symBinAddr: 0x100007F40, symSize: 0x30 }
  - { offset: 0x355D4, size: 0x8, addend: 0x0, symName: __ZNSt3__112basic_stringIcNS_11char_traitsIcEENS_9allocatorIcEEE19__move_assign_allocB8ne180100ERS5_, symObjAddr: 0x4FE4, symBinAddr: 0x100007F70, symSize: 0x2C }
  - { offset: 0x35609, size: 0x8, addend: 0x0, symName: __ZNSt3__117__compressed_pairINS_12basic_stringIcNS_11char_traitsIcEENS_9allocatorIcEEE5__repES5_E5firstB8ne180100Ev, symObjAddr: 0x5010, symBinAddr: 0x100007F9C, symSize: 0x24 }
  - { offset: 0x3562F, size: 0x8, addend: 0x0, symName: __ZNSt3__112basic_stringIcNS_11char_traitsIcEENS_9allocatorIcEEE16__set_short_sizeB8ne180100Em, symObjAddr: 0x5034, symBinAddr: 0x100007FC0, symSize: 0x78 }
  - { offset: 0x35664, size: 0x8, addend: 0x0, symName: __ZNSt3__111char_traitsIcE6assignB8ne180100ERcRKc, symObjAddr: 0x50AC, symBinAddr: 0x100008038, symSize: 0x24 }
  - { offset: 0x35697, size: 0x8, addend: 0x0, symName: __ZNSt3__112basic_stringIcNS_11char_traitsIcEENS_9allocatorIcEEE19__get_short_pointerB8ne180100Ev, symObjAddr: 0x50D0, symBinAddr: 0x10000805C, symSize: 0x28 }
  - { offset: 0x356BD, size: 0x8, addend: 0x0, symName: __ZNKSt3__112basic_stringIcNS_11char_traitsIcEENS_9allocatorIcEEE17__annotate_shrinkB8ne180100Em, symObjAddr: 0x50F8, symBinAddr: 0x100008084, symSize: 0x14 }
  - { offset: 0x356F2, size: 0x8, addend: 0x0, symName: __ZNSt3__19allocatorIcE10deallocateB8ne180100EPcm, symObjAddr: 0x510C, symBinAddr: 0x100008098, symSize: 0x40 }
  - { offset: 0x35736, size: 0x8, addend: 0x0, symName: __ZNSt3__117__compressed_pairINS_12basic_stringIcNS_11char_traitsIcEENS_9allocatorIcEEE5__repES5_E6secondB8ne180100Ev, symObjAddr: 0x5274, symBinAddr: 0x100008200, symSize: 0x24 }
  - { offset: 0x3575C, size: 0x8, addend: 0x0, symName: __ZNSt3__122__compressed_pair_elemINS_9allocatorIcEELi1ELb1EE5__getB8ne180100Ev, symObjAddr: 0x5298, symBinAddr: 0x100008224, symSize: 0x14 }
  - { offset: 0x35782, size: 0x8, addend: 0x0, symName: __ZNSt3__112basic_stringIcNS_11char_traitsIcEENS_9allocatorIcEEE19__move_assign_allocB8ne180100ERS5_NS_17integral_constantIbLb1EEE, symObjAddr: 0x52AC, symBinAddr: 0x100008238, symSize: 0x38 }
  - { offset: 0x357C2, size: 0x8, addend: 0x0, symName: __ZNSt3__122__compressed_pair_elemINS_12basic_stringIcNS_11char_traitsIcEENS_9allocatorIcEEE5__repELi0ELb0EE5__getB8ne180100Ev, symObjAddr: 0x52E4, symBinAddr: 0x100008270, symSize: 0x14 }
  - { offset: 0x357E8, size: 0x8, addend: 0x0, symName: __ZNSt3__114pointer_traitsIPcE10pointer_toB8ne180100ERc, symObjAddr: 0x52F8, symBinAddr: 0x100008284, symSize: 0x14 }
  - { offset: 0x3580C, size: 0x8, addend: 0x0, symName: __ZNSt3__112basic_stringIcNS_11char_traitsIcEENS_9allocatorIcEEEC2B8ne180100ILi0EEEPKc, symObjAddr: 0x530C, symBinAddr: 0x100008298, symSize: 0x58 }
  - { offset: 0x3584B, size: 0x8, addend: 0x0, symName: __ZNSt3__117__compressed_pairINS_12basic_stringIcNS_11char_traitsIcEENS_9allocatorIcEEE5__repES5_EC1B8ne180100INS_18__default_init_tagESA_EEOT_OT0_, symObjAddr: 0x5364, symBinAddr: 0x1000082F0, symSize: 0x3C }
  - { offset: 0x358A5, size: 0x8, addend: 0x0, symName: __ZNSt3__111char_traitsIcE6lengthB8ne180100EPKc, symObjAddr: 0x53A0, symBinAddr: 0x10000832C, symSize: 0x34 }
  - { offset: 0x358C9, size: 0x8, addend: 0x0, symName: __ZNSt3__117__compressed_pairINS_12basic_stringIcNS_11char_traitsIcEENS_9allocatorIcEEE5__repES5_EC2B8ne180100INS_18__default_init_tagESA_EEOT_OT0_, symObjAddr: 0x53D4, symBinAddr: 0x100008360, symSize: 0x3C }
  - { offset: 0x35923, size: 0x8, addend: 0x0, symName: __ZNSt3__122__compressed_pair_elemINS_12basic_stringIcNS_11char_traitsIcEENS_9allocatorIcEEE5__repELi0ELb0EEC2B8ne180100ENS_18__default_init_tagE, symObjAddr: 0x5410, symBinAddr: 0x10000839C, symSize: 0x14 }
  - { offset: 0x35958, size: 0x8, addend: 0x0, symName: __ZN8nlohmann16json_abi_v3_11_210basic_jsonINSt3__13mapENS2_6vectorENS2_12basic_stringIcNS2_11char_traitsIcEENS2_9allocatorIcEEEEbxydS8_NS0_14adl_serializerENS4_IhNS8_IhEEEEED2Ev, symObjAddr: 0x5448, symBinAddr: 0x1000083D4, symSize: 0x4C }
  - { offset: 0x35982, size: 0x8, addend: 0x0, symName: __ZNK8nlohmann16json_abi_v3_11_210basic_jsonINSt3__13mapENS2_6vectorENS2_12basic_stringIcNS2_11char_traitsIcEENS2_9allocatorIcEEEEbxydS8_NS0_14adl_serializerENS4_IhNS8_IhEEEEE16assert_invariantEb, symObjAddr: 0x5494, symBinAddr: 0x100008420, symSize: 0x1F0 }
  - { offset: 0x359B7, size: 0x8, addend: 0x0, symName: __ZN8nlohmann16json_abi_v3_11_210basic_jsonINSt3__13mapENS2_6vectorENS2_12basic_stringIcNS2_11char_traitsIcEENS2_9allocatorIcEEEEbxydS8_NS0_14adl_serializerENS4_IhNS8_IhEEEEE10json_value7destroyENS0_6detail7value_tE, symObjAddr: 0x5684, symBinAddr: 0x100008610, symSize: 0x464 }
  - { offset: 0x35B45, size: 0x8, addend: 0x0, symName: __ZNSt3__16vectorIN8nlohmann16json_abi_v3_11_210basic_jsonINS_3mapES0_NS_12basic_stringIcNS_11char_traitsIcEENS_9allocatorIcEEEEbxydS8_NS2_14adl_serializerENS0_IhNS8_IhEEEEEENS8_ISE_EEEC1B8ne180100Ev, symObjAddr: 0x5B10, symBinAddr: 0x100008A9C, symSize: 0x2C }
  - { offset: 0x35B6F, size: 0x8, addend: 0x0, symName: __ZNSt3__16vectorIN8nlohmann16json_abi_v3_11_210basic_jsonINS_3mapES0_NS_12basic_stringIcNS_11char_traitsIcEENS_9allocatorIcEEEEbxydS8_NS2_14adl_serializerENS0_IhNS8_IhEEEEEENS8_ISE_EEE7reserveEm, symObjAddr: 0x5B3C, symBinAddr: 0x100008AC8, symSize: 0xE8 }
  - { offset: 0x35BCC, size: 0x8, addend: 0x0, symName: __ZNKSt3__16vectorIN8nlohmann16json_abi_v3_11_210basic_jsonINS_3mapES0_NS_12basic_stringIcNS_11char_traitsIcEENS_9allocatorIcEEEEbxydS8_NS2_14adl_serializerENS0_IhNS8_IhEEEEEENS8_ISE_EEE4sizeB8ne180100Ev, symObjAddr: 0x5C24, symBinAddr: 0x100008BB0, symSize: 0x28 }
  - { offset: 0x35BF2, size: 0x8, addend: 0x0, symName: __ZNSt3__16vectorIN8nlohmann16json_abi_v3_11_210basic_jsonINS_3mapES0_NS_12basic_stringIcNS_11char_traitsIcEENS_9allocatorIcEEEEbxydS8_NS2_14adl_serializerENS0_IhNS8_IhEEEEEENS8_ISE_EEE5beginB8ne180100Ev, symObjAddr: 0x5CAC, symBinAddr: 0x100008C38, symSize: 0x30 }
  - { offset: 0x35C1A, size: 0x8, addend: 0x0, symName: __ZNSt3__16vectorIN8nlohmann16json_abi_v3_11_210basic_jsonINS_3mapES0_NS_12basic_stringIcNS_11char_traitsIcEENS_9allocatorIcEEEEbxydS8_NS2_14adl_serializerENS0_IhNS8_IhEEEEEENS8_ISE_EEE3endB8ne180100Ev, symObjAddr: 0x5CDC, symBinAddr: 0x100008C68, symSize: 0x30 }
  - { offset: 0x35C42, size: 0x8, addend: 0x0, symName: __ZNKSt3__13mapINS_12basic_stringIcNS_11char_traitsIcEENS_9allocatorIcEEEEN8nlohmann16json_abi_v3_11_210basic_jsonIS0_NS_6vectorES6_bxydS4_NS8_14adl_serializerENSA_IhNS4_IhEEEEEENS_4lessIvEENS4_INS_4pairIKS6_SE_EEEEE4sizeB8ne180100Ev, symObjAddr: 0x5D38, symBinAddr: 0x100008CC4, symSize: 0x28 }
  - { offset: 0x35C68, size: 0x8, addend: 0x0, symName: __ZNSt3__13mapINS_12basic_stringIcNS_11char_traitsIcEENS_9allocatorIcEEEEN8nlohmann16json_abi_v3_11_210basic_jsonIS0_NS_6vectorES6_bxydS4_NS8_14adl_serializerENSA_IhNS4_IhEEEEEENS_4lessIvEENS4_INS_4pairIKS6_SE_EEEEE5beginB8ne180100Ev, symObjAddr: 0x5D60, symBinAddr: 0x100008CEC, symSize: 0x38 }
  - { offset: 0x35C8E, size: 0x8, addend: 0x0, symName: __ZNSt3__13mapINS_12basic_stringIcNS_11char_traitsIcEENS_9allocatorIcEEEEN8nlohmann16json_abi_v3_11_210basic_jsonIS0_NS_6vectorES6_bxydS4_NS8_14adl_serializerENSA_IhNS4_IhEEEEEENS_4lessIvEENS4_INS_4pairIKS6_SE_EEEEE3endB8ne180100Ev, symObjAddr: 0x5D98, symBinAddr: 0x100008D24, symSize: 0x38 }
  - { offset: 0x35CB4, size: 0x8, addend: 0x0, symName: __ZNKSt3__114__map_iteratorINS_15__tree_iteratorINS_12__value_typeINS_12basic_stringIcNS_11char_traitsIcEENS_9allocatorIcEEEEN8nlohmann16json_abi_v3_11_210basic_jsonINS_3mapENS_6vectorES8_bxydS6_NSA_14adl_serializerENSD_IhNS6_IhEEEEEEEEPNS_11__tree_nodeISI_PvEElEEEdeB8ne180100Ev, symObjAddr: 0x5E00, symBinAddr: 0x100008D8C, symSize: 0x28 }
  - { offset: 0x35CDA, size: 0x8, addend: 0x0, symName: __ZNSt3__16vectorIN8nlohmann16json_abi_v3_11_210basic_jsonINS_3mapES0_NS_12basic_stringIcNS_11char_traitsIcEENS_9allocatorIcEEEEbxydS8_NS2_14adl_serializerENS0_IhNS8_IhEEEEEENS8_ISE_EEE9push_backB8ne180100EOSE_, symObjAddr: 0x5E28, symBinAddr: 0x100008DB4, symSize: 0x90 }
  - { offset: 0x35D20, size: 0x8, addend: 0x0, symName: __ZNSt3__114__map_iteratorINS_15__tree_iteratorINS_12__value_typeINS_12basic_stringIcNS_11char_traitsIcEENS_9allocatorIcEEEEN8nlohmann16json_abi_v3_11_210basic_jsonINS_3mapENS_6vectorES8_bxydS6_NSA_14adl_serializerENSD_IhNS6_IhEEEEEEEEPNS_11__tree_nodeISI_PvEElEEEppB8ne180100Ev, symObjAddr: 0x5EB8, symBinAddr: 0x100008E44, symSize: 0x2C }
  - { offset: 0x35D46, size: 0x8, addend: 0x0, symName: __ZNKSt3__16vectorIN8nlohmann16json_abi_v3_11_210basic_jsonINS_3mapES0_NS_12basic_stringIcNS_11char_traitsIcEENS_9allocatorIcEEEEbxydS8_NS2_14adl_serializerENS0_IhNS8_IhEEEEEENS8_ISE_EEE5emptyB8ne180100Ev, symObjAddr: 0x5EE4, symBinAddr: 0x100008E70, symSize: 0x28 }
  - { offset: 0x35D6C, size: 0x8, addend: 0x0, symName: __ZNSt3__16vectorIN8nlohmann16json_abi_v3_11_210basic_jsonINS_3mapES0_NS_12basic_stringIcNS_11char_traitsIcEENS_9allocatorIcEEEEbxydS8_NS2_14adl_serializerENS0_IhNS8_IhEEEEEENS8_ISE_EEE4backB8ne180100Ev, symObjAddr: 0x5F0C, symBinAddr: 0x100008E98, symSize: 0x1C }
  - { offset: 0x35D92, size: 0x8, addend: 0x0, symName: __ZN8nlohmann16json_abi_v3_11_210basic_jsonINSt3__13mapENS2_6vectorENS2_12basic_stringIcNS2_11char_traitsIcEENS2_9allocatorIcEEEEbxydS8_NS0_14adl_serializerENS4_IhNS8_IhEEEEEC1EOSE_, symObjAddr: 0x5F28, symBinAddr: 0x100008EB4, symSize: 0x34 }
  - { offset: 0x35DCB, size: 0x8, addend: 0x0, symName: __ZNSt3__16vectorIN8nlohmann16json_abi_v3_11_210basic_jsonINS_3mapES0_NS_12basic_stringIcNS_11char_traitsIcEENS_9allocatorIcEEEEbxydS8_NS2_14adl_serializerENS0_IhNS8_IhEEEEEENS8_ISE_EEE8pop_backEv, symObjAddr: 0x5F5C, symBinAddr: 0x100008EE8, symSize: 0x2C }
  - { offset: 0x35DF3, size: 0x8, addend: 0x0, symName: __ZNSt3__16vectorIN8nlohmann16json_abi_v3_11_210basic_jsonINS_3mapES0_NS_12basic_stringIcNS_11char_traitsIcEENS_9allocatorIcEEEEbxydS8_NS2_14adl_serializerENS0_IhNS8_IhEEEEEENS8_ISE_EEE5clearB8ne180100Ev, symObjAddr: 0x5F88, symBinAddr: 0x100008F14, symSize: 0x44 }
  - { offset: 0x35E28, size: 0x8, addend: 0x0, symName: __ZNSt3__13mapINS_12basic_stringIcNS_11char_traitsIcEENS_9allocatorIcEEEEN8nlohmann16json_abi_v3_11_210basic_jsonIS0_NS_6vectorES6_bxydS4_NS8_14adl_serializerENSA_IhNS4_IhEEEEEENS_4lessIvEENS4_INS_4pairIKS6_SE_EEEEE5clearB8ne180100Ev, symObjAddr: 0x5FCC, symBinAddr: 0x100008F58, symSize: 0x24 }
  - { offset: 0x35E4E, size: 0x8, addend: 0x0, symName: __ZNSt3__16vectorIN8nlohmann16json_abi_v3_11_210basic_jsonINS_3mapES0_NS_12basic_stringIcNS_11char_traitsIcEENS_9allocatorIcEEEEbxydS8_NS2_14adl_serializerENS0_IhNS8_IhEEEEEENS8_ISE_EEED1B8ne180100Ev, symObjAddr: 0x5FF0, symBinAddr: 0x100008F7C, symSize: 0x2C }
  - { offset: 0x35E95, size: 0x8, addend: 0x0, symName: __ZNSt3__19allocatorINS_3mapINS_12basic_stringIcNS_11char_traitsIcEENS0_IcEEEEN8nlohmann16json_abi_v3_11_210basic_jsonIS1_NS_6vectorES6_bxydS0_NS8_14adl_serializerENSA_IhNS0_IhEEEEEENS_4lessIvEENS0_INS_4pairIKS6_SE_EEEEEEEC1B8ne180100Ev, symObjAddr: 0x601C, symBinAddr: 0x100008FA8, symSize: 0x2C }
  - { offset: 0x35EC5, size: 0x8, addend: 0x0, symName: __ZNSt3__116allocator_traitsINS_9allocatorINS_3mapINS_12basic_stringIcNS_11char_traitsIcEENS1_IcEEEEN8nlohmann16json_abi_v3_11_210basic_jsonIS2_NS_6vectorES7_bxydS1_NS9_14adl_serializerENSB_IhNS1_IhEEEEEENS_4lessIvEENS1_INS_4pairIKS7_SF_EEEEEEEEE7destroyB8ne180100ISM_vEEvRSN_PT_, symObjAddr: 0x6048, symBinAddr: 0x100008FD4, symSize: 0x2C }
  - { offset: 0x35F02, size: 0x8, addend: 0x0, symName: __ZNSt3__116allocator_traitsINS_9allocatorINS_3mapINS_12basic_stringIcNS_11char_traitsIcEENS1_IcEEEEN8nlohmann16json_abi_v3_11_210basic_jsonIS2_NS_6vectorES7_bxydS1_NS9_14adl_serializerENSB_IhNS1_IhEEEEEENS_4lessIvEENS1_INS_4pairIKS7_SF_EEEEEEEEE10deallocateB8ne180100ERSN_PSM_m, symObjAddr: 0x6074, symBinAddr: 0x100009000, symSize: 0x34 }
  - { offset: 0x35F61, size: 0x8, addend: 0x0, symName: __ZNSt3__19allocatorINS_6vectorIN8nlohmann16json_abi_v3_11_210basic_jsonINS_3mapES1_NS_12basic_stringIcNS_11char_traitsIcEENS0_IcEEEEbxydS0_NS3_14adl_serializerENS1_IhNS0_IhEEEEEENS0_ISE_EEEEEC1B8ne180100Ev, symObjAddr: 0x60A8, symBinAddr: 0x100009034, symSize: 0x2C }
  - { offset: 0x35F91, size: 0x8, addend: 0x0, symName: __ZNSt3__116allocator_traitsINS_9allocatorINS_6vectorIN8nlohmann16json_abi_v3_11_210basic_jsonINS_3mapES2_NS_12basic_stringIcNS_11char_traitsIcEENS1_IcEEEEbxydS1_NS4_14adl_serializerENS2_IhNS1_IhEEEEEENS1_ISF_EEEEEEE7destroyB8ne180100ISH_vEEvRSI_PT_, symObjAddr: 0x60D4, symBinAddr: 0x100009060, symSize: 0x2C }
  - { offset: 0x35FCE, size: 0x8, addend: 0x0, symName: __ZNSt3__116allocator_traitsINS_9allocatorINS_6vectorIN8nlohmann16json_abi_v3_11_210basic_jsonINS_3mapES2_NS_12basic_stringIcNS_11char_traitsIcEENS1_IcEEEEbxydS1_NS4_14adl_serializerENS2_IhNS1_IhEEEEEENS1_ISF_EEEEEEE10deallocateB8ne180100ERSI_PSH_m, symObjAddr: 0x6100, symBinAddr: 0x10000908C, symSize: 0x34 }
  - { offset: 0x36010, size: 0x8, addend: 0x0, symName: __ZNSt3__19allocatorINS_12basic_stringIcNS_11char_traitsIcEENS0_IcEEEEEC1B8ne180100Ev, symObjAddr: 0x6134, symBinAddr: 0x1000090C0, symSize: 0x2C }
  - { offset: 0x3603A, size: 0x8, addend: 0x0, symName: __ZNSt3__116allocator_traitsINS_9allocatorINS_12basic_stringIcNS_11char_traitsIcEENS1_IcEEEEEEE7destroyB8ne180100IS6_vEEvRS7_PT_, symObjAddr: 0x6160, symBinAddr: 0x1000090EC, symSize: 0x2C }
  - { offset: 0x36077, size: 0x8, addend: 0x0, symName: __ZNSt3__116allocator_traitsINS_9allocatorINS_12basic_stringIcNS_11char_traitsIcEENS1_IcEEEEEEE10deallocateB8ne180100ERS7_PS6_m, symObjAddr: 0x618C, symBinAddr: 0x100009118, symSize: 0x34 }
  - { offset: 0x360DC, size: 0x8, addend: 0x0, symName: __ZNSt3__19allocatorIN8nlohmann16json_abi_v3_11_227byte_container_with_subtypeINS_6vectorIhNS0_IhEEEEEEEC1B8ne180100Ev, symObjAddr: 0x61C0, symBinAddr: 0x10000914C, symSize: 0x2C }
  - { offset: 0x3610C, size: 0x8, addend: 0x0, symName: __ZNSt3__116allocator_traitsINS_9allocatorIN8nlohmann16json_abi_v3_11_227byte_container_with_subtypeINS_6vectorIhNS1_IhEEEEEEEEE7destroyB8ne180100IS8_vEEvRS9_PT_, symObjAddr: 0x61EC, symBinAddr: 0x100009178, symSize: 0x2C }
  - { offset: 0x36149, size: 0x8, addend: 0x0, symName: __ZNSt3__116allocator_traitsINS_9allocatorIN8nlohmann16json_abi_v3_11_227byte_container_with_subtypeINS_6vectorIhNS1_IhEEEEEEEEE10deallocateB8ne180100ERS9_PS8_m, symObjAddr: 0x6218, symBinAddr: 0x1000091A4, symSize: 0x34 }
  - { offset: 0x3618B, size: 0x8, addend: 0x0, symName: __ZNSt3__16vectorIN8nlohmann16json_abi_v3_11_210basic_jsonINS_3mapES0_NS_12basic_stringIcNS_11char_traitsIcEENS_9allocatorIcEEEEbxydS8_NS2_14adl_serializerENS0_IhNS8_IhEEEEEENS8_ISE_EEEC2B8ne180100Ev, symObjAddr: 0x624C, symBinAddr: 0x1000091D8, symSize: 0x4C }
  - { offset: 0x361BB, size: 0x8, addend: 0x0, symName: __ZNSt3__117__compressed_pairIPN8nlohmann16json_abi_v3_11_210basic_jsonINS_3mapENS_6vectorENS_12basic_stringIcNS_11char_traitsIcEENS_9allocatorIcEEEEbxydS9_NS2_14adl_serializerENS5_IhNS9_IhEEEEEENS9_ISF_EEEC1B8ne180100IDnNS_18__default_init_tagEEEOT_OT0_, symObjAddr: 0x6298, symBinAddr: 0x100009224, symSize: 0x3C }
  - { offset: 0x36215, size: 0x8, addend: 0x0, symName: __ZNSt3__117__compressed_pairIPN8nlohmann16json_abi_v3_11_210basic_jsonINS_3mapENS_6vectorENS_12basic_stringIcNS_11char_traitsIcEENS_9allocatorIcEEEEbxydS9_NS2_14adl_serializerENS5_IhNS9_IhEEEEEENS9_ISF_EEEC2B8ne180100IDnNS_18__default_init_tagEEEOT_OT0_, symObjAddr: 0x62D4, symBinAddr: 0x100009260, symSize: 0x40 }
  - { offset: 0x3626F, size: 0x8, addend: 0x0, symName: __ZNSt3__122__compressed_pair_elemIPN8nlohmann16json_abi_v3_11_210basic_jsonINS_3mapENS_6vectorENS_12basic_stringIcNS_11char_traitsIcEENS_9allocatorIcEEEEbxydS9_NS2_14adl_serializerENS5_IhNS9_IhEEEEEELi0ELb0EEC2B8ne180100IDnvEEOT_, symObjAddr: 0x6314, symBinAddr: 0x1000092A0, symSize: 0x1C }
  - { offset: 0x362B2, size: 0x8, addend: 0x0, symName: __ZNSt3__122__compressed_pair_elemINS_9allocatorIN8nlohmann16json_abi_v3_11_210basic_jsonINS_3mapENS_6vectorENS_12basic_stringIcNS_11char_traitsIcEENS1_IcEEEEbxydS1_NS3_14adl_serializerENS6_IhNS1_IhEEEEEEEELi1ELb1EEC2B8ne180100ENS_18__default_init_tagE, symObjAddr: 0x6330, symBinAddr: 0x1000092BC, symSize: 0x2C }
  - { offset: 0x362E7, size: 0x8, addend: 0x0, symName: __ZNSt3__19allocatorIN8nlohmann16json_abi_v3_11_210basic_jsonINS_3mapENS_6vectorENS_12basic_stringIcNS_11char_traitsIcEENS0_IcEEEEbxydS0_NS2_14adl_serializerENS5_IhNS0_IhEEEEEEEC2B8ne180100Ev, symObjAddr: 0x635C, symBinAddr: 0x1000092E8, symSize: 0x2C }
  - { offset: 0x36311, size: 0x8, addend: 0x0, symName: __ZNSt3__116__non_trivial_ifILb1ENS_9allocatorIN8nlohmann16json_abi_v3_11_210basic_jsonINS_3mapENS_6vectorENS_12basic_stringIcNS_11char_traitsIcEENS1_IcEEEEbxydS1_NS3_14adl_serializerENS6_IhNS1_IhEEEEEEEEEC2B8ne180100Ev, symObjAddr: 0x6388, symBinAddr: 0x100009314, symSize: 0x14 }
  - { offset: 0x3633B, size: 0x8, addend: 0x0, symName: __ZNKSt3__16vectorIN8nlohmann16json_abi_v3_11_210basic_jsonINS_3mapES0_NS_12basic_stringIcNS_11char_traitsIcEENS_9allocatorIcEEEEbxydS8_NS2_14adl_serializerENS0_IhNS8_IhEEEEEENS8_ISE_EEE8capacityB8ne180100Ev, symObjAddr: 0x639C, symBinAddr: 0x100009328, symSize: 0x40 }
  - { offset: 0x36361, size: 0x8, addend: 0x0, symName: __ZNKSt3__16vectorIN8nlohmann16json_abi_v3_11_210basic_jsonINS_3mapES0_NS_12basic_stringIcNS_11char_traitsIcEENS_9allocatorIcEEEEbxydS8_NS2_14adl_serializerENS0_IhNS8_IhEEEEEENS8_ISE_EEE8max_sizeEv, symObjAddr: 0x63DC, symBinAddr: 0x100009368, symSize: 0x60 }
  - { offset: 0x36389, size: 0x8, addend: 0x0, symName: __ZNKSt3__16vectorIN8nlohmann16json_abi_v3_11_210basic_jsonINS_3mapES0_NS_12basic_stringIcNS_11char_traitsIcEENS_9allocatorIcEEEEbxydS8_NS2_14adl_serializerENS0_IhNS8_IhEEEEEENS8_ISE_EEE20__throw_length_errorB8ne180100Ev, symObjAddr: 0x643C, symBinAddr: 0x1000093C8, symSize: 0x1C }
  - { offset: 0x363AF, size: 0x8, addend: 0x0, symName: __ZNSt3__16vectorIN8nlohmann16json_abi_v3_11_210basic_jsonINS_3mapES0_NS_12basic_stringIcNS_11char_traitsIcEENS_9allocatorIcEEEEbxydS8_NS2_14adl_serializerENS0_IhNS8_IhEEEEEENS8_ISE_EEE7__allocB8ne180100Ev, symObjAddr: 0x6458, symBinAddr: 0x1000093E4, symSize: 0x28 }
  - { offset: 0x363D5, size: 0x8, addend: 0x0, symName: __ZNSt3__114__split_bufferIN8nlohmann16json_abi_v3_11_210basic_jsonINS_3mapENS_6vectorENS_12basic_stringIcNS_11char_traitsIcEENS_9allocatorIcEEEEbxydS9_NS2_14adl_serializerENS5_IhNS9_IhEEEEEERNS9_ISF_EEEC1EmmSH_, symObjAddr: 0x6480, symBinAddr: 0x10000940C, symSize: 0x44 }
  - { offset: 0x3642E, size: 0x8, addend: 0x0, symName: __ZNSt3__114__split_bufferIN8nlohmann16json_abi_v3_11_210basic_jsonINS_3mapENS_6vectorENS_12basic_stringIcNS_11char_traitsIcEENS_9allocatorIcEEEEbxydS9_NS2_14adl_serializerENS5_IhNS9_IhEEEEEERNS9_ISF_EEED1Ev, symObjAddr: 0x65D4, symBinAddr: 0x100009560, symSize: 0x2C }
  - { offset: 0x3645A, size: 0x8, addend: 0x0, symName: __ZNKSt3__16vectorIN8nlohmann16json_abi_v3_11_210basic_jsonINS_3mapES0_NS_12basic_stringIcNS_11char_traitsIcEENS_9allocatorIcEEEEbxydS8_NS2_14adl_serializerENS0_IhNS8_IhEEEEEENS8_ISE_EEE9__end_capB8ne180100Ev, symObjAddr: 0x6600, symBinAddr: 0x10000958C, symSize: 0x28 }
  - { offset: 0x36480, size: 0x8, addend: 0x0, symName: __ZNKSt3__117__compressed_pairIPN8nlohmann16json_abi_v3_11_210basic_jsonINS_3mapENS_6vectorENS_12basic_stringIcNS_11char_traitsIcEENS_9allocatorIcEEEEbxydS9_NS2_14adl_serializerENS5_IhNS9_IhEEEEEENS9_ISF_EEE5firstB8ne180100Ev, symObjAddr: 0x6628, symBinAddr: 0x1000095B4, symSize: 0x24 }
  - { offset: 0x364A6, size: 0x8, addend: 0x0, symName: __ZNKSt3__122__compressed_pair_elemIPN8nlohmann16json_abi_v3_11_210basic_jsonINS_3mapENS_6vectorENS_12basic_stringIcNS_11char_traitsIcEENS_9allocatorIcEEEEbxydS9_NS2_14adl_serializerENS5_IhNS9_IhEEEEEELi0ELb0EE5__getB8ne180100Ev, symObjAddr: 0x664C, symBinAddr: 0x1000095D8, symSize: 0x14 }
  - { offset: 0x364D7, size: 0x8, addend: 0x0, symName: __ZNSt3__116allocator_traitsINS_9allocatorIN8nlohmann16json_abi_v3_11_210basic_jsonINS_3mapENS_6vectorENS_12basic_stringIcNS_11char_traitsIcEENS1_IcEEEEbxydS1_NS3_14adl_serializerENS6_IhNS1_IhEEEEEEEEE8max_sizeB8ne180100ISG_vEEmRKSG_, symObjAddr: 0x668C, symBinAddr: 0x100009618, symSize: 0x24 }
  - { offset: 0x36505, size: 0x8, addend: 0x0, symName: __ZNKSt3__16vectorIN8nlohmann16json_abi_v3_11_210basic_jsonINS_3mapES0_NS_12basic_stringIcNS_11char_traitsIcEENS_9allocatorIcEEEEbxydS8_NS2_14adl_serializerENS0_IhNS8_IhEEEEEENS8_ISE_EEE7__allocB8ne180100Ev, symObjAddr: 0x66B0, symBinAddr: 0x10000963C, symSize: 0x28 }
  - { offset: 0x3652B, size: 0x8, addend: 0x0, symName: __ZNSt3__114numeric_limitsIlE3maxB8ne180100Ev, symObjAddr: 0x66D8, symBinAddr: 0x100009664, symSize: 0x14 }
  - { offset: 0x3654A, size: 0x8, addend: 0x0, symName: __ZNKSt3__16__lessIvvEclB8ne180100ImmEEbRKT_RKT0_, symObjAddr: 0x6740, symBinAddr: 0x1000096CC, symSize: 0x34 }
  - { offset: 0x365A0, size: 0x8, addend: 0x0, symName: __ZNKSt3__19allocatorIN8nlohmann16json_abi_v3_11_210basic_jsonINS_3mapENS_6vectorENS_12basic_stringIcNS_11char_traitsIcEENS0_IcEEEEbxydS0_NS2_14adl_serializerENS5_IhNS0_IhEEEEEEE8max_sizeB8ne180100Ev, symObjAddr: 0x6774, symBinAddr: 0x100009700, symSize: 0x14 }
  - { offset: 0x365C6, size: 0x8, addend: 0x0, symName: __ZNKSt3__117__compressed_pairIPN8nlohmann16json_abi_v3_11_210basic_jsonINS_3mapENS_6vectorENS_12basic_stringIcNS_11char_traitsIcEENS_9allocatorIcEEEEbxydS9_NS2_14adl_serializerENS5_IhNS9_IhEEEEEENS9_ISF_EEE6secondB8ne180100Ev, symObjAddr: 0x6788, symBinAddr: 0x100009714, symSize: 0x24 }
  - { offset: 0x365EC, size: 0x8, addend: 0x0, symName: __ZNKSt3__122__compressed_pair_elemINS_9allocatorIN8nlohmann16json_abi_v3_11_210basic_jsonINS_3mapENS_6vectorENS_12basic_stringIcNS_11char_traitsIcEENS1_IcEEEEbxydS1_NS3_14adl_serializerENS6_IhNS1_IhEEEEEEEELi1ELb1EE5__getB8ne180100Ev, symObjAddr: 0x67AC, symBinAddr: 0x100009738, symSize: 0x14 }
  - { offset: 0x36612, size: 0x8, addend: 0x0, symName: __ZNSt3__123__libcpp_numeric_limitsIlLb1EE3maxB8ne180100Ev, symObjAddr: 0x67C0, symBinAddr: 0x10000974C, symSize: 0x8 }
  - { offset: 0x36626, size: 0x8, addend: 0x0, symName: __ZNSt12length_errorC1B8ne180100EPKc, symObjAddr: 0x682C, symBinAddr: 0x1000097B8, symSize: 0x34 }
  - { offset: 0x3665F, size: 0x8, addend: 0x0, symName: __ZNSt12length_errorC2B8ne180100EPKc, symObjAddr: 0x6860, symBinAddr: 0x1000097EC, symSize: 0x44 }
  - { offset: 0x36698, size: 0x8, addend: 0x0, symName: __ZNSt3__117__compressed_pairIPN8nlohmann16json_abi_v3_11_210basic_jsonINS_3mapENS_6vectorENS_12basic_stringIcNS_11char_traitsIcEENS_9allocatorIcEEEEbxydS9_NS2_14adl_serializerENS5_IhNS9_IhEEEEEENS9_ISF_EEE6secondB8ne180100Ev, symObjAddr: 0x68A4, symBinAddr: 0x100009830, symSize: 0x24 }
  - { offset: 0x366BE, size: 0x8, addend: 0x0, symName: __ZNSt3__122__compressed_pair_elemINS_9allocatorIN8nlohmann16json_abi_v3_11_210basic_jsonINS_3mapENS_6vectorENS_12basic_stringIcNS_11char_traitsIcEENS1_IcEEEEbxydS1_NS3_14adl_serializerENS6_IhNS1_IhEEEEEEEELi1ELb1EE5__getB8ne180100Ev, symObjAddr: 0x68C8, symBinAddr: 0x100009854, symSize: 0x14 }
  - { offset: 0x366E4, size: 0x8, addend: 0x0, symName: __ZNSt3__114__split_bufferIN8nlohmann16json_abi_v3_11_210basic_jsonINS_3mapENS_6vectorENS_12basic_stringIcNS_11char_traitsIcEENS_9allocatorIcEEEEbxydS9_NS2_14adl_serializerENS5_IhNS9_IhEEEEEERNS9_ISF_EEEC2EmmSH_, symObjAddr: 0x68DC, symBinAddr: 0x100009868, symSize: 0xD4 }
  - { offset: 0x3675B, size: 0x8, addend: 0x0, symName: __ZNSt3__117__compressed_pairIPN8nlohmann16json_abi_v3_11_210basic_jsonINS_3mapENS_6vectorENS_12basic_stringIcNS_11char_traitsIcEENS_9allocatorIcEEEEbxydS9_NS2_14adl_serializerENS5_IhNS9_IhEEEEEERNS9_ISF_EEEC1B8ne180100IDnSI_EEOT_OT0_, symObjAddr: 0x69B0, symBinAddr: 0x10000993C, symSize: 0x3C }
  - { offset: 0x367B5, size: 0x8, addend: 0x0, symName: __ZNSt3__114__split_bufferIN8nlohmann16json_abi_v3_11_210basic_jsonINS_3mapENS_6vectorENS_12basic_stringIcNS_11char_traitsIcEENS_9allocatorIcEEEEbxydS9_NS2_14adl_serializerENS5_IhNS9_IhEEEEEERNS9_ISF_EEE7__allocB8ne180100Ev, symObjAddr: 0x6A2C, symBinAddr: 0x1000099B8, symSize: 0x28 }
  - { offset: 0x367DB, size: 0x8, addend: 0x0, symName: __ZNSt3__114__split_bufferIN8nlohmann16json_abi_v3_11_210basic_jsonINS_3mapENS_6vectorENS_12basic_stringIcNS_11char_traitsIcEENS_9allocatorIcEEEEbxydS9_NS2_14adl_serializerENS5_IhNS9_IhEEEEEERNS9_ISF_EEE9__end_capB8ne180100Ev, symObjAddr: 0x6A54, symBinAddr: 0x1000099E0, symSize: 0x28 }
  - { offset: 0x36801, size: 0x8, addend: 0x0, symName: __ZNSt3__117__compressed_pairIPN8nlohmann16json_abi_v3_11_210basic_jsonINS_3mapENS_6vectorENS_12basic_stringIcNS_11char_traitsIcEENS_9allocatorIcEEEEbxydS9_NS2_14adl_serializerENS5_IhNS9_IhEEEEEERNS9_ISF_EEEC2B8ne180100IDnSI_EEOT_OT0_, symObjAddr: 0x6A7C, symBinAddr: 0x100009A08, symSize: 0x48 }
  - { offset: 0x3685B, size: 0x8, addend: 0x0, symName: __ZNSt3__122__compressed_pair_elemIRNS_9allocatorIN8nlohmann16json_abi_v3_11_210basic_jsonINS_3mapENS_6vectorENS_12basic_stringIcNS_11char_traitsIcEENS1_IcEEEEbxydS1_NS3_14adl_serializerENS6_IhNS1_IhEEEEEEEELi1ELb0EEC2B8ne180100ISH_vEEOT_, symObjAddr: 0x6AC4, symBinAddr: 0x100009A50, symSize: 0x20 }
  - { offset: 0x3689E, size: 0x8, addend: 0x0, symName: __ZNSt3__19allocatorIN8nlohmann16json_abi_v3_11_210basic_jsonINS_3mapENS_6vectorENS_12basic_stringIcNS_11char_traitsIcEENS0_IcEEEEbxydS0_NS2_14adl_serializerENS5_IhNS0_IhEEEEEEE8allocateB8ne180100Em, symObjAddr: 0x6AE4, symBinAddr: 0x100009A70, symSize: 0x58 }
  - { offset: 0x368D3, size: 0x8, addend: 0x0, symName: __ZNSt3__117__compressed_pairIPN8nlohmann16json_abi_v3_11_210basic_jsonINS_3mapENS_6vectorENS_12basic_stringIcNS_11char_traitsIcEENS_9allocatorIcEEEEbxydS9_NS2_14adl_serializerENS5_IhNS9_IhEEEEEERNS9_ISF_EEE6secondB8ne180100Ev, symObjAddr: 0x6C20, symBinAddr: 0x100009BAC, symSize: 0x28 }
  - { offset: 0x368F9, size: 0x8, addend: 0x0, symName: __ZNSt3__122__compressed_pair_elemIRNS_9allocatorIN8nlohmann16json_abi_v3_11_210basic_jsonINS_3mapENS_6vectorENS_12basic_stringIcNS_11char_traitsIcEENS1_IcEEEEbxydS1_NS3_14adl_serializerENS6_IhNS1_IhEEEEEEEELi1ELb0EE5__getB8ne180100Ev, symObjAddr: 0x6C48, symBinAddr: 0x100009BD4, symSize: 0x18 }
  - { offset: 0x3691F, size: 0x8, addend: 0x0, symName: __ZNSt3__117__compressed_pairIPN8nlohmann16json_abi_v3_11_210basic_jsonINS_3mapENS_6vectorENS_12basic_stringIcNS_11char_traitsIcEENS_9allocatorIcEEEEbxydS9_NS2_14adl_serializerENS5_IhNS9_IhEEEEEERNS9_ISF_EEE5firstB8ne180100Ev, symObjAddr: 0x6C60, symBinAddr: 0x100009BEC, symSize: 0x24 }
  - { offset: 0x36945, size: 0x8, addend: 0x0, symName: __ZNSt3__122__compressed_pair_elemIPN8nlohmann16json_abi_v3_11_210basic_jsonINS_3mapENS_6vectorENS_12basic_stringIcNS_11char_traitsIcEENS_9allocatorIcEEEEbxydS9_NS2_14adl_serializerENS5_IhNS9_IhEEEEEELi0ELb0EE5__getB8ne180100Ev, symObjAddr: 0x6C84, symBinAddr: 0x100009C10, symSize: 0x14 }
  - { offset: 0x3696B, size: 0x8, addend: 0x0, symName: __ZNKSt3__16vectorIN8nlohmann16json_abi_v3_11_210basic_jsonINS_3mapES0_NS_12basic_stringIcNS_11char_traitsIcEENS_9allocatorIcEEEEbxydS8_NS2_14adl_serializerENS0_IhNS8_IhEEEEEENS8_ISE_EEE17__annotate_deleteB8ne180100Ev, symObjAddr: 0x6C98, symBinAddr: 0x100009C24, symSize: 0x10 }
  - { offset: 0x36991, size: 0x8, addend: 0x0, symName: __ZNSt3__116reverse_iteratorIPN8nlohmann16json_abi_v3_11_210basic_jsonINS_3mapENS_6vectorENS_12basic_stringIcNS_11char_traitsIcEENS_9allocatorIcEEEEbxydS9_NS2_14adl_serializerENS5_IhNS9_IhEEEEEEEC1B8ne180100ESG_, symObjAddr: 0x6DD4, symBinAddr: 0x100009D60, symSize: 0x34 }
  - { offset: 0x369CA, size: 0x8, addend: 0x0, symName: __ZNKSt3__116reverse_iteratorIPN8nlohmann16json_abi_v3_11_210basic_jsonINS_3mapENS_6vectorENS_12basic_stringIcNS_11char_traitsIcEENS_9allocatorIcEEEEbxydS9_NS2_14adl_serializerENS5_IhNS9_IhEEEEEEE4baseB8ne180100Ev, symObjAddr: 0x6E08, symBinAddr: 0x100009D94, symSize: 0x18 }
  - { offset: 0x369F0, size: 0x8, addend: 0x0, symName: __ZNSt3__16vectorIN8nlohmann16json_abi_v3_11_210basic_jsonINS_3mapES0_NS_12basic_stringIcNS_11char_traitsIcEENS_9allocatorIcEEEEbxydS8_NS2_14adl_serializerENS0_IhNS8_IhEEEEEENS8_ISE_EEE9__end_capB8ne180100Ev, symObjAddr: 0x6E5C, symBinAddr: 0x100009DE8, symSize: 0x28 }
  - { offset: 0x36A16, size: 0x8, addend: 0x0, symName: __ZNKSt3__16vectorIN8nlohmann16json_abi_v3_11_210basic_jsonINS_3mapES0_NS_12basic_stringIcNS_11char_traitsIcEENS_9allocatorIcEEEEbxydS8_NS2_14adl_serializerENS0_IhNS8_IhEEEEEENS8_ISE_EEE14__annotate_newB8ne180100Em, symObjAddr: 0x6E84, symBinAddr: 0x100009E10, symSize: 0x14 }
  - { offset: 0x36A4B, size: 0x8, addend: 0x0, symName: __ZNSt3__129_AllocatorDestroyRangeReverseINS_9allocatorIN8nlohmann16json_abi_v3_11_210basic_jsonINS_3mapENS_6vectorENS_12basic_stringIcNS_11char_traitsIcEENS1_IcEEEEbxydS1_NS3_14adl_serializerENS6_IhNS1_IhEEEEEEEENS_16reverse_iteratorIPSF_EEEC1B8ne180100ERSG_RSJ_SM_, symObjAddr: 0x6EE4, symBinAddr: 0x100009E70, symSize: 0x44 }
  - { offset: 0x36AA2, size: 0x8, addend: 0x0, symName: __ZNSt3__116allocator_traitsINS_9allocatorIN8nlohmann16json_abi_v3_11_210basic_jsonINS_3mapENS_6vectorENS_12basic_stringIcNS_11char_traitsIcEENS1_IcEEEEbxydS1_NS3_14adl_serializerENS6_IhNS1_IhEEEEEEEEE9constructB8ne180100ISF_JSF_EvEEvRSG_PT_DpOT0_, symObjAddr: 0x6F70, symBinAddr: 0x100009EFC, symSize: 0x34 }
  - { offset: 0x36AF9, size: 0x8, addend: 0x0, symName: __ZNKSt3__116reverse_iteratorIPN8nlohmann16json_abi_v3_11_210basic_jsonINS_3mapENS_6vectorENS_12basic_stringIcNS_11char_traitsIcEENS_9allocatorIcEEEEbxydS9_NS2_14adl_serializerENS5_IhNS9_IhEEEEEEEdeB8ne180100Ev, symObjAddr: 0x6FC8, symBinAddr: 0x100009F54, symSize: 0x28 }
  - { offset: 0x36B2E, size: 0x8, addend: 0x0, symName: __ZNSt3__116reverse_iteratorIPN8nlohmann16json_abi_v3_11_210basic_jsonINS_3mapENS_6vectorENS_12basic_stringIcNS_11char_traitsIcEENS_9allocatorIcEEEEbxydS9_NS2_14adl_serializerENS5_IhNS9_IhEEEEEEEppB8ne180100Ev, symObjAddr: 0x6FF0, symBinAddr: 0x100009F7C, symSize: 0x20 }
  - { offset: 0x36B54, size: 0x8, addend: 0x0, symName: __ZNSt3__128__exception_guard_exceptionsINS_29_AllocatorDestroyRangeReverseINS_9allocatorIN8nlohmann16json_abi_v3_11_210basic_jsonINS_3mapENS_6vectorENS_12basic_stringIcNS_11char_traitsIcEENS2_IcEEEEbxydS2_NS4_14adl_serializerENS7_IhNS2_IhEEEEEEEENS_16reverse_iteratorIPSG_EEEEE10__completeB8ne180100Ev, symObjAddr: 0x7010, symBinAddr: 0x100009F9C, symSize: 0x1C }
  - { offset: 0x36B7A, size: 0x8, addend: 0x0, symName: __ZNSt3__128__exception_guard_exceptionsINS_29_AllocatorDestroyRangeReverseINS_9allocatorIN8nlohmann16json_abi_v3_11_210basic_jsonINS_3mapENS_6vectorENS_12basic_stringIcNS_11char_traitsIcEENS2_IcEEEEbxydS2_NS4_14adl_serializerENS7_IhNS2_IhEEEEEEEENS_16reverse_iteratorIPSG_EEEEED1B8ne180100Ev, symObjAddr: 0x702C, symBinAddr: 0x100009FB8, symSize: 0x2C }
  - { offset: 0x36BA4, size: 0x8, addend: 0x0, symName: __ZNSt3__128__exception_guard_exceptionsINS_29_AllocatorDestroyRangeReverseINS_9allocatorIN8nlohmann16json_abi_v3_11_210basic_jsonINS_3mapENS_6vectorENS_12basic_stringIcNS_11char_traitsIcEENS2_IcEEEEbxydS2_NS4_14adl_serializerENS7_IhNS2_IhEEEEEEEENS_16reverse_iteratorIPSG_EEEEEC1B8ne180100ESL_, symObjAddr: 0x7058, symBinAddr: 0x100009FE4, symSize: 0x34 }
  - { offset: 0x36BDE, size: 0x8, addend: 0x0, symName: __ZNSt3__128__exception_guard_exceptionsINS_29_AllocatorDestroyRangeReverseINS_9allocatorIN8nlohmann16json_abi_v3_11_210basic_jsonINS_3mapENS_6vectorENS_12basic_stringIcNS_11char_traitsIcEENS2_IcEEEEbxydS2_NS4_14adl_serializerENS7_IhNS2_IhEEEEEEEENS_16reverse_iteratorIPSG_EEEEEC2B8ne180100ESL_, symObjAddr: 0x708C, symBinAddr: 0x10000A018, symSize: 0x30 }
  - { offset: 0x36C18, size: 0x8, addend: 0x0, symName: __ZNSt3__129_AllocatorDestroyRangeReverseINS_9allocatorIN8nlohmann16json_abi_v3_11_210basic_jsonINS_3mapENS_6vectorENS_12basic_stringIcNS_11char_traitsIcEENS1_IcEEEEbxydS1_NS3_14adl_serializerENS6_IhNS1_IhEEEEEEEENS_16reverse_iteratorIPSF_EEEC2B8ne180100ERSG_RSJ_SM_, symObjAddr: 0x70BC, symBinAddr: 0x10000A048, symSize: 0x38 }
  - { offset: 0x36C6F, size: 0x8, addend: 0x0, symName: __ZNSt3__19allocatorIN8nlohmann16json_abi_v3_11_210basic_jsonINS_3mapENS_6vectorENS_12basic_stringIcNS_11char_traitsIcEENS0_IcEEEEbxydS0_NS2_14adl_serializerENS5_IhNS0_IhEEEEEEE9constructB8ne180100ISE_JSE_EEEvPT_DpOT0_, symObjAddr: 0x70F4, symBinAddr: 0x10000A080, symSize: 0x30 }
  - { offset: 0x36CCD, size: 0x8, addend: 0x0, symName: __ZNSt3__119__to_address_helperINS_16reverse_iteratorIPN8nlohmann16json_abi_v3_11_210basic_jsonINS_3mapENS_6vectorENS_12basic_stringIcNS_11char_traitsIcEENS_9allocatorIcEEEEbxydSA_NS3_14adl_serializerENS6_IhNSA_IhEEEEEEEEvE6__callB8ne180100ERKSI_, symObjAddr: 0x7124, symBinAddr: 0x10000A0B0, symSize: 0x38 }
  - { offset: 0x36CF1, size: 0x8, addend: 0x0, symName: __ZNKSt3__116reverse_iteratorIPN8nlohmann16json_abi_v3_11_210basic_jsonINS_3mapENS_6vectorENS_12basic_stringIcNS_11char_traitsIcEENS_9allocatorIcEEEEbxydS9_NS2_14adl_serializerENS5_IhNS9_IhEEEEEEEptB8ne180100Ev, symObjAddr: 0x7170, symBinAddr: 0x10000A0FC, symSize: 0x24 }
  - { offset: 0x36D17, size: 0x8, addend: 0x0, symName: __ZNSt3__128__exception_guard_exceptionsINS_29_AllocatorDestroyRangeReverseINS_9allocatorIN8nlohmann16json_abi_v3_11_210basic_jsonINS_3mapENS_6vectorENS_12basic_stringIcNS_11char_traitsIcEENS2_IcEEEEbxydS2_NS4_14adl_serializerENS7_IhNS2_IhEEEEEEEENS_16reverse_iteratorIPSG_EEEEED2B8ne180100Ev, symObjAddr: 0x7194, symBinAddr: 0x10000A120, symSize: 0x50 }
  - { offset: 0x36D41, size: 0x8, addend: 0x0, symName: __ZNKSt3__129_AllocatorDestroyRangeReverseINS_9allocatorIN8nlohmann16json_abi_v3_11_210basic_jsonINS_3mapENS_6vectorENS_12basic_stringIcNS_11char_traitsIcEENS1_IcEEEEbxydS1_NS3_14adl_serializerENS6_IhNS1_IhEEEEEEEENS_16reverse_iteratorIPSF_EEEclB8ne180100Ev, symObjAddr: 0x71E4, symBinAddr: 0x10000A170, symSize: 0xB4 }
  - { offset: 0x36D68, size: 0x8, addend: 0x0, symName: __ZNSt3__116reverse_iteratorINS0_IPN8nlohmann16json_abi_v3_11_210basic_jsonINS_3mapENS_6vectorENS_12basic_stringIcNS_11char_traitsIcEENS_9allocatorIcEEEEbxydS9_NS2_14adl_serializerENS5_IhNS9_IhEEEEEEEEEC1B8ne180100ESH_, symObjAddr: 0x7308, symBinAddr: 0x10000A294, symSize: 0x3C }
  - { offset: 0x36DA1, size: 0x8, addend: 0x0, symName: __ZNSt3__116allocator_traitsINS_9allocatorIN8nlohmann16json_abi_v3_11_210basic_jsonINS_3mapENS_6vectorENS_12basic_stringIcNS_11char_traitsIcEENS1_IcEEEEbxydS1_NS3_14adl_serializerENS6_IhNS1_IhEEEEEEEEE7destroyB8ne180100ISF_vEEvRSG_PT_, symObjAddr: 0x73A4, symBinAddr: 0x10000A330, symSize: 0x2C }
  - { offset: 0x36DDE, size: 0x8, addend: 0x0, symName: __ZNSt3__116reverse_iteratorINS0_IPN8nlohmann16json_abi_v3_11_210basic_jsonINS_3mapENS_6vectorENS_12basic_stringIcNS_11char_traitsIcEENS_9allocatorIcEEEEbxydS9_NS2_14adl_serializerENS5_IhNS9_IhEEEEEEEEEppB8ne180100Ev, symObjAddr: 0x73F4, symBinAddr: 0x10000A380, symSize: 0x30 }
  - { offset: 0x36E04, size: 0x8, addend: 0x0, symName: __ZNKSt3__116reverse_iteratorINS0_IPN8nlohmann16json_abi_v3_11_210basic_jsonINS_3mapENS_6vectorENS_12basic_stringIcNS_11char_traitsIcEENS_9allocatorIcEEEEbxydS9_NS2_14adl_serializerENS5_IhNS9_IhEEEEEEEEE4baseB8ne180100Ev, symObjAddr: 0x7424, symBinAddr: 0x10000A3B0, symSize: 0x24 }
  - { offset: 0x36E2A, size: 0x8, addend: 0x0, symName: __ZNSt3__19allocatorIN8nlohmann16json_abi_v3_11_210basic_jsonINS_3mapENS_6vectorENS_12basic_stringIcNS_11char_traitsIcEENS0_IcEEEEbxydS0_NS2_14adl_serializerENS5_IhNS0_IhEEEEEEE7destroyB8ne180100EPSE_, symObjAddr: 0x7448, symBinAddr: 0x10000A3D4, symSize: 0x28 }
  - { offset: 0x36E65, size: 0x8, addend: 0x0, symName: __ZNSt3__119__to_address_helperINS_16reverse_iteratorINS1_IPN8nlohmann16json_abi_v3_11_210basic_jsonINS_3mapENS_6vectorENS_12basic_stringIcNS_11char_traitsIcEENS_9allocatorIcEEEEbxydSA_NS3_14adl_serializerENS6_IhNSA_IhEEEEEEEEEEvE6__callB8ne180100ERKSJ_, symObjAddr: 0x7470, symBinAddr: 0x10000A3FC, symSize: 0x38 }
  - { offset: 0x36E89, size: 0x8, addend: 0x0, symName: __ZNKSt3__116reverse_iteratorINS0_IPN8nlohmann16json_abi_v3_11_210basic_jsonINS_3mapENS_6vectorENS_12basic_stringIcNS_11char_traitsIcEENS_9allocatorIcEEEEbxydS9_NS2_14adl_serializerENS5_IhNS9_IhEEEEEEEEEptB8ne180100Ev, symObjAddr: 0x74A8, symBinAddr: 0x10000A434, symSize: 0x24 }
  - { offset: 0x36EAF, size: 0x8, addend: 0x0, symName: __ZNKSt3__116reverse_iteratorINS0_IPN8nlohmann16json_abi_v3_11_210basic_jsonINS_3mapENS_6vectorENS_12basic_stringIcNS_11char_traitsIcEENS_9allocatorIcEEEEbxydS9_NS2_14adl_serializerENS5_IhNS9_IhEEEEEEEEEdeB8ne180100Ev, symObjAddr: 0x74CC, symBinAddr: 0x10000A458, symSize: 0x34 }
  - { offset: 0x36EE4, size: 0x8, addend: 0x0, symName: __ZNSt3__116reverse_iteratorIPN8nlohmann16json_abi_v3_11_210basic_jsonINS_3mapENS_6vectorENS_12basic_stringIcNS_11char_traitsIcEENS_9allocatorIcEEEEbxydS9_NS2_14adl_serializerENS5_IhNS9_IhEEEEEEEmmB8ne180100Ev, symObjAddr: 0x7500, symBinAddr: 0x10000A48C, symSize: 0x20 }
  - { offset: 0x36F0A, size: 0x8, addend: 0x0, symName: __ZNSt3__116reverse_iteratorINS0_IPN8nlohmann16json_abi_v3_11_210basic_jsonINS_3mapENS_6vectorENS_12basic_stringIcNS_11char_traitsIcEENS_9allocatorIcEEEEbxydS9_NS2_14adl_serializerENS5_IhNS9_IhEEEEEEEEEC2B8ne180100ESH_, symObjAddr: 0x7520, symBinAddr: 0x10000A4AC, symSize: 0x2C }
  - { offset: 0x36F43, size: 0x8, addend: 0x0, symName: __ZNSt3__116reverse_iteratorIPN8nlohmann16json_abi_v3_11_210basic_jsonINS_3mapENS_6vectorENS_12basic_stringIcNS_11char_traitsIcEENS_9allocatorIcEEEEbxydS9_NS2_14adl_serializerENS5_IhNS9_IhEEEEEEEC2B8ne180100ESG_, symObjAddr: 0x754C, symBinAddr: 0x10000A4D8, symSize: 0x28 }
  - { offset: 0x36F7C, size: 0x8, addend: 0x0, symName: __ZNSt3__117__compressed_pairIPN8nlohmann16json_abi_v3_11_210basic_jsonINS_3mapENS_6vectorENS_12basic_stringIcNS_11char_traitsIcEENS_9allocatorIcEEEEbxydS9_NS2_14adl_serializerENS5_IhNS9_IhEEEEEENS9_ISF_EEE5firstB8ne180100Ev, symObjAddr: 0x7574, symBinAddr: 0x10000A500, symSize: 0x24 }
  - { offset: 0x36FA2, size: 0x8, addend: 0x0, symName: __ZNSt3__114__split_bufferIN8nlohmann16json_abi_v3_11_210basic_jsonINS_3mapENS_6vectorENS_12basic_stringIcNS_11char_traitsIcEENS_9allocatorIcEEEEbxydS9_NS2_14adl_serializerENS5_IhNS9_IhEEEEEERNS9_ISF_EEED2Ev, symObjAddr: 0x7598, symBinAddr: 0x10000A524, symSize: 0x8C }
  - { offset: 0x36FCE, size: 0x8, addend: 0x0, symName: __ZNSt3__114__split_bufferIN8nlohmann16json_abi_v3_11_210basic_jsonINS_3mapENS_6vectorENS_12basic_stringIcNS_11char_traitsIcEENS_9allocatorIcEEEEbxydS9_NS2_14adl_serializerENS5_IhNS9_IhEEEEEERNS9_ISF_EEE5clearB8ne180100Ev, symObjAddr: 0x7624, symBinAddr: 0x10000A5B0, symSize: 0x28 }
  - { offset: 0x36FF4, size: 0x8, addend: 0x0, symName: __ZNSt3__116allocator_traitsINS_9allocatorIN8nlohmann16json_abi_v3_11_210basic_jsonINS_3mapENS_6vectorENS_12basic_stringIcNS_11char_traitsIcEENS1_IcEEEEbxydS1_NS3_14adl_serializerENS6_IhNS1_IhEEEEEEEEE10deallocateB8ne180100ERSG_PSF_m, symObjAddr: 0x764C, symBinAddr: 0x10000A5D8, symSize: 0x34 }
  - { offset: 0x37036, size: 0x8, addend: 0x0, symName: __ZNKSt3__114__split_bufferIN8nlohmann16json_abi_v3_11_210basic_jsonINS_3mapENS_6vectorENS_12basic_stringIcNS_11char_traitsIcEENS_9allocatorIcEEEEbxydS9_NS2_14adl_serializerENS5_IhNS9_IhEEEEEERNS9_ISF_EEE8capacityB8ne180100Ev, symObjAddr: 0x7680, symBinAddr: 0x10000A60C, symSize: 0x40 }
  - { offset: 0x3705C, size: 0x8, addend: 0x0, symName: __ZNSt3__114__split_bufferIN8nlohmann16json_abi_v3_11_210basic_jsonINS_3mapENS_6vectorENS_12basic_stringIcNS_11char_traitsIcEENS_9allocatorIcEEEEbxydS9_NS2_14adl_serializerENS5_IhNS9_IhEEEEEERNS9_ISF_EEE17__destruct_at_endB8ne180100EPSF_, symObjAddr: 0x76C0, symBinAddr: 0x10000A64C, symSize: 0x2C }
  - { offset: 0x37091, size: 0x8, addend: 0x0, symName: __ZNSt3__114__split_bufferIN8nlohmann16json_abi_v3_11_210basic_jsonINS_3mapENS_6vectorENS_12basic_stringIcNS_11char_traitsIcEENS_9allocatorIcEEEEbxydS9_NS2_14adl_serializerENS5_IhNS9_IhEEEEEERNS9_ISF_EEE17__destruct_at_endB8ne180100EPSF_NS_17integral_constantIbLb0EEE, symObjAddr: 0x76EC, symBinAddr: 0x10000A678, symSize: 0x80 }
  - { offset: 0x370D3, size: 0x8, addend: 0x0, symName: __ZNSt3__19allocatorIN8nlohmann16json_abi_v3_11_210basic_jsonINS_3mapENS_6vectorENS_12basic_stringIcNS_11char_traitsIcEENS0_IcEEEEbxydS0_NS2_14adl_serializerENS5_IhNS0_IhEEEEEEE10deallocateB8ne180100EPSE_m, symObjAddr: 0x776C, symBinAddr: 0x10000A6F8, symSize: 0x40 }
  - { offset: 0x37117, size: 0x8, addend: 0x0, symName: __ZNKSt3__114__split_bufferIN8nlohmann16json_abi_v3_11_210basic_jsonINS_3mapENS_6vectorENS_12basic_stringIcNS_11char_traitsIcEENS_9allocatorIcEEEEbxydS9_NS2_14adl_serializerENS5_IhNS9_IhEEEEEERNS9_ISF_EEE9__end_capB8ne180100Ev, symObjAddr: 0x77AC, symBinAddr: 0x10000A738, symSize: 0x28 }
  - { offset: 0x3713D, size: 0x8, addend: 0x0, symName: __ZNKSt3__117__compressed_pairIPN8nlohmann16json_abi_v3_11_210basic_jsonINS_3mapENS_6vectorENS_12basic_stringIcNS_11char_traitsIcEENS_9allocatorIcEEEEbxydS9_NS2_14adl_serializerENS5_IhNS9_IhEEEEEERNS9_ISF_EEE5firstB8ne180100Ev, symObjAddr: 0x77D4, symBinAddr: 0x10000A760, symSize: 0x24 }
  - { offset: 0x3718B, size: 0x8, addend: 0x0, symName: __ZNKSt3__111__move_loopINS_17_ClassicAlgPolicyEEclB8ne180100IPN8nlohmann16json_abi_v3_11_210basic_jsonINS_3mapENS_6vectorENS_12basic_stringIcNS_11char_traitsIcEENS_9allocatorIcEEEEbxydSC_NS5_14adl_serializerENS8_IhNSC_IhEEEEEESJ_NS_20back_insert_iteratorINS8_ISI_NSC_ISI_EEEEEEEENS_4pairIT_T1_EESP_T0_SQ_, symObjAddr: 0x7A08, symBinAddr: 0x10000A994, symSize: 0x98 }
  - { offset: 0x3721C, size: 0x8, addend: 0x0, symName: __ZNSt3__14pairIPN8nlohmann16json_abi_v3_11_210basic_jsonINS_3mapENS_6vectorENS_12basic_stringIcNS_11char_traitsIcEENS_9allocatorIcEEEEbxydS9_NS2_14adl_serializerENS5_IhNS9_IhEEEEEESG_EC1B8ne180100ISG_SG_Li0EEEOT_OT0_, symObjAddr: 0x7C00, symBinAddr: 0x10000AB8C, symSize: 0x3C }
  - { offset: 0x3727C, size: 0x8, addend: 0x0, symName: __ZNSt3__14pairIPN8nlohmann16json_abi_v3_11_210basic_jsonINS_3mapENS_6vectorENS_12basic_stringIcNS_11char_traitsIcEENS_9allocatorIcEEEEbxydS9_NS2_14adl_serializerENS5_IhNS9_IhEEEEEESG_EC2B8ne180100ISG_SG_Li0EEEOT_OT0_, symObjAddr: 0x7C3C, symBinAddr: 0x10000ABC8, symSize: 0x34 }
  - { offset: 0x372DC, size: 0x8, addend: 0x0, symName: __ZNSt3__118__unwrap_iter_implINS_11__wrap_iterIPN8nlohmann16json_abi_v3_11_210basic_jsonINS_3mapENS_6vectorENS_12basic_stringIcNS_11char_traitsIcEENS_9allocatorIcEEEEbxydSA_NS3_14adl_serializerENS6_IhNSA_IhEEEEEEEELb1EE8__unwrapB8ne180100ESI_, symObjAddr: 0x7C70, symBinAddr: 0x10000ABFC, symSize: 0x28 }
  - { offset: 0x3730C, size: 0x8, addend: 0x0, symName: __ZNSt3__119__to_address_helperINS_11__wrap_iterIPN8nlohmann16json_abi_v3_11_210basic_jsonINS_3mapENS_6vectorENS_12basic_stringIcNS_11char_traitsIcEENS_9allocatorIcEEEEbxydSA_NS3_14adl_serializerENS6_IhNSA_IhEEEEEEEEvE6__callB8ne180100ERKSI_, symObjAddr: 0x7CBC, symBinAddr: 0x10000AC48, symSize: 0x30 }
  - { offset: 0x37330, size: 0x8, addend: 0x0, symName: __ZNSt3__114pointer_traitsINS_11__wrap_iterIPN8nlohmann16json_abi_v3_11_210basic_jsonINS_3mapENS_6vectorENS_12basic_stringIcNS_11char_traitsIcEENS_9allocatorIcEEEEbxydSA_NS3_14adl_serializerENS6_IhNSA_IhEEEEEEEEE10to_addressB8ne180100ESI_, symObjAddr: 0x7CEC, symBinAddr: 0x10000AC78, symSize: 0x2C }
  - { offset: 0x37354, size: 0x8, addend: 0x0, symName: __ZNKSt3__111__wrap_iterIPN8nlohmann16json_abi_v3_11_210basic_jsonINS_3mapENS_6vectorENS_12basic_stringIcNS_11char_traitsIcEENS_9allocatorIcEEEEbxydS9_NS2_14adl_serializerENS5_IhNS9_IhEEEEEEE4baseB8ne180100Ev, symObjAddr: 0x7D18, symBinAddr: 0x10000ACA4, symSize: 0x18 }
  - { offset: 0x37380, size: 0x8, addend: 0x0, symName: __ZNSt3__18_IterOpsINS_17_ClassicAlgPolicyEE11__iter_moveB8ne180100IRPN8nlohmann16json_abi_v3_11_210basic_jsonINS_3mapENS_6vectorENS_12basic_stringIcNS_11char_traitsIcEENS_9allocatorIcEEEEbxydSC_NS5_14adl_serializerENS8_IhNSC_IhEEEEEELi0EEEDTclsr3stdE4movedeclsr3stdE7declvalIRT_EEEEOSL_, symObjAddr: 0x7D30, symBinAddr: 0x10000ACBC, symSize: 0x28 }
  - { offset: 0x373B3, size: 0x8, addend: 0x0, symName: __ZNSt3__120back_insert_iteratorINS_6vectorIN8nlohmann16json_abi_v3_11_210basic_jsonINS_3mapES1_NS_12basic_stringIcNS_11char_traitsIcEENS_9allocatorIcEEEEbxydS9_NS3_14adl_serializerENS1_IhNS9_IhEEEEEENS9_ISF_EEEEEdeB8ne180100Ev, symObjAddr: 0x7D58, symBinAddr: 0x10000ACE4, symSize: 0x14 }
  - { offset: 0x373D9, size: 0x8, addend: 0x0, symName: __ZNSt3__120back_insert_iteratorINS_6vectorIN8nlohmann16json_abi_v3_11_210basic_jsonINS_3mapES1_NS_12basic_stringIcNS_11char_traitsIcEENS_9allocatorIcEEEEbxydS9_NS3_14adl_serializerENS1_IhNS9_IhEEEEEENS9_ISF_EEEEEaSB8ne180100EOSF_, symObjAddr: 0x7D6C, symBinAddr: 0x10000ACF8, symSize: 0x38 }
  - { offset: 0x3740E, size: 0x8, addend: 0x0, symName: __ZNSt3__120back_insert_iteratorINS_6vectorIN8nlohmann16json_abi_v3_11_210basic_jsonINS_3mapES1_NS_12basic_stringIcNS_11char_traitsIcEENS_9allocatorIcEEEEbxydS9_NS3_14adl_serializerENS1_IhNS9_IhEEEEEENS9_ISF_EEEEEppB8ne180100Ev, symObjAddr: 0x7DA4, symBinAddr: 0x10000AD30, symSize: 0x14 }
  - { offset: 0x37434, size: 0x8, addend: 0x0, symName: __ZNSt3__18_IterOpsINS_17_ClassicAlgPolicyEE25__validate_iter_referenceB8ne180100IRPN8nlohmann16json_abi_v3_11_210basic_jsonINS_3mapENS_6vectorENS_12basic_stringIcNS_11char_traitsIcEENS_9allocatorIcEEEEbxydSC_NS5_14adl_serializerENS8_IhNSC_IhEEEEEEEEvv, symObjAddr: 0x7DF0, symBinAddr: 0x10000AD7C, symSize: 0x4 }
  - { offset: 0x37458, size: 0x8, addend: 0x0, symName: __ZNSt3__14pairIPN8nlohmann16json_abi_v3_11_210basic_jsonINS_3mapENS_6vectorENS_12basic_stringIcNS_11char_traitsIcEENS_9allocatorIcEEEEbxydS9_NS2_14adl_serializerENS5_IhNS9_IhEEEEEENS_20back_insert_iteratorINS5_ISF_NS9_ISF_EEEEEEEC1B8ne180100ISG_SK_Li0EEEOT_OT0_, symObjAddr: 0x7DF4, symBinAddr: 0x10000AD80, symSize: 0x3C }
  - { offset: 0x374B8, size: 0x8, addend: 0x0, symName: __ZNSt3__14pairIPN8nlohmann16json_abi_v3_11_210basic_jsonINS_3mapENS_6vectorENS_12basic_stringIcNS_11char_traitsIcEENS_9allocatorIcEEEEbxydS9_NS2_14adl_serializerENS5_IhNS9_IhEEEEEENS_20back_insert_iteratorINS5_ISF_NS9_ISF_EEEEEEEC2B8ne180100ISG_SK_Li0EEEOT_OT0_, symObjAddr: 0x7E30, symBinAddr: 0x10000ADBC, symSize: 0x34 }
  - { offset: 0x37518, size: 0x8, addend: 0x0, symName: __ZNSt3__118__unwrap_iter_implINS_20back_insert_iteratorINS_6vectorIN8nlohmann16json_abi_v3_11_210basic_jsonINS_3mapES2_NS_12basic_stringIcNS_11char_traitsIcEENS_9allocatorIcEEEEbxydSA_NS4_14adl_serializerENS2_IhNSA_IhEEEEEENSA_ISG_EEEEEELb0EE8__unwrapB8ne180100ESJ_, symObjAddr: 0x7E64, symBinAddr: 0x10000ADF0, symSize: 0x1C }
  - { offset: 0x3755F, size: 0x8, addend: 0x0, symName: __ZNSt3__14pairINS_11__wrap_iterIPN8nlohmann16json_abi_v3_11_210basic_jsonINS_3mapENS_6vectorENS_12basic_stringIcNS_11char_traitsIcEENS_9allocatorIcEEEEbxydSA_NS3_14adl_serializerENS6_IhNSA_IhEEEEEEEENS_20back_insert_iteratorINS6_ISG_NSA_ISG_EEEEEEEC1B8ne180100ISI_SM_Li0EEEOT_OT0_, symObjAddr: 0x7E80, symBinAddr: 0x10000AE0C, symSize: 0x3C }
  - { offset: 0x375BF, size: 0x8, addend: 0x0, symName: __ZNSt3__14pairINS_11__wrap_iterIPN8nlohmann16json_abi_v3_11_210basic_jsonINS_3mapENS_6vectorENS_12basic_stringIcNS_11char_traitsIcEENS_9allocatorIcEEEEbxydSA_NS3_14adl_serializerENS6_IhNSA_IhEEEEEEEENS_20back_insert_iteratorINS6_ISG_NSA_ISG_EEEEEEEC2B8ne180100ISI_SM_Li0EEEOT_OT0_, symObjAddr: 0x7EBC, symBinAddr: 0x10000AE48, symSize: 0x34 }
  - { offset: 0x3761F, size: 0x8, addend: 0x0, symName: __ZNSt3__118__unwrap_iter_implINS_11__wrap_iterIPN8nlohmann16json_abi_v3_11_210basic_jsonINS_3mapENS_6vectorENS_12basic_stringIcNS_11char_traitsIcEENS_9allocatorIcEEEEbxydSA_NS3_14adl_serializerENS6_IhNSA_IhEEEEEEEELb1EE8__rewrapB8ne180100ESI_SH_, symObjAddr: 0x7F3C, symBinAddr: 0x10000AEC8, symSize: 0x5C }
  - { offset: 0x37652, size: 0x8, addend: 0x0, symName: __ZNKSt3__111__wrap_iterIPN8nlohmann16json_abi_v3_11_210basic_jsonINS_3mapENS_6vectorENS_12basic_stringIcNS_11char_traitsIcEENS_9allocatorIcEEEEbxydS9_NS2_14adl_serializerENS5_IhNS9_IhEEEEEEEplB8ne180100El, symObjAddr: 0x7F98, symBinAddr: 0x10000AF24, symSize: 0x3C }
  - { offset: 0x37696, size: 0x8, addend: 0x0, symName: __ZNSt3__111__wrap_iterIPN8nlohmann16json_abi_v3_11_210basic_jsonINS_3mapENS_6vectorENS_12basic_stringIcNS_11char_traitsIcEENS_9allocatorIcEEEEbxydS9_NS2_14adl_serializerENS5_IhNS9_IhEEEEEEEpLB8ne180100El, symObjAddr: 0x7FD4, symBinAddr: 0x10000AF60, symSize: 0x28 }
  - { offset: 0x376CB, size: 0x8, addend: 0x0, symName: __ZNSt3__118__unwrap_iter_implINS_20back_insert_iteratorINS_6vectorIN8nlohmann16json_abi_v3_11_210basic_jsonINS_3mapES2_NS_12basic_stringIcNS_11char_traitsIcEENS_9allocatorIcEEEEbxydSA_NS4_14adl_serializerENS2_IhNSA_IhEEEEEENSA_ISG_EEEEEELb0EE8__rewrapB8ne180100ESJ_SJ_, symObjAddr: 0x7FFC, symBinAddr: 0x10000AF88, symSize: 0x20 }
  - { offset: 0x376FA, size: 0x8, addend: 0x0, symName: __ZNSt3__16vectorIN8nlohmann16json_abi_v3_11_210basic_jsonINS_3mapES0_NS_12basic_stringIcNS_11char_traitsIcEENS_9allocatorIcEEEEbxydS8_NS2_14adl_serializerENS0_IhNS8_IhEEEEEENS8_ISE_EEE11__make_iterB8ne180100EPSE_, symObjAddr: 0x801C, symBinAddr: 0x10000AFA8, symSize: 0x30 }
  - { offset: 0x3772F, size: 0x8, addend: 0x0, symName: __ZNSt3__111__wrap_iterIPN8nlohmann16json_abi_v3_11_210basic_jsonINS_3mapENS_6vectorENS_12basic_stringIcNS_11char_traitsIcEENS_9allocatorIcEEEEbxydS9_NS2_14adl_serializerENS5_IhNS9_IhEEEEEEEC1B8ne180100ESG_, symObjAddr: 0x804C, symBinAddr: 0x10000AFD8, symSize: 0x34 }
  - { offset: 0x37768, size: 0x8, addend: 0x0, symName: __ZNSt3__111__wrap_iterIPN8nlohmann16json_abi_v3_11_210basic_jsonINS_3mapENS_6vectorENS_12basic_stringIcNS_11char_traitsIcEENS_9allocatorIcEEEEbxydS9_NS2_14adl_serializerENS5_IhNS9_IhEEEEEEEC2B8ne180100ESG_, symObjAddr: 0x8080, symBinAddr: 0x10000B00C, symSize: 0x20 }
  - { offset: 0x377A1, size: 0x8, addend: 0x0, symName: __ZNSt3__120back_insert_iteratorINS_6vectorIN8nlohmann16json_abi_v3_11_210basic_jsonINS_3mapES1_NS_12basic_stringIcNS_11char_traitsIcEENS_9allocatorIcEEEEbxydS9_NS3_14adl_serializerENS1_IhNS9_IhEEEEEENS9_ISF_EEEEEC1B8ne180100ERSH_, symObjAddr: 0x80A0, symBinAddr: 0x10000B02C, symSize: 0x34 }
  - { offset: 0x377DA, size: 0x8, addend: 0x0, symName: __ZNSt3__120back_insert_iteratorINS_6vectorIN8nlohmann16json_abi_v3_11_210basic_jsonINS_3mapES1_NS_12basic_stringIcNS_11char_traitsIcEENS_9allocatorIcEEEEbxydS9_NS3_14adl_serializerENS1_IhNS9_IhEEEEEENS9_ISF_EEEEEC2B8ne180100ERSH_, symObjAddr: 0x80D4, symBinAddr: 0x10000B060, symSize: 0x20 }
  - { offset: 0x37813, size: 0x8, addend: 0x0, symName: __ZNKSt3__16__treeINS_12__value_typeINS_12basic_stringIcNS_11char_traitsIcEENS_9allocatorIcEEEEN8nlohmann16json_abi_v3_11_210basic_jsonINS_3mapENS_6vectorES7_bxydS5_NS9_14adl_serializerENSC_IhNS5_IhEEEEEEEENS_19__map_value_compareIS7_SH_NS_4lessIvEELb1EEENS5_ISH_EEE4sizeB8ne180100Ev, symObjAddr: 0x80F4, symBinAddr: 0x10000B080, symSize: 0x28 }
  - { offset: 0x37839, size: 0x8, addend: 0x0, symName: __ZNKSt3__117__compressed_pairImNS_19__map_value_compareINS_12basic_stringIcNS_11char_traitsIcEENS_9allocatorIcEEEENS_12__value_typeIS7_N8nlohmann16json_abi_v3_11_210basic_jsonINS_3mapENS_6vectorES7_bxydS5_NSA_14adl_serializerENSD_IhNS5_IhEEEEEEEENS_4lessIvEELb1EEEE5firstB8ne180100Ev, symObjAddr: 0x811C, symBinAddr: 0x10000B0A8, symSize: 0x24 }
  - { offset: 0x3785F, size: 0x8, addend: 0x0, symName: __ZNKSt3__122__compressed_pair_elemImLi0ELb0EE5__getB8ne180100Ev, symObjAddr: 0x8140, symBinAddr: 0x10000B0CC, symSize: 0x14 }
  - { offset: 0x37885, size: 0x8, addend: 0x0, symName: __ZNSt3__16__treeINS_12__value_typeINS_12basic_stringIcNS_11char_traitsIcEENS_9allocatorIcEEEEN8nlohmann16json_abi_v3_11_210basic_jsonINS_3mapENS_6vectorES7_bxydS5_NS9_14adl_serializerENSC_IhNS5_IhEEEEEEEENS_19__map_value_compareIS7_SH_NS_4lessIvEELb1EEENS5_ISH_EEE5beginB8ne180100Ev, symObjAddr: 0x8154, symBinAddr: 0x10000B0E0, symSize: 0x34 }
  - { offset: 0x378AB, size: 0x8, addend: 0x0, symName: __ZNSt3__114__map_iteratorINS_15__tree_iteratorINS_12__value_typeINS_12basic_stringIcNS_11char_traitsIcEENS_9allocatorIcEEEEN8nlohmann16json_abi_v3_11_210basic_jsonINS_3mapENS_6vectorES8_bxydS6_NSA_14adl_serializerENSD_IhNS6_IhEEEEEEEEPNS_11__tree_nodeISI_PvEElEEEC1B8ne180100ESN_, symObjAddr: 0x8188, symBinAddr: 0x10000B114, symSize: 0x34 }
  - { offset: 0x378E4, size: 0x8, addend: 0x0, symName: __ZNSt3__16__treeINS_12__value_typeINS_12basic_stringIcNS_11char_traitsIcEENS_9allocatorIcEEEEN8nlohmann16json_abi_v3_11_210basic_jsonINS_3mapENS_6vectorES7_bxydS5_NS9_14adl_serializerENSC_IhNS5_IhEEEEEEEENS_19__map_value_compareIS7_SH_NS_4lessIvEELb1EEENS5_ISH_EEE12__begin_nodeB8ne180100Ev, symObjAddr: 0x81BC, symBinAddr: 0x10000B148, symSize: 0x14 }
  - { offset: 0x3790A, size: 0x8, addend: 0x0, symName: __ZNSt3__115__tree_iteratorINS_12__value_typeINS_12basic_stringIcNS_11char_traitsIcEENS_9allocatorIcEEEEN8nlohmann16json_abi_v3_11_210basic_jsonINS_3mapENS_6vectorES7_bxydS5_NS9_14adl_serializerENSC_IhNS5_IhEEEEEEEEPNS_11__tree_nodeISH_PvEElEC1B8ne180100EPNS_15__tree_end_nodeIPNS_16__tree_node_baseISJ_EEEE, symObjAddr: 0x81D0, symBinAddr: 0x10000B15C, symSize: 0x34 }
  - { offset: 0x37943, size: 0x8, addend: 0x0, symName: __ZNSt3__115__tree_iteratorINS_12__value_typeINS_12basic_stringIcNS_11char_traitsIcEENS_9allocatorIcEEEEN8nlohmann16json_abi_v3_11_210basic_jsonINS_3mapENS_6vectorES7_bxydS5_NS9_14adl_serializerENSC_IhNS5_IhEEEEEEEEPNS_11__tree_nodeISH_PvEElEC2B8ne180100EPNS_15__tree_end_nodeIPNS_16__tree_node_baseISJ_EEEE, symObjAddr: 0x8204, symBinAddr: 0x10000B190, symSize: 0x20 }
  - { offset: 0x3797C, size: 0x8, addend: 0x0, symName: __ZNSt3__114__map_iteratorINS_15__tree_iteratorINS_12__value_typeINS_12basic_stringIcNS_11char_traitsIcEENS_9allocatorIcEEEEN8nlohmann16json_abi_v3_11_210basic_jsonINS_3mapENS_6vectorES8_bxydS6_NSA_14adl_serializerENSD_IhNS6_IhEEEEEEEEPNS_11__tree_nodeISI_PvEElEEEC2B8ne180100ESN_, symObjAddr: 0x8224, symBinAddr: 0x10000B1B0, symSize: 0x20 }
  - { offset: 0x379B5, size: 0x8, addend: 0x0, symName: __ZNSt3__16__treeINS_12__value_typeINS_12basic_stringIcNS_11char_traitsIcEENS_9allocatorIcEEEEN8nlohmann16json_abi_v3_11_210basic_jsonINS_3mapENS_6vectorES7_bxydS5_NS9_14adl_serializerENSC_IhNS5_IhEEEEEEEENS_19__map_value_compareIS7_SH_NS_4lessIvEELb1EEENS5_ISH_EEE3endB8ne180100Ev, symObjAddr: 0x8244, symBinAddr: 0x10000B1D0, symSize: 0x34 }
  - { offset: 0x379DB, size: 0x8, addend: 0x0, symName: __ZNSt3__16__treeINS_12__value_typeINS_12basic_stringIcNS_11char_traitsIcEENS_9allocatorIcEEEEN8nlohmann16json_abi_v3_11_210basic_jsonINS_3mapENS_6vectorES7_bxydS5_NS9_14adl_serializerENSC_IhNS5_IhEEEEEEEENS_19__map_value_compareIS7_SH_NS_4lessIvEELb1EEENS5_ISH_EEE10__end_nodeB8ne180100Ev, symObjAddr: 0x8278, symBinAddr: 0x10000B204, symSize: 0x2C }
  - { offset: 0x37A01, size: 0x8, addend: 0x0, symName: __ZNSt3__114pointer_traitsIPNS_15__tree_end_nodeIPNS_16__tree_node_baseIPvEEEEE10pointer_toB8ne180100ERS6_, symObjAddr: 0x82A4, symBinAddr: 0x10000B230, symSize: 0x14 }
  - { offset: 0x37A25, size: 0x8, addend: 0x0, symName: __ZNSt3__117__compressed_pairINS_15__tree_end_nodeIPNS_16__tree_node_baseIPvEEEENS_9allocatorINS_11__tree_nodeINS_12__value_typeINS_12basic_stringIcNS_11char_traitsIcEENS7_IcEEEEN8nlohmann16json_abi_v3_11_210basic_jsonINS_3mapENS_6vectorESE_bxydS7_NSG_14adl_serializerENSJ_IhNS7_IhEEEEEEEES3_EEEEE5firstB8ne180100Ev, symObjAddr: 0x82B8, symBinAddr: 0x10000B244, symSize: 0x24 }
  - { offset: 0x37A4B, size: 0x8, addend: 0x0, symName: __ZNSt3__122__compressed_pair_elemINS_15__tree_end_nodeIPNS_16__tree_node_baseIPvEEEELi0ELb0EE5__getB8ne180100Ev, symObjAddr: 0x82DC, symBinAddr: 0x10000B268, symSize: 0x14 }
  - { offset: 0x37A71, size: 0x8, addend: 0x0, symName: __ZNKSt3__115__tree_iteratorINS_12__value_typeINS_12basic_stringIcNS_11char_traitsIcEENS_9allocatorIcEEEEN8nlohmann16json_abi_v3_11_210basic_jsonINS_3mapENS_6vectorES7_bxydS5_NS9_14adl_serializerENSC_IhNS5_IhEEEEEEEEPNS_11__tree_nodeISH_PvEElEptB8ne180100Ev, symObjAddr: 0x8354, symBinAddr: 0x10000B2E0, symSize: 0x2C }
  - { offset: 0x37A97, size: 0x8, addend: 0x0, symName: __ZNSt3__112__value_typeINS_12basic_stringIcNS_11char_traitsIcEENS_9allocatorIcEEEEN8nlohmann16json_abi_v3_11_210basic_jsonINS_3mapENS_6vectorES6_bxydS4_NS8_14adl_serializerENSB_IhNS4_IhEEEEEEE11__get_valueB8ne180100Ev, symObjAddr: 0x8380, symBinAddr: 0x10000B30C, symSize: 0x24 }
  - { offset: 0x37ABD, size: 0x8, addend: 0x0, symName: __ZNSt3__114pointer_traitsIPNS_12__value_typeINS_12basic_stringIcNS_11char_traitsIcEENS_9allocatorIcEEEEN8nlohmann16json_abi_v3_11_210basic_jsonINS_3mapENS_6vectorES7_bxydS5_NS9_14adl_serializerENSC_IhNS5_IhEEEEEEEEE10pointer_toB8ne180100ERSH_, symObjAddr: 0x83A4, symBinAddr: 0x10000B330, symSize: 0x14 }
  - { offset: 0x37AE1, size: 0x8, addend: 0x0, symName: __ZNKSt3__115__tree_iteratorINS_12__value_typeINS_12basic_stringIcNS_11char_traitsIcEENS_9allocatorIcEEEEN8nlohmann16json_abi_v3_11_210basic_jsonINS_3mapENS_6vectorES7_bxydS5_NS9_14adl_serializerENSC_IhNS5_IhEEEEEEEEPNS_11__tree_nodeISH_PvEElE8__get_npB8ne180100Ev, symObjAddr: 0x83B8, symBinAddr: 0x10000B344, symSize: 0x18 }
  - { offset: 0x37B07, size: 0x8, addend: 0x0, symName: __ZNSt3__16vectorIN8nlohmann16json_abi_v3_11_210basic_jsonINS_3mapES0_NS_12basic_stringIcNS_11char_traitsIcEENS_9allocatorIcEEEEbxydS8_NS2_14adl_serializerENS0_IhNS8_IhEEEEEENS8_ISE_EEE22__construct_one_at_endB8ne180100IJSE_EEEvDpOT_, symObjAddr: 0x8408, symBinAddr: 0x10000B394, symSize: 0x90 }
  - { offset: 0x37B56, size: 0x8, addend: 0x0, symName: __ZNSt3__16vectorIN8nlohmann16json_abi_v3_11_210basic_jsonINS_3mapES0_NS_12basic_stringIcNS_11char_traitsIcEENS_9allocatorIcEEEEbxydS8_NS2_14adl_serializerENS0_IhNS8_IhEEEEEENS8_ISE_EEE21__push_back_slow_pathISE_EEPSE_OT_, symObjAddr: 0x8498, symBinAddr: 0x10000B424, symSize: 0xE8 }
  - { offset: 0x37BD0, size: 0x8, addend: 0x0, symName: __ZNSt3__16vectorIN8nlohmann16json_abi_v3_11_210basic_jsonINS_3mapES0_NS_12basic_stringIcNS_11char_traitsIcEENS_9allocatorIcEEEEbxydS8_NS2_14adl_serializerENS0_IhNS8_IhEEEEEENS8_ISE_EEE21_ConstructTransactionC1B8ne180100ERSG_m, symObjAddr: 0x8580, symBinAddr: 0x10000B50C, symSize: 0x3C }
  - { offset: 0x37C18, size: 0x8, addend: 0x0, symName: __ZNSt3__16vectorIN8nlohmann16json_abi_v3_11_210basic_jsonINS_3mapES0_NS_12basic_stringIcNS_11char_traitsIcEENS_9allocatorIcEEEEbxydS8_NS2_14adl_serializerENS0_IhNS8_IhEEEEEENS8_ISE_EEE21_ConstructTransactionD1B8ne180100Ev, symObjAddr: 0x85BC, symBinAddr: 0x10000B548, symSize: 0x2C }
  - { offset: 0x37C42, size: 0x8, addend: 0x0, symName: __ZNSt3__16vectorIN8nlohmann16json_abi_v3_11_210basic_jsonINS_3mapES0_NS_12basic_stringIcNS_11char_traitsIcEENS_9allocatorIcEEEEbxydS8_NS2_14adl_serializerENS0_IhNS8_IhEEEEEENS8_ISE_EEE21_ConstructTransactionC2B8ne180100ERSG_m, symObjAddr: 0x85E8, symBinAddr: 0x10000B574, symSize: 0x44 }
  - { offset: 0x37C8A, size: 0x8, addend: 0x0, symName: __ZNSt3__16vectorIN8nlohmann16json_abi_v3_11_210basic_jsonINS_3mapES0_NS_12basic_stringIcNS_11char_traitsIcEENS_9allocatorIcEEEEbxydS8_NS2_14adl_serializerENS0_IhNS8_IhEEEEEENS8_ISE_EEE21_ConstructTransactionD2B8ne180100Ev, symObjAddr: 0x862C, symBinAddr: 0x10000B5B8, symSize: 0x20 }
  - { offset: 0x37CB4, size: 0x8, addend: 0x0, symName: __ZNKSt3__16vectorIN8nlohmann16json_abi_v3_11_210basic_jsonINS_3mapES0_NS_12basic_stringIcNS_11char_traitsIcEENS_9allocatorIcEEEEbxydS8_NS2_14adl_serializerENS0_IhNS8_IhEEEEEENS8_ISE_EEE11__recommendB8ne180100Em, symObjAddr: 0x864C, symBinAddr: 0x10000B5D8, symSize: 0xB4 }
  - { offset: 0x37D09, size: 0x8, addend: 0x0, symName: __ZNSt3__115__tree_iteratorINS_12__value_typeINS_12basic_stringIcNS_11char_traitsIcEENS_9allocatorIcEEEEN8nlohmann16json_abi_v3_11_210basic_jsonINS_3mapENS_6vectorES7_bxydS5_NS9_14adl_serializerENSC_IhNS5_IhEEEEEEEEPNS_11__tree_nodeISH_PvEElEppB8ne180100Ev, symObjAddr: 0x8780, symBinAddr: 0x10000B70C, symSize: 0x38 }
  - { offset: 0x37D2F, size: 0x8, addend: 0x0, symName: __ZNKSt3__116__tree_node_baseIPvE15__parent_unsafeB8ne180100Ev, symObjAddr: 0x88B4, symBinAddr: 0x10000B840, symSize: 0x18 }
  - { offset: 0x37D55, size: 0x8, addend: 0x0, symName: __ZN8nlohmann16json_abi_v3_11_210basic_jsonINSt3__13mapENS2_6vectorENS2_12basic_stringIcNS2_11char_traitsIcEENS2_9allocatorIcEEEEbxydS8_NS0_14adl_serializerENS4_IhNS8_IhEEEEEC2EOSE_, symObjAddr: 0x88CC, symBinAddr: 0x10000B858, symSize: 0x8C }
  - { offset: 0x37D8E, size: 0x8, addend: 0x0, symName: __ZN8nlohmann16json_abi_v3_11_210basic_jsonINSt3__13mapENS2_6vectorENS2_12basic_stringIcNS2_11char_traitsIcEENS2_9allocatorIcEEEEbxydS8_NS0_14adl_serializerENS4_IhNS8_IhEEEEE11set_parentsEv, symObjAddr: 0x8958, symBinAddr: 0x10000B8E4, symSize: 0x10 }
  - { offset: 0x37DB4, size: 0x8, addend: 0x0, symName: __ZNSt3__16vectorIN8nlohmann16json_abi_v3_11_210basic_jsonINS_3mapES0_NS_12basic_stringIcNS_11char_traitsIcEENS_9allocatorIcEEEEbxydS8_NS2_14adl_serializerENS0_IhNS8_IhEEEEEENS8_ISE_EEE17__destruct_at_endB8ne180100EPSE_, symObjAddr: 0x8968, symBinAddr: 0x10000B8F4, symSize: 0x4C }
  - { offset: 0x37DF8, size: 0x8, addend: 0x0, symName: __ZNSt3__16vectorIN8nlohmann16json_abi_v3_11_210basic_jsonINS_3mapES0_NS_12basic_stringIcNS_11char_traitsIcEENS_9allocatorIcEEEEbxydS8_NS2_14adl_serializerENS0_IhNS8_IhEEEEEENS8_ISE_EEE22__base_destruct_at_endB8ne180100EPSE_, symObjAddr: 0x89B4, symBinAddr: 0x10000B940, symSize: 0x8C }
  - { offset: 0x37E3C, size: 0x8, addend: 0x0, symName: __ZNKSt3__16vectorIN8nlohmann16json_abi_v3_11_210basic_jsonINS_3mapES0_NS_12basic_stringIcNS_11char_traitsIcEENS_9allocatorIcEEEEbxydS8_NS2_14adl_serializerENS0_IhNS8_IhEEEEEENS8_ISE_EEE17__annotate_shrinkB8ne180100Em, symObjAddr: 0x8A40, symBinAddr: 0x10000B9CC, symSize: 0x14 }
  - { offset: 0x37E71, size: 0x8, addend: 0x0, symName: __ZNSt3__16vectorIN8nlohmann16json_abi_v3_11_210basic_jsonINS_3mapES0_NS_12basic_stringIcNS_11char_traitsIcEENS_9allocatorIcEEEEbxydS8_NS2_14adl_serializerENS0_IhNS8_IhEEEEEENS8_ISE_EEE7__clearB8ne180100Ev, symObjAddr: 0x8A54, symBinAddr: 0x10000B9E0, symSize: 0x28 }
  - { offset: 0x37E97, size: 0x8, addend: 0x0, symName: __ZNSt3__16__treeINS_12__value_typeINS_12basic_stringIcNS_11char_traitsIcEENS_9allocatorIcEEEEN8nlohmann16json_abi_v3_11_210basic_jsonINS_3mapENS_6vectorES7_bxydS5_NS9_14adl_serializerENSC_IhNS5_IhEEEEEEEENS_19__map_value_compareIS7_SH_NS_4lessIvEELb1EEENS5_ISH_EEE5clearEv, symObjAddr: 0x8A7C, symBinAddr: 0x10000BA08, symSize: 0x74 }
  - { offset: 0x37EBF, size: 0x8, addend: 0x0, symName: __ZNSt3__16__treeINS_12__value_typeINS_12basic_stringIcNS_11char_traitsIcEENS_9allocatorIcEEEEN8nlohmann16json_abi_v3_11_210basic_jsonINS_3mapENS_6vectorES7_bxydS5_NS9_14adl_serializerENSC_IhNS5_IhEEEEEEEENS_19__map_value_compareIS7_SH_NS_4lessIvEELb1EEENS5_ISH_EEE7destroyEPNS_11__tree_nodeISH_PvEE, symObjAddr: 0x8AF0, symBinAddr: 0x10000BA7C, symSize: 0xAC }
  - { offset: 0x37F0C, size: 0x8, addend: 0x0, symName: __ZNKSt3__16__treeINS_12__value_typeINS_12basic_stringIcNS_11char_traitsIcEENS_9allocatorIcEEEEN8nlohmann16json_abi_v3_11_210basic_jsonINS_3mapENS_6vectorES7_bxydS5_NS9_14adl_serializerENSC_IhNS5_IhEEEEEEEENS_19__map_value_compareIS7_SH_NS_4lessIvEELb1EEENS5_ISH_EEE6__rootB8ne180100Ev, symObjAddr: 0x8B9C, symBinAddr: 0x10000BB28, symSize: 0x28 }
  - { offset: 0x37F32, size: 0x8, addend: 0x0, symName: __ZNSt3__16__treeINS_12__value_typeINS_12basic_stringIcNS_11char_traitsIcEENS_9allocatorIcEEEEN8nlohmann16json_abi_v3_11_210basic_jsonINS_3mapENS_6vectorES7_bxydS5_NS9_14adl_serializerENSC_IhNS5_IhEEEEEEEENS_19__map_value_compareIS7_SH_NS_4lessIvEELb1EEENS5_ISH_EEE4sizeB8ne180100Ev, symObjAddr: 0x8BC4, symBinAddr: 0x10000BB50, symSize: 0x28 }
  - { offset: 0x37F58, size: 0x8, addend: 0x0, symName: __ZNSt3__16__treeINS_12__value_typeINS_12basic_stringIcNS_11char_traitsIcEENS_9allocatorIcEEEEN8nlohmann16json_abi_v3_11_210basic_jsonINS_3mapENS_6vectorES7_bxydS5_NS9_14adl_serializerENSC_IhNS5_IhEEEEEEEENS_19__map_value_compareIS7_SH_NS_4lessIvEELb1EEENS5_ISH_EEE12__node_allocB8ne180100Ev, symObjAddr: 0x8BEC, symBinAddr: 0x10000BB78, symSize: 0x28 }
  - { offset: 0x37F7E, size: 0x8, addend: 0x0, symName: __ZNSt3__116allocator_traitsINS_9allocatorINS_11__tree_nodeINS_12__value_typeINS_12basic_stringIcNS_11char_traitsIcEENS1_IcEEEEN8nlohmann16json_abi_v3_11_210basic_jsonINS_3mapENS_6vectorES8_bxydS1_NSA_14adl_serializerENSD_IhNS1_IhEEEEEEEEPvEEEEE7destroyB8ne180100INS_4pairIKS8_SH_EEvvEEvRSL_PT_, symObjAddr: 0x8C14, symBinAddr: 0x10000BBA0, symSize: 0x28 }
  - { offset: 0x37FB8, size: 0x8, addend: 0x0, symName: __ZNSt3__122__tree_key_value_typesINS_12__value_typeINS_12basic_stringIcNS_11char_traitsIcEENS_9allocatorIcEEEEN8nlohmann16json_abi_v3_11_210basic_jsonINS_3mapENS_6vectorES7_bxydS5_NS9_14adl_serializerENSC_IhNS5_IhEEEEEEEEE9__get_ptrB8ne180100ERSH_, symObjAddr: 0x8C3C, symBinAddr: 0x10000BBC8, symSize: 0x24 }
  - { offset: 0x37FDC, size: 0x8, addend: 0x0, symName: __ZNSt3__116allocator_traitsINS_9allocatorINS_11__tree_nodeINS_12__value_typeINS_12basic_stringIcNS_11char_traitsIcEENS1_IcEEEEN8nlohmann16json_abi_v3_11_210basic_jsonINS_3mapENS_6vectorES8_bxydS1_NSA_14adl_serializerENSD_IhNS1_IhEEEEEEEEPvEEEEE10deallocateB8ne180100ERSL_PSK_m, symObjAddr: 0x8C60, symBinAddr: 0x10000BBEC, symSize: 0x34 }
  - { offset: 0x3801E, size: 0x8, addend: 0x0, symName: __ZNSt3__117__compressed_pairINS_15__tree_end_nodeIPNS_16__tree_node_baseIPvEEEENS_9allocatorINS_11__tree_nodeINS_12__value_typeINS_12basic_stringIcNS_11char_traitsIcEENS7_IcEEEEN8nlohmann16json_abi_v3_11_210basic_jsonINS_3mapENS_6vectorESE_bxydS7_NSG_14adl_serializerENSJ_IhNS7_IhEEEEEEEES3_EEEEE6secondB8ne180100Ev, symObjAddr: 0x8C94, symBinAddr: 0x10000BC20, symSize: 0x24 }
  - { offset: 0x38044, size: 0x8, addend: 0x0, symName: __ZNSt3__122__compressed_pair_elemINS_9allocatorINS_11__tree_nodeINS_12__value_typeINS_12basic_stringIcNS_11char_traitsIcEENS1_IcEEEEN8nlohmann16json_abi_v3_11_210basic_jsonINS_3mapENS_6vectorES8_bxydS1_NSA_14adl_serializerENSD_IhNS1_IhEEEEEEEEPvEEEELi1ELb1EE5__getB8ne180100Ev, symObjAddr: 0x8CB8, symBinAddr: 0x10000BC44, symSize: 0x14 }
  - { offset: 0x3806A, size: 0x8, addend: 0x0, symName: __ZNSt3__14pairIKNS_12basic_stringIcNS_11char_traitsIcEENS_9allocatorIcEEEEN8nlohmann16json_abi_v3_11_210basic_jsonINS_3mapENS_6vectorES6_bxydS4_NS9_14adl_serializerENSC_IhNS4_IhEEEEEEED1Ev, symObjAddr: 0x8CF0, symBinAddr: 0x10000BC7C, symSize: 0x2C }
  - { offset: 0x38096, size: 0x8, addend: 0x0, symName: __ZNSt3__14pairIKNS_12basic_stringIcNS_11char_traitsIcEENS_9allocatorIcEEEEN8nlohmann16json_abi_v3_11_210basic_jsonINS_3mapENS_6vectorES6_bxydS4_NS9_14adl_serializerENSC_IhNS4_IhEEEEEEED2Ev, symObjAddr: 0x8D1C, symBinAddr: 0x10000BCA8, symSize: 0x38 }
  - { offset: 0x380C2, size: 0x8, addend: 0x0, symName: __ZNSt3__19allocatorINS_11__tree_nodeINS_12__value_typeINS_12basic_stringIcNS_11char_traitsIcEENS0_IcEEEEN8nlohmann16json_abi_v3_11_210basic_jsonINS_3mapENS_6vectorES7_bxydS0_NS9_14adl_serializerENSC_IhNS0_IhEEEEEEEEPvEEE10deallocateB8ne180100EPSJ_m, symObjAddr: 0x8D54, symBinAddr: 0x10000BCE0, symSize: 0x44 }
  - { offset: 0x38106, size: 0x8, addend: 0x0, symName: __ZNKSt3__16__treeINS_12__value_typeINS_12basic_stringIcNS_11char_traitsIcEENS_9allocatorIcEEEEN8nlohmann16json_abi_v3_11_210basic_jsonINS_3mapENS_6vectorES7_bxydS5_NS9_14adl_serializerENSC_IhNS5_IhEEEEEEEENS_19__map_value_compareIS7_SH_NS_4lessIvEELb1EEENS5_ISH_EEE10__end_nodeB8ne180100Ev, symObjAddr: 0x8D98, symBinAddr: 0x10000BD24, symSize: 0x2C }
  - { offset: 0x3812C, size: 0x8, addend: 0x0, symName: __ZNKSt3__117__compressed_pairINS_15__tree_end_nodeIPNS_16__tree_node_baseIPvEEEENS_9allocatorINS_11__tree_nodeINS_12__value_typeINS_12basic_stringIcNS_11char_traitsIcEENS7_IcEEEEN8nlohmann16json_abi_v3_11_210basic_jsonINS_3mapENS_6vectorESE_bxydS7_NSG_14adl_serializerENSJ_IhNS7_IhEEEEEEEES3_EEEEE5firstB8ne180100Ev, symObjAddr: 0x8DC4, symBinAddr: 0x10000BD50, symSize: 0x24 }
  - { offset: 0x38152, size: 0x8, addend: 0x0, symName: __ZNKSt3__122__compressed_pair_elemINS_15__tree_end_nodeIPNS_16__tree_node_baseIPvEEEELi0ELb0EE5__getB8ne180100Ev, symObjAddr: 0x8DE8, symBinAddr: 0x10000BD74, symSize: 0x14 }
  - { offset: 0x38178, size: 0x8, addend: 0x0, symName: __ZNSt3__117__compressed_pairImNS_19__map_value_compareINS_12basic_stringIcNS_11char_traitsIcEENS_9allocatorIcEEEENS_12__value_typeIS7_N8nlohmann16json_abi_v3_11_210basic_jsonINS_3mapENS_6vectorES7_bxydS5_NSA_14adl_serializerENSD_IhNS5_IhEEEEEEEENS_4lessIvEELb1EEEE5firstB8ne180100Ev, symObjAddr: 0x8DFC, symBinAddr: 0x10000BD88, symSize: 0x24 }
  - { offset: 0x3819E, size: 0x8, addend: 0x0, symName: __ZNSt3__122__compressed_pair_elemImLi0ELb0EE5__getB8ne180100Ev, symObjAddr: 0x8E20, symBinAddr: 0x10000BDAC, symSize: 0x14 }
  - { offset: 0x381C4, size: 0x8, addend: 0x0, symName: __ZNSt3__16vectorIN8nlohmann16json_abi_v3_11_210basic_jsonINS_3mapES0_NS_12basic_stringIcNS_11char_traitsIcEENS_9allocatorIcEEEEbxydS8_NS2_14adl_serializerENS0_IhNS8_IhEEEEEENS8_ISE_EEED2B8ne180100Ev, symObjAddr: 0x8E34, symBinAddr: 0x10000BDC0, symSize: 0x44 }
  - { offset: 0x381EE, size: 0x8, addend: 0x0, symName: __ZNSt3__16vectorIN8nlohmann16json_abi_v3_11_210basic_jsonINS_3mapES0_NS_12basic_stringIcNS_11char_traitsIcEENS_9allocatorIcEEEEbxydS8_NS2_14adl_serializerENS0_IhNS8_IhEEEEEENS8_ISE_EEE16__destroy_vectorC1B8ne180100ERSG_, symObjAddr: 0x8E78, symBinAddr: 0x10000BE04, symSize: 0x34 }
  - { offset: 0x38227, size: 0x8, addend: 0x0, symName: __ZNSt3__16vectorIN8nlohmann16json_abi_v3_11_210basic_jsonINS_3mapES0_NS_12basic_stringIcNS_11char_traitsIcEENS_9allocatorIcEEEEbxydS8_NS2_14adl_serializerENS0_IhNS8_IhEEEEEENS8_ISE_EEE16__destroy_vectorclB8ne180100Ev, symObjAddr: 0x8EAC, symBinAddr: 0x10000BE38, symSize: 0x90 }
  - { offset: 0x3824D, size: 0x8, addend: 0x0, symName: __ZNSt3__16vectorIN8nlohmann16json_abi_v3_11_210basic_jsonINS_3mapES0_NS_12basic_stringIcNS_11char_traitsIcEENS_9allocatorIcEEEEbxydS8_NS2_14adl_serializerENS0_IhNS8_IhEEEEEENS8_ISE_EEE16__destroy_vectorC2B8ne180100ERSG_, symObjAddr: 0x8F3C, symBinAddr: 0x10000BEC8, symSize: 0x20 }
  - { offset: 0x38286, size: 0x8, addend: 0x0, symName: __ZNSt3__19allocatorINS_3mapINS_12basic_stringIcNS_11char_traitsIcEENS0_IcEEEEN8nlohmann16json_abi_v3_11_210basic_jsonIS1_NS_6vectorES6_bxydS0_NS8_14adl_serializerENSA_IhNS0_IhEEEEEENS_4lessIvEENS0_INS_4pairIKS6_SE_EEEEEEEC2B8ne180100Ev, symObjAddr: 0x8F5C, symBinAddr: 0x10000BEE8, symSize: 0x2C }
  - { offset: 0x382B0, size: 0x8, addend: 0x0, symName: __ZNSt3__116__non_trivial_ifILb1ENS_9allocatorINS_3mapINS_12basic_stringIcNS_11char_traitsIcEENS1_IcEEEEN8nlohmann16json_abi_v3_11_210basic_jsonIS2_NS_6vectorES7_bxydS1_NS9_14adl_serializerENSB_IhNS1_IhEEEEEENS_4lessIvEENS1_INS_4pairIKS7_SF_EEEEEEEEEC2B8ne180100Ev, symObjAddr: 0x8F88, symBinAddr: 0x10000BF14, symSize: 0x14 }
  - { offset: 0x382DA, size: 0x8, addend: 0x0, symName: __ZNSt3__19allocatorINS_3mapINS_12basic_stringIcNS_11char_traitsIcEENS0_IcEEEEN8nlohmann16json_abi_v3_11_210basic_jsonIS1_NS_6vectorES6_bxydS0_NS8_14adl_serializerENSA_IhNS0_IhEEEEEENS_4lessIvEENS0_INS_4pairIKS6_SE_EEEEEEE7destroyB8ne180100EPSL_, symObjAddr: 0x8F9C, symBinAddr: 0x10000BF28, symSize: 0x28 }
  - { offset: 0x3830F, size: 0x8, addend: 0x0, symName: __ZNSt3__13mapINS_12basic_stringIcNS_11char_traitsIcEENS_9allocatorIcEEEEN8nlohmann16json_abi_v3_11_210basic_jsonIS0_NS_6vectorES6_bxydS4_NS8_14adl_serializerENSA_IhNS4_IhEEEEEENS_4lessIvEENS4_INS_4pairIKS6_SE_EEEEED1B8ne180100Ev, symObjAddr: 0x8FC4, symBinAddr: 0x10000BF50, symSize: 0x2C }
  - { offset: 0x38339, size: 0x8, addend: 0x0, symName: __ZNSt3__13mapINS_12basic_stringIcNS_11char_traitsIcEENS_9allocatorIcEEEEN8nlohmann16json_abi_v3_11_210basic_jsonIS0_NS_6vectorES6_bxydS4_NS8_14adl_serializerENSA_IhNS4_IhEEEEEENS_4lessIvEENS4_INS_4pairIKS6_SE_EEEEED2B8ne180100Ev, symObjAddr: 0x8FF0, symBinAddr: 0x10000BF7C, symSize: 0x2C }
  - { offset: 0x38363, size: 0x8, addend: 0x0, symName: __ZNSt3__16__treeINS_12__value_typeINS_12basic_stringIcNS_11char_traitsIcEENS_9allocatorIcEEEEN8nlohmann16json_abi_v3_11_210basic_jsonINS_3mapENS_6vectorES7_bxydS5_NS9_14adl_serializerENSC_IhNS5_IhEEEEEEEENS_19__map_value_compareIS7_SH_NS_4lessIvEELb1EEENS5_ISH_EEED1Ev, symObjAddr: 0x901C, symBinAddr: 0x10000BFA8, symSize: 0x2C }
  - { offset: 0x3838F, size: 0x8, addend: 0x0, symName: __ZNSt3__16__treeINS_12__value_typeINS_12basic_stringIcNS_11char_traitsIcEENS_9allocatorIcEEEEN8nlohmann16json_abi_v3_11_210basic_jsonINS_3mapENS_6vectorES7_bxydS5_NS9_14adl_serializerENSC_IhNS5_IhEEEEEEEENS_19__map_value_compareIS7_SH_NS_4lessIvEELb1EEENS5_ISH_EEED2Ev, symObjAddr: 0x9048, symBinAddr: 0x10000BFD4, symSize: 0x38 }
  - { offset: 0x383BB, size: 0x8, addend: 0x0, symName: __ZNSt3__19allocatorINS_3mapINS_12basic_stringIcNS_11char_traitsIcEENS0_IcEEEEN8nlohmann16json_abi_v3_11_210basic_jsonIS1_NS_6vectorES6_bxydS0_NS8_14adl_serializerENSA_IhNS0_IhEEEEEENS_4lessIvEENS0_INS_4pairIKS6_SE_EEEEEEE10deallocateB8ne180100EPSL_m, symObjAddr: 0x9080, symBinAddr: 0x10000C00C, symSize: 0x44 }
  - { offset: 0x383FF, size: 0x8, addend: 0x0, symName: __ZNSt3__19allocatorINS_6vectorIN8nlohmann16json_abi_v3_11_210basic_jsonINS_3mapES1_NS_12basic_stringIcNS_11char_traitsIcEENS0_IcEEEEbxydS0_NS3_14adl_serializerENS1_IhNS0_IhEEEEEENS0_ISE_EEEEEC2B8ne180100Ev, symObjAddr: 0x90C4, symBinAddr: 0x10000C050, symSize: 0x2C }
  - { offset: 0x38429, size: 0x8, addend: 0x0, symName: __ZNSt3__116__non_trivial_ifILb1ENS_9allocatorINS_6vectorIN8nlohmann16json_abi_v3_11_210basic_jsonINS_3mapES2_NS_12basic_stringIcNS_11char_traitsIcEENS1_IcEEEEbxydS1_NS4_14adl_serializerENS2_IhNS1_IhEEEEEENS1_ISF_EEEEEEEC2B8ne180100Ev, symObjAddr: 0x90F0, symBinAddr: 0x10000C07C, symSize: 0x14 }
  - { offset: 0x38453, size: 0x8, addend: 0x0, symName: __ZNSt3__19allocatorINS_6vectorIN8nlohmann16json_abi_v3_11_210basic_jsonINS_3mapES1_NS_12basic_stringIcNS_11char_traitsIcEENS0_IcEEEEbxydS0_NS3_14adl_serializerENS1_IhNS0_IhEEEEEENS0_ISE_EEEEE7destroyB8ne180100EPSG_, symObjAddr: 0x9104, symBinAddr: 0x10000C090, symSize: 0x28 }
  - { offset: 0x38488, size: 0x8, addend: 0x0, symName: __ZNSt3__19allocatorINS_6vectorIN8nlohmann16json_abi_v3_11_210basic_jsonINS_3mapES1_NS_12basic_stringIcNS_11char_traitsIcEENS0_IcEEEEbxydS0_NS3_14adl_serializerENS1_IhNS0_IhEEEEEENS0_ISE_EEEEE10deallocateB8ne180100EPSG_m, symObjAddr: 0x912C, symBinAddr: 0x10000C0B8, symSize: 0x44 }
  - { offset: 0x384CC, size: 0x8, addend: 0x0, symName: __ZNSt3__19allocatorINS_12basic_stringIcNS_11char_traitsIcEENS0_IcEEEEEC2B8ne180100Ev, symObjAddr: 0x9170, symBinAddr: 0x10000C0FC, symSize: 0x2C }
  - { offset: 0x384F6, size: 0x8, addend: 0x0, symName: __ZNSt3__116__non_trivial_ifILb1ENS_9allocatorINS_12basic_stringIcNS_11char_traitsIcEENS1_IcEEEEEEEC2B8ne180100Ev, symObjAddr: 0x919C, symBinAddr: 0x10000C128, symSize: 0x14 }
  - { offset: 0x38520, size: 0x8, addend: 0x0, symName: __ZNSt3__19allocatorINS_12basic_stringIcNS_11char_traitsIcEENS0_IcEEEEE7destroyB8ne180100EPS5_, symObjAddr: 0x91B0, symBinAddr: 0x10000C13C, symSize: 0x28 }
  - { offset: 0x38555, size: 0x8, addend: 0x0, symName: __ZNSt3__19allocatorINS_12basic_stringIcNS_11char_traitsIcEENS0_IcEEEEE10deallocateB8ne180100EPS5_m, symObjAddr: 0x91D8, symBinAddr: 0x10000C164, symSize: 0x44 }
  - { offset: 0x38599, size: 0x8, addend: 0x0, symName: __ZNSt3__19allocatorIN8nlohmann16json_abi_v3_11_227byte_container_with_subtypeINS_6vectorIhNS0_IhEEEEEEEC2B8ne180100Ev, symObjAddr: 0x921C, symBinAddr: 0x10000C1A8, symSize: 0x2C }
  - { offset: 0x385C3, size: 0x8, addend: 0x0, symName: __ZNSt3__116__non_trivial_ifILb1ENS_9allocatorIN8nlohmann16json_abi_v3_11_227byte_container_with_subtypeINS_6vectorIhNS1_IhEEEEEEEEEC2B8ne180100Ev, symObjAddr: 0x9248, symBinAddr: 0x10000C1D4, symSize: 0x14 }
  - { offset: 0x385ED, size: 0x8, addend: 0x0, symName: __ZNSt3__19allocatorIN8nlohmann16json_abi_v3_11_227byte_container_with_subtypeINS_6vectorIhNS0_IhEEEEEEE7destroyB8ne180100EPS7_, symObjAddr: 0x925C, symBinAddr: 0x10000C1E8, symSize: 0x28 }
  - { offset: 0x38622, size: 0x8, addend: 0x0, symName: __ZN8nlohmann16json_abi_v3_11_227byte_container_with_subtypeINSt3__16vectorIhNS2_9allocatorIhEEEEED1Ev, symObjAddr: 0x9284, symBinAddr: 0x10000C210, symSize: 0x2C }
  - { offset: 0x3864F, size: 0x8, addend: 0x0, symName: __ZN8nlohmann16json_abi_v3_11_227byte_container_with_subtypeINSt3__16vectorIhNS2_9allocatorIhEEEEED2Ev, symObjAddr: 0x92B0, symBinAddr: 0x10000C23C, symSize: 0x2C }
  - { offset: 0x3867C, size: 0x8, addend: 0x0, symName: __ZNSt3__16vectorIhNS_9allocatorIhEEED2B8ne180100Ev, symObjAddr: 0x92DC, symBinAddr: 0x10000C268, symSize: 0x44 }
  - { offset: 0x386A6, size: 0x8, addend: 0x0, symName: __ZNSt3__16vectorIhNS_9allocatorIhEEE16__destroy_vectorC1B8ne180100ERS3_, symObjAddr: 0x9320, symBinAddr: 0x10000C2AC, symSize: 0x34 }
  - { offset: 0x386DF, size: 0x8, addend: 0x0, symName: __ZNSt3__16vectorIhNS_9allocatorIhEEE16__destroy_vectorclB8ne180100Ev, symObjAddr: 0x9354, symBinAddr: 0x10000C2E0, symSize: 0x90 }
  - { offset: 0x38705, size: 0x8, addend: 0x0, symName: __ZNSt3__16vectorIhNS_9allocatorIhEEE16__destroy_vectorC2B8ne180100ERS3_, symObjAddr: 0x93E4, symBinAddr: 0x10000C370, symSize: 0x20 }
  - { offset: 0x3873E, size: 0x8, addend: 0x0, symName: __ZNSt3__16vectorIhNS_9allocatorIhEEE7__clearB8ne180100Ev, symObjAddr: 0x9404, symBinAddr: 0x10000C390, symSize: 0x28 }
  - { offset: 0x38764, size: 0x8, addend: 0x0, symName: __ZNKSt3__16vectorIhNS_9allocatorIhEEE17__annotate_deleteB8ne180100Ev, symObjAddr: 0x942C, symBinAddr: 0x10000C3B8, symSize: 0x10 }
  - { offset: 0x3878A, size: 0x8, addend: 0x0, symName: __ZNSt3__116allocator_traitsINS_9allocatorIhEEE10deallocateB8ne180100ERS2_Phm, symObjAddr: 0x943C, symBinAddr: 0x10000C3C8, symSize: 0x34 }
  - { offset: 0x387CC, size: 0x8, addend: 0x0, symName: __ZNSt3__16vectorIhNS_9allocatorIhEEE7__allocB8ne180100Ev, symObjAddr: 0x9470, symBinAddr: 0x10000C3FC, symSize: 0x28 }
  - { offset: 0x387F2, size: 0x8, addend: 0x0, symName: __ZNKSt3__16vectorIhNS_9allocatorIhEEE8capacityB8ne180100Ev, symObjAddr: 0x9498, symBinAddr: 0x10000C424, symSize: 0x38 }
  - { offset: 0x38818, size: 0x8, addend: 0x0, symName: __ZNSt3__16vectorIhNS_9allocatorIhEEE22__base_destruct_at_endB8ne180100EPh, symObjAddr: 0x94D0, symBinAddr: 0x10000C45C, symSize: 0x8C }
  - { offset: 0x3885C, size: 0x8, addend: 0x0, symName: __ZNSt3__116allocator_traitsINS_9allocatorIhEEE7destroyB8ne180100IhvEEvRS2_PT_, symObjAddr: 0x955C, symBinAddr: 0x10000C4E8, symSize: 0x2C }
  - { offset: 0x38899, size: 0x8, addend: 0x0, symName: __ZNSt3__19allocatorIhE7destroyB8ne180100EPh, symObjAddr: 0x959C, symBinAddr: 0x10000C528, symSize: 0x14 }
  - { offset: 0x388CE, size: 0x8, addend: 0x0, symName: __ZNSt3__19allocatorIhE10deallocateB8ne180100EPhm, symObjAddr: 0x95B0, symBinAddr: 0x10000C53C, symSize: 0x40 }
  - { offset: 0x38912, size: 0x8, addend: 0x0, symName: __ZNSt3__117__compressed_pairIPhNS_9allocatorIhEEE6secondB8ne180100Ev, symObjAddr: 0x95F0, symBinAddr: 0x10000C57C, symSize: 0x24 }
  - { offset: 0x38938, size: 0x8, addend: 0x0, symName: __ZNSt3__122__compressed_pair_elemINS_9allocatorIhEELi1ELb1EE5__getB8ne180100Ev, symObjAddr: 0x9614, symBinAddr: 0x10000C5A0, symSize: 0x14 }
  - { offset: 0x3895E, size: 0x8, addend: 0x0, symName: __ZNKSt3__16vectorIhNS_9allocatorIhEEE9__end_capB8ne180100Ev, symObjAddr: 0x9628, symBinAddr: 0x10000C5B4, symSize: 0x28 }
  - { offset: 0x38984, size: 0x8, addend: 0x0, symName: __ZNKSt3__117__compressed_pairIPhNS_9allocatorIhEEE5firstB8ne180100Ev, symObjAddr: 0x9650, symBinAddr: 0x10000C5DC, symSize: 0x24 }
  - { offset: 0x389AA, size: 0x8, addend: 0x0, symName: __ZNKSt3__122__compressed_pair_elemIPhLi0ELb0EE5__getB8ne180100Ev, symObjAddr: 0x9674, symBinAddr: 0x10000C600, symSize: 0x14 }
  - { offset: 0x389D0, size: 0x8, addend: 0x0, symName: __ZNSt3__19allocatorIN8nlohmann16json_abi_v3_11_227byte_container_with_subtypeINS_6vectorIhNS0_IhEEEEEEE10deallocateB8ne180100EPS7_m, symObjAddr: 0x9688, symBinAddr: 0x10000C614, symSize: 0x44 }
  - { offset: 0x38A14, size: 0x8, addend: 0x0, symName: __ZNSt3__19allocatorI8TreeNodeEC1B8ne180100Ev, symObjAddr: 0x9774, symBinAddr: 0x10000C700, symSize: 0x2C }
  - { offset: 0x38A95, size: 0x8, addend: 0x0, symName: __ZNSt3__118__allocation_guardINS_9allocatorINS_20__shared_ptr_emplaceI8TreeNodeNS1_IS3_EEEEEEEC1B8ne180100IS4_EET_m, symObjAddr: 0x97A0, symBinAddr: 0x10000C72C, symSize: 0x34 }
  - { offset: 0x38AE6, size: 0x8, addend: 0x0, symName: __ZNKSt3__118__allocation_guardINS_9allocatorINS_20__shared_ptr_emplaceI8TreeNodeNS1_IS3_EEEEEEE5__getB8ne180100Ev, symObjAddr: 0x97D4, symBinAddr: 0x10000C760, symSize: 0x18 }
  - { offset: 0x38B0C, size: 0x8, addend: 0x0, symName: __ZNSt3__120__shared_ptr_emplaceI8TreeNodeNS_9allocatorIS1_EEEC1B8ne180100IJRKNS_12basic_stringIcNS_11char_traitsIcEENS2_IcEEEERSA_SD_ES3_Li0EEES3_DpOT_, symObjAddr: 0x97EC, symBinAddr: 0x10000C778, symSize: 0x44 }
  - { offset: 0x38B96, size: 0x8, addend: 0x0, symName: __ZNSt3__118__allocation_guardINS_9allocatorINS_20__shared_ptr_emplaceI8TreeNodeNS1_IS3_EEEEEEE13__release_ptrB8ne180100Ev, symObjAddr: 0x9830, symBinAddr: 0x10000C7BC, symSize: 0x24 }
  - { offset: 0x38BCB, size: 0x8, addend: 0x0, symName: __ZNSt3__110shared_ptrI8TreeNodeE27__create_with_control_blockB8ne180100IS1_NS_20__shared_ptr_emplaceIS1_NS_9allocatorIS1_EEEEEES2_PT_PT0_, symObjAddr: 0x9854, symBinAddr: 0x10000C7E0, symSize: 0xA4 }
  - { offset: 0x38C20, size: 0x8, addend: 0x0, symName: __ZNSt3__120__shared_ptr_emplaceI8TreeNodeNS_9allocatorIS1_EEE10__get_elemB8ne180100Ev, symObjAddr: 0x98F8, symBinAddr: 0x10000C884, symSize: 0x28 }
  - { offset: 0x38C46, size: 0x8, addend: 0x0, symName: __ZNSt3__118__allocation_guardINS_9allocatorINS_20__shared_ptr_emplaceI8TreeNodeNS1_IS3_EEEEEEED1B8ne180100Ev, symObjAddr: 0x9920, symBinAddr: 0x10000C8AC, symSize: 0x2C }
  - { offset: 0x38C70, size: 0x8, addend: 0x0, symName: __ZNSt3__118__allocation_guardINS_9allocatorINS_20__shared_ptr_emplaceI8TreeNodeNS1_IS3_EEEEEEEC2B8ne180100IS4_EET_m, symObjAddr: 0x994C, symBinAddr: 0x10000C8D8, symSize: 0x50 }
  - { offset: 0x38CC1, size: 0x8, addend: 0x0, symName: __ZNSt3__19allocatorINS_20__shared_ptr_emplaceI8TreeNodeNS0_IS2_EEEEEC1B8ne180100IS2_EERKNS0_IT_EE, symObjAddr: 0x999C, symBinAddr: 0x10000C928, symSize: 0x34 }
  - { offset: 0x38CFF, size: 0x8, addend: 0x0, symName: __ZNSt3__116allocator_traitsINS_9allocatorINS_20__shared_ptr_emplaceI8TreeNodeNS1_IS3_EEEEEEE8allocateB8ne180100ERS6_m, symObjAddr: 0x99D0, symBinAddr: 0x10000C95C, symSize: 0x2C }
  - { offset: 0x38D32, size: 0x8, addend: 0x0, symName: __ZNSt3__19allocatorINS_20__shared_ptr_emplaceI8TreeNodeNS0_IS2_EEEEEC2B8ne180100IS2_EERKNS0_IT_EE, symObjAddr: 0x99FC, symBinAddr: 0x10000C988, symSize: 0x30 }
  - { offset: 0x38D70, size: 0x8, addend: 0x0, symName: __ZNSt3__116__non_trivial_ifILb1ENS_9allocatorINS_20__shared_ptr_emplaceI8TreeNodeNS1_IS3_EEEEEEEC2B8ne180100Ev, symObjAddr: 0x9A2C, symBinAddr: 0x10000C9B8, symSize: 0x14 }
  - { offset: 0x38D9A, size: 0x8, addend: 0x0, symName: __ZNSt3__19allocatorINS_20__shared_ptr_emplaceI8TreeNodeNS0_IS2_EEEEE8allocateB8ne180100Em, symObjAddr: 0x9A40, symBinAddr: 0x10000C9CC, symSize: 0x5C }
  - { offset: 0x38DDA, size: 0x8, addend: 0x0, symName: __ZNSt3__116allocator_traitsINS_9allocatorINS_20__shared_ptr_emplaceI8TreeNodeNS1_IS3_EEEEEEE8max_sizeB8ne180100IS6_vEEmRKS6_, symObjAddr: 0x9A9C, symBinAddr: 0x10000CA28, symSize: 0x24 }
  - { offset: 0x38E08, size: 0x8, addend: 0x0, symName: __ZNKSt3__19allocatorINS_20__shared_ptr_emplaceI8TreeNodeNS0_IS2_EEEEE8max_sizeB8ne180100Ev, symObjAddr: 0x9AC0, symBinAddr: 0x10000CA4C, symSize: 0x18 }
  - { offset: 0x38E2E, size: 0x8, addend: 0x0, symName: __ZNSt3__120__shared_ptr_emplaceI8TreeNodeNS_9allocatorIS1_EEEC2B8ne180100IJRKNS_12basic_stringIcNS_11char_traitsIcEENS2_IcEEEERSA_SD_ES3_Li0EEES3_DpOT_, symObjAddr: 0x9AD8, symBinAddr: 0x10000CA64, symSize: 0xCC }
  - { offset: 0x38EDA, size: 0x8, addend: 0x0, symName: __ZNSt3__119__shared_weak_countC2B8ne180100El, symObjAddr: 0x9BA4, symBinAddr: 0x10000CB30, symSize: 0x4C }
  - { offset: 0x38F13, size: 0x8, addend: 0x0, symName: __ZNSt3__120__shared_ptr_emplaceI8TreeNodeNS_9allocatorIS1_EEE8_StorageC1B8ne180100EOS3_, symObjAddr: 0x9BF0, symBinAddr: 0x10000CB7C, symSize: 0x34 }
  - { offset: 0x38F4C, size: 0x8, addend: 0x0, symName: __ZNSt3__120__shared_ptr_emplaceI8TreeNodeNS_9allocatorIS1_EEE11__get_allocB8ne180100Ev, symObjAddr: 0x9C24, symBinAddr: 0x10000CBB0, symSize: 0x28 }
  - { offset: 0x38F78, size: 0x8, addend: 0x0, symName: __ZNSt3__116allocator_traitsINS_9allocatorI8TreeNodeEEE9constructB8ne180100IS2_JRKNS_12basic_stringIcNS_11char_traitsIcEENS1_IcEEEERSA_SD_EvEEvRS3_PT_DpOT0_, symObjAddr: 0x9C4C, symBinAddr: 0x10000CBD8, symSize: 0x44 }
  - { offset: 0x38FF7, size: 0x8, addend: 0x0, symName: __ZNSt3__120__shared_ptr_emplaceI8TreeNodeNS_9allocatorIS1_EEE8_StorageD1B8ne180100Ev, symObjAddr: 0x9C90, symBinAddr: 0x10000CC1C, symSize: 0x2C }
  - { offset: 0x39021, size: 0x8, addend: 0x0, symName: __ZNSt3__120__shared_ptr_emplaceI8TreeNodeNS_9allocatorIS1_EEED1Ev, symObjAddr: 0x9CBC, symBinAddr: 0x10000CC48, symSize: 0x2C }
  - { offset: 0x3904D, size: 0x8, addend: 0x0, symName: __ZNSt3__120__shared_ptr_emplaceI8TreeNodeNS_9allocatorIS1_EEED0Ev, symObjAddr: 0x9CE8, symBinAddr: 0x10000CC74, symSize: 0x30 }
  - { offset: 0x39079, size: 0x8, addend: 0x0, symName: __ZNSt3__120__shared_ptr_emplaceI8TreeNodeNS_9allocatorIS1_EEE16__on_zero_sharedEv, symObjAddr: 0x9D18, symBinAddr: 0x10000CCA4, symSize: 0x24 }
  - { offset: 0x3909F, size: 0x8, addend: 0x0, symName: __ZNSt3__120__shared_ptr_emplaceI8TreeNodeNS_9allocatorIS1_EEE21__on_zero_shared_weakEv, symObjAddr: 0x9D3C, symBinAddr: 0x10000CCC8, symSize: 0x5C }
  - { offset: 0x390E0, size: 0x8, addend: 0x0, symName: __ZNSt3__114__shared_countC2B8ne180100El, symObjAddr: 0x9D98, symBinAddr: 0x10000CD24, symSize: 0x30 }
  - { offset: 0x39119, size: 0x8, addend: 0x0, symName: __ZNSt3__120__shared_ptr_emplaceI8TreeNodeNS_9allocatorIS1_EEE8_StorageC2B8ne180100EOS3_, symObjAddr: 0x9DC8, symBinAddr: 0x10000CD54, symSize: 0x30 }
  - { offset: 0x39152, size: 0x8, addend: 0x0, symName: __ZNSt3__120__shared_ptr_emplaceI8TreeNodeNS_9allocatorIS1_EEE8_Storage11__get_allocB8ne180100Ev, symObjAddr: 0x9DF8, symBinAddr: 0x10000CD84, symSize: 0x3C }
  - { offset: 0x391A5, size: 0x8, addend: 0x0, symName: __ZNSt3__117__compressed_pairINS_9allocatorI8TreeNodeEES2_E16__get_first_baseB8ne180100EPS4_, symObjAddr: 0x9E34, symBinAddr: 0x10000CDC0, symSize: 0x14 }
  - { offset: 0x391C9, size: 0x8, addend: 0x0, symName: __ZNSt3__19allocatorI8TreeNodeE9constructB8ne180100IS1_JRKNS_12basic_stringIcNS_11char_traitsIcEENS0_IcEEEERS8_SB_EEEvPT_DpOT0_, symObjAddr: 0x9E48, symBinAddr: 0x10000CDD4, symSize: 0x40 }
  - { offset: 0x39249, size: 0x8, addend: 0x0, symName: __ZN8TreeNodeC1ERKNSt3__112basic_stringIcNS0_11char_traitsIcEENS0_9allocatorIcEEEES8_S8_, symObjAddr: 0x9E88, symBinAddr: 0x10000CE14, symSize: 0x44 }
  - { offset: 0x392A0, size: 0x8, addend: 0x0, symName: __ZN8TreeNodeC2ERKNSt3__112basic_stringIcNS0_11char_traitsIcEENS0_9allocatorIcEEEES8_S8_, symObjAddr: 0x9ECC, symBinAddr: 0x10000CE58, symSize: 0xBC }
  - { offset: 0x392F7, size: 0x8, addend: 0x0, symName: __ZNSt3__18weak_ptrI8TreeNodeEC1Ev, symObjAddr: 0x9F88, symBinAddr: 0x10000CF14, symSize: 0x2C }
  - { offset: 0x39323, size: 0x8, addend: 0x0, symName: __ZNSt3__16vectorINS_10shared_ptrI8TreeNodeEENS_9allocatorIS3_EEEC1B8ne180100Ev, symObjAddr: 0x9FB4, symBinAddr: 0x10000CF40, symSize: 0x2C }
  - { offset: 0x3934D, size: 0x8, addend: 0x0, symName: __ZNSt3__18weak_ptrI8TreeNodeEC2Ev, symObjAddr: 0x9FE0, symBinAddr: 0x10000CF6C, symSize: 0x1C }
  - { offset: 0x39379, size: 0x8, addend: 0x0, symName: __ZNSt3__16vectorINS_10shared_ptrI8TreeNodeEENS_9allocatorIS3_EEEC2B8ne180100Ev, symObjAddr: 0x9FFC, symBinAddr: 0x10000CF88, symSize: 0x4C }
  - { offset: 0x393A3, size: 0x8, addend: 0x0, symName: __ZNSt3__117__compressed_pairIPNS_10shared_ptrI8TreeNodeEENS_9allocatorIS3_EEEC1B8ne180100IDnNS_18__default_init_tagEEEOT_OT0_, symObjAddr: 0xA048, symBinAddr: 0x10000CFD4, symSize: 0x3C }
  - { offset: 0x393FD, size: 0x8, addend: 0x0, symName: __ZNSt3__117__compressed_pairIPNS_10shared_ptrI8TreeNodeEENS_9allocatorIS3_EEEC2B8ne180100IDnNS_18__default_init_tagEEEOT_OT0_, symObjAddr: 0xA084, symBinAddr: 0x10000D010, symSize: 0x40 }
  - { offset: 0x39457, size: 0x8, addend: 0x0, symName: __ZNSt3__122__compressed_pair_elemIPNS_10shared_ptrI8TreeNodeEELi0ELb0EEC2B8ne180100IDnvEEOT_, symObjAddr: 0xA0C4, symBinAddr: 0x10000D050, symSize: 0x1C }
  - { offset: 0x3949A, size: 0x8, addend: 0x0, symName: __ZNSt3__122__compressed_pair_elemINS_9allocatorINS_10shared_ptrI8TreeNodeEEEELi1ELb1EEC2B8ne180100ENS_18__default_init_tagE, symObjAddr: 0xA0E0, symBinAddr: 0x10000D06C, symSize: 0x2C }
  - { offset: 0x394CF, size: 0x8, addend: 0x0, symName: __ZNSt3__19allocatorINS_10shared_ptrI8TreeNodeEEEC2B8ne180100Ev, symObjAddr: 0xA10C, symBinAddr: 0x10000D098, symSize: 0x2C }
  - { offset: 0x394F9, size: 0x8, addend: 0x0, symName: __ZNSt3__116__non_trivial_ifILb1ENS_9allocatorINS_10shared_ptrI8TreeNodeEEEEEC2B8ne180100Ev, symObjAddr: 0xA138, symBinAddr: 0x10000D0C4, symSize: 0x14 }
  - { offset: 0x39523, size: 0x8, addend: 0x0, symName: __ZNSt3__120__shared_ptr_emplaceI8TreeNodeNS_9allocatorIS1_EEE8_StorageD2B8ne180100Ev, symObjAddr: 0xA14C, symBinAddr: 0x10000D0D8, symSize: 0x2C }
  - { offset: 0x3954D, size: 0x8, addend: 0x0, symName: __ZNSt3__120__shared_ptr_emplaceI8TreeNodeNS_9allocatorIS1_EEED2Ev, symObjAddr: 0xA178, symBinAddr: 0x10000D104, symSize: 0x48 }
  - { offset: 0x39579, size: 0x8, addend: 0x0, symName: __ZNSt3__120__shared_ptr_emplaceI8TreeNodeNS_9allocatorIS1_EEE21__on_zero_shared_implB8ne180100IS3_Li0EEEvv, symObjAddr: 0xA1C0, symBinAddr: 0x10000D14C, symSize: 0x44 }
  - { offset: 0x395C9, size: 0x8, addend: 0x0, symName: __ZNSt3__116allocator_traitsINS_9allocatorI8TreeNodeEEE7destroyB8ne180100IS2_vEEvRS3_PT_, symObjAddr: 0xA204, symBinAddr: 0x10000D190, symSize: 0x2C }
  - { offset: 0x39606, size: 0x8, addend: 0x0, symName: __ZNSt3__19allocatorI8TreeNodeE7destroyB8ne180100EPS1_, symObjAddr: 0xA230, symBinAddr: 0x10000D1BC, symSize: 0x28 }
  - { offset: 0x3963B, size: 0x8, addend: 0x0, symName: __ZN8TreeNodeD1Ev, symObjAddr: 0xA258, symBinAddr: 0x10000D1E4, symSize: 0x2C }
  - { offset: 0x39667, size: 0x8, addend: 0x0, symName: __ZN8TreeNodeD2Ev, symObjAddr: 0xA284, symBinAddr: 0x10000D210, symSize: 0x5C }
  - { offset: 0x39693, size: 0x8, addend: 0x0, symName: __ZNSt3__16vectorINS_10shared_ptrI8TreeNodeEENS_9allocatorIS3_EEED1B8ne180100Ev, symObjAddr: 0xA2E0, symBinAddr: 0x10000D26C, symSize: 0x2C }
  - { offset: 0x396BD, size: 0x8, addend: 0x0, symName: __ZNSt3__18weak_ptrI8TreeNodeED1Ev, symObjAddr: 0xA30C, symBinAddr: 0x10000D298, symSize: 0x2C }
  - { offset: 0x396E9, size: 0x8, addend: 0x0, symName: __ZNSt3__16vectorINS_10shared_ptrI8TreeNodeEENS_9allocatorIS3_EEED2B8ne180100Ev, symObjAddr: 0xA338, symBinAddr: 0x10000D2C4, symSize: 0x44 }
  - { offset: 0x39713, size: 0x8, addend: 0x0, symName: __ZNSt3__16vectorINS_10shared_ptrI8TreeNodeEENS_9allocatorIS3_EEE16__destroy_vectorC1B8ne180100ERS6_, symObjAddr: 0xA37C, symBinAddr: 0x10000D308, symSize: 0x34 }
  - { offset: 0x3974C, size: 0x8, addend: 0x0, symName: __ZNSt3__16vectorINS_10shared_ptrI8TreeNodeEENS_9allocatorIS3_EEE16__destroy_vectorclB8ne180100Ev, symObjAddr: 0xA3B0, symBinAddr: 0x10000D33C, symSize: 0x90 }
  - { offset: 0x39772, size: 0x8, addend: 0x0, symName: __ZNSt3__16vectorINS_10shared_ptrI8TreeNodeEENS_9allocatorIS3_EEE16__destroy_vectorC2B8ne180100ERS6_, symObjAddr: 0xA440, symBinAddr: 0x10000D3CC, symSize: 0x20 }
  - { offset: 0x397AB, size: 0x8, addend: 0x0, symName: __ZNSt3__16vectorINS_10shared_ptrI8TreeNodeEENS_9allocatorIS3_EEE7__clearB8ne180100Ev, symObjAddr: 0xA460, symBinAddr: 0x10000D3EC, symSize: 0x28 }
  - { offset: 0x397D1, size: 0x8, addend: 0x0, symName: __ZNKSt3__16vectorINS_10shared_ptrI8TreeNodeEENS_9allocatorIS3_EEE17__annotate_deleteB8ne180100Ev, symObjAddr: 0xA488, symBinAddr: 0x10000D414, symSize: 0x10 }
  - { offset: 0x397F7, size: 0x8, addend: 0x0, symName: __ZNSt3__116allocator_traitsINS_9allocatorINS_10shared_ptrI8TreeNodeEEEEE10deallocateB8ne180100ERS5_PS4_m, symObjAddr: 0xA498, symBinAddr: 0x10000D424, symSize: 0x34 }
  - { offset: 0x39839, size: 0x8, addend: 0x0, symName: __ZNSt3__16vectorINS_10shared_ptrI8TreeNodeEENS_9allocatorIS3_EEE7__allocB8ne180100Ev, symObjAddr: 0xA4CC, symBinAddr: 0x10000D458, symSize: 0x28 }
  - { offset: 0x3985F, size: 0x8, addend: 0x0, symName: __ZNKSt3__16vectorINS_10shared_ptrI8TreeNodeEENS_9allocatorIS3_EEE8capacityB8ne180100Ev, symObjAddr: 0xA4F4, symBinAddr: 0x10000D480, symSize: 0x40 }
  - { offset: 0x39885, size: 0x8, addend: 0x0, symName: __ZNSt3__16vectorINS_10shared_ptrI8TreeNodeEENS_9allocatorIS3_EEE22__base_destruct_at_endB8ne180100EPS3_, symObjAddr: 0xA534, symBinAddr: 0x10000D4C0, symSize: 0x8C }
  - { offset: 0x398C9, size: 0x8, addend: 0x0, symName: __ZNSt3__116allocator_traitsINS_9allocatorINS_10shared_ptrI8TreeNodeEEEEE7destroyB8ne180100IS4_vEEvRS5_PT_, symObjAddr: 0xA5C0, symBinAddr: 0x10000D54C, symSize: 0x2C }
  - { offset: 0x39906, size: 0x8, addend: 0x0, symName: __ZNSt3__19allocatorINS_10shared_ptrI8TreeNodeEEE7destroyB8ne180100EPS3_, symObjAddr: 0xA600, symBinAddr: 0x10000D58C, symSize: 0x28 }
  - { offset: 0x3993B, size: 0x8, addend: 0x0, symName: __ZNSt3__19allocatorINS_10shared_ptrI8TreeNodeEEE10deallocateB8ne180100EPS3_m, symObjAddr: 0xA628, symBinAddr: 0x10000D5B4, symSize: 0x40 }
  - { offset: 0x3997F, size: 0x8, addend: 0x0, symName: __ZNSt3__117__compressed_pairIPNS_10shared_ptrI8TreeNodeEENS_9allocatorIS3_EEE6secondB8ne180100Ev, symObjAddr: 0xA668, symBinAddr: 0x10000D5F4, symSize: 0x24 }
  - { offset: 0x399A5, size: 0x8, addend: 0x0, symName: __ZNSt3__122__compressed_pair_elemINS_9allocatorINS_10shared_ptrI8TreeNodeEEEELi1ELb1EE5__getB8ne180100Ev, symObjAddr: 0xA68C, symBinAddr: 0x10000D618, symSize: 0x14 }
  - { offset: 0x399CB, size: 0x8, addend: 0x0, symName: __ZNKSt3__16vectorINS_10shared_ptrI8TreeNodeEENS_9allocatorIS3_EEE9__end_capB8ne180100Ev, symObjAddr: 0xA6A0, symBinAddr: 0x10000D62C, symSize: 0x28 }
  - { offset: 0x399F1, size: 0x8, addend: 0x0, symName: __ZNKSt3__117__compressed_pairIPNS_10shared_ptrI8TreeNodeEENS_9allocatorIS3_EEE5firstB8ne180100Ev, symObjAddr: 0xA6C8, symBinAddr: 0x10000D654, symSize: 0x24 }
  - { offset: 0x39A17, size: 0x8, addend: 0x0, symName: __ZNKSt3__122__compressed_pair_elemIPNS_10shared_ptrI8TreeNodeEELi0ELb0EE5__getB8ne180100Ev, symObjAddr: 0xA6EC, symBinAddr: 0x10000D678, symSize: 0x14 }
  - { offset: 0x39A3D, size: 0x8, addend: 0x0, symName: __ZNSt3__18weak_ptrI8TreeNodeED2Ev, symObjAddr: 0xA700, symBinAddr: 0x10000D68C, symSize: 0x54 }
  - { offset: 0x39A69, size: 0x8, addend: 0x0, symName: __ZNSt3__116allocator_traitsINS_9allocatorINS_20__shared_ptr_emplaceI8TreeNodeNS1_IS3_EEEEEEE10deallocateB8ne180100ERS6_PS5_m, symObjAddr: 0xA754, symBinAddr: 0x10000D6E0, symSize: 0x34 }
  - { offset: 0x39AAB, size: 0x8, addend: 0x0, symName: __ZNSt3__114pointer_traitsIPNS_20__shared_ptr_emplaceI8TreeNodeNS_9allocatorIS2_EEEEE10pointer_toB8ne180100ERS5_, symObjAddr: 0xA788, symBinAddr: 0x10000D714, symSize: 0x14 }
  - { offset: 0x39ACF, size: 0x8, addend: 0x0, symName: __ZNSt3__19allocatorINS_20__shared_ptr_emplaceI8TreeNodeNS0_IS2_EEEEE10deallocateB8ne180100EPS4_m, symObjAddr: 0xA79C, symBinAddr: 0x10000D728, symSize: 0x44 }
  - { offset: 0x39B13, size: 0x8, addend: 0x0, symName: __ZNSt3__110shared_ptrI8TreeNodeEC1B8ne180100Ev, symObjAddr: 0xA7E0, symBinAddr: 0x10000D76C, symSize: 0x2C }
  - { offset: 0x39B3D, size: 0x8, addend: 0x0, symName: __ZNSt3__110shared_ptrI8TreeNodeE18__enable_weak_thisB8ne180100Ez, symObjAddr: 0xA80C, symBinAddr: 0x10000D798, symSize: 0x10 }
  - { offset: 0x39B64, size: 0x8, addend: 0x0, symName: __ZNSt3__110shared_ptrI8TreeNodeEC2B8ne180100Ev, symObjAddr: 0xA81C, symBinAddr: 0x10000D7A8, symSize: 0x1C }
  - { offset: 0x39B8E, size: 0x8, addend: 0x0, symName: __ZNSt3__120__shared_ptr_emplaceI8TreeNodeNS_9allocatorIS1_EEE8_Storage10__get_elemB8ne180100Ev, symObjAddr: 0xA838, symBinAddr: 0x10000D7C4, symSize: 0x3C }
  - { offset: 0x39BE1, size: 0x8, addend: 0x0, symName: __ZNSt3__117__compressed_pairINS_9allocatorI8TreeNodeEES2_E17__get_second_baseB8ne180100EPS4_, symObjAddr: 0xA874, symBinAddr: 0x10000D800, symSize: 0x14 }
  - { offset: 0x39C05, size: 0x8, addend: 0x0, symName: __ZNSt3__118__allocation_guardINS_9allocatorINS_20__shared_ptr_emplaceI8TreeNodeNS1_IS3_EEEEEEED2B8ne180100Ev, symObjAddr: 0xA888, symBinAddr: 0x10000D814, symSize: 0x2C }
  - { offset: 0x39C2F, size: 0x8, addend: 0x0, symName: __ZNSt3__118__allocation_guardINS_9allocatorINS_20__shared_ptr_emplaceI8TreeNodeNS1_IS3_EEEEEEE9__destroyB8ne180100Ev, symObjAddr: 0xA8B4, symBinAddr: 0x10000D840, symSize: 0x4C }
  - { offset: 0x39C55, size: 0x8, addend: 0x0, symName: __ZNSt3__19allocatorI8TreeNodeEC2B8ne180100Ev, symObjAddr: 0xA900, symBinAddr: 0x10000D88C, symSize: 0x2C }
  - { offset: 0x39C7F, size: 0x8, addend: 0x0, symName: __ZNSt3__116__non_trivial_ifILb1ENS_9allocatorI8TreeNodeEEEC2B8ne180100Ev, symObjAddr: 0xA92C, symBinAddr: 0x10000D8B8, symSize: 0x14 }
  - { offset: 0x39CA9, size: 0x8, addend: 0x0, symName: __ZNSt3__110shared_ptrI8TreeNodeED2B8ne180100Ev, symObjAddr: 0xA940, symBinAddr: 0x10000D8CC, symSize: 0x54 }
  - { offset: 0x39CD3, size: 0x8, addend: 0x0, symName: __ZNSt3__119__shared_weak_count16__release_sharedB8ne180100Ev, symObjAddr: 0xA994, symBinAddr: 0x10000D920, symSize: 0x3C }
  - { offset: 0x39CF9, size: 0x8, addend: 0x0, symName: __ZNSt3__114__shared_count16__release_sharedB8ne180100Ev, symObjAddr: 0xA9D0, symBinAddr: 0x10000D95C, symSize: 0x7C }
  - { offset: 0x39D1F, size: 0x8, addend: 0x0, symName: __ZNSt3__18weak_ptrI8TreeNodeEC1IS1_Li0EEERKNS_10shared_ptrIT_EE, symObjAddr: 0xAA7C, symBinAddr: 0x10000DA08, symSize: 0x34 }
  - { offset: 0x39D69, size: 0x8, addend: 0x0, symName: __ZNSt3__18weak_ptrI8TreeNodeE4swapERS2_, symObjAddr: 0xAAB0, symBinAddr: 0x10000DA3C, symSize: 0x44 }
  - { offset: 0x39DA0, size: 0x8, addend: 0x0, symName: __ZNSt3__18weak_ptrI8TreeNodeEC2IS1_Li0EEERKNS_10shared_ptrIT_EE, symObjAddr: 0xAAF4, symBinAddr: 0x10000DA80, symSize: 0x70 }
  - { offset: 0x39DEA, size: 0x8, addend: 0x0, symName: __ZNSt3__119__shared_weak_count10__add_weakB8ne180100Ev, symObjAddr: 0xAB64, symBinAddr: 0x10000DAF0, symSize: 0x28 }
  - { offset: 0x39E10, size: 0x8, addend: 0x0, symName: __ZN8nlohmann16json_abi_v3_11_26detail15iteration_proxyINS1_9iter_implIKNS0_10basic_jsonINSt3__13mapENS5_6vectorENS5_12basic_stringIcNS5_11char_traitsIcEENS5_9allocatorIcEEEEbxydSB_NS0_14adl_serializerENS7_IhNSB_IhEEEEEEEEEC1ERSI_, symObjAddr: 0xAC34, symBinAddr: 0x10000DBC0, symSize: 0x34 }
  - { offset: 0x39E49, size: 0x8, addend: 0x0, symName: __ZN8nlohmann16json_abi_v3_11_26detail15iteration_proxyINS1_9iter_implIKNS0_10basic_jsonINSt3__13mapENS5_6vectorENS5_12basic_stringIcNS5_11char_traitsIcEENS5_9allocatorIcEEEEbxydSB_NS0_14adl_serializerENS7_IhNSB_IhEEEEEEEEEC2ERSI_, symObjAddr: 0xAC68, symBinAddr: 0x10000DBF4, symSize: 0x20 }
  - { offset: 0x39E82, size: 0x8, addend: 0x0, symName: __ZNK8nlohmann16json_abi_v3_11_210basic_jsonINSt3__13mapENS2_6vectorENS2_12basic_stringIcNS2_11char_traitsIcEENS2_9allocatorIcEEEEbxydS8_NS0_14adl_serializerENS4_IhNS8_IhEEEEE5beginEv, symObjAddr: 0xAC88, symBinAddr: 0x10000DC14, symSize: 0x2C }
  - { offset: 0x39EA8, size: 0x8, addend: 0x0, symName: __ZN8nlohmann16json_abi_v3_11_26detail21iteration_proxy_valueINS1_9iter_implIKNS0_10basic_jsonINSt3__13mapENS5_6vectorENS5_12basic_stringIcNS5_11char_traitsIcEENS5_9allocatorIcEEEEbxydSB_NS0_14adl_serializerENS7_IhNSB_IhEEEEEEEEEC1ESJ_m, symObjAddr: 0xACB4, symBinAddr: 0x10000DC40, symSize: 0x3C }
  - { offset: 0x39EF1, size: 0x8, addend: 0x0, symName: __ZNK8nlohmann16json_abi_v3_11_210basic_jsonINSt3__13mapENS2_6vectorENS2_12basic_stringIcNS2_11char_traitsIcEENS2_9allocatorIcEEEEbxydS8_NS0_14adl_serializerENS4_IhNS8_IhEEEEE6cbeginEv, symObjAddr: 0xACF0, symBinAddr: 0x10000DC7C, symSize: 0x40 }
  - { offset: 0x39F27, size: 0x8, addend: 0x0, symName: __ZN8nlohmann16json_abi_v3_11_26detail9iter_implIKNS0_10basic_jsonINSt3__13mapENS4_6vectorENS4_12basic_stringIcNS4_11char_traitsIcEENS4_9allocatorIcEEEEbxydSA_NS0_14adl_serializerENS6_IhNSA_IhEEEEEEEC1EPSH_, symObjAddr: 0xAD30, symBinAddr: 0x10000DCBC, symSize: 0x34 }
  - { offset: 0x39F60, size: 0x8, addend: 0x0, symName: __ZN8nlohmann16json_abi_v3_11_26detail9iter_implIKNS0_10basic_jsonINSt3__13mapENS4_6vectorENS4_12basic_stringIcNS4_11char_traitsIcEENS4_9allocatorIcEEEEbxydSA_NS0_14adl_serializerENS6_IhNSA_IhEEEEEEE9set_beginEv, symObjAddr: 0xAD64, symBinAddr: 0x10000DCF0, symSize: 0x118 }
  - { offset: 0x39F86, size: 0x8, addend: 0x0, symName: __ZN8nlohmann16json_abi_v3_11_26detail9iter_implIKNS0_10basic_jsonINSt3__13mapENS4_6vectorENS4_12basic_stringIcNS4_11char_traitsIcEENS4_9allocatorIcEEEEbxydSA_NS0_14adl_serializerENS6_IhNSA_IhEEEEEEEC2EPSH_, symObjAddr: 0xAEA4, symBinAddr: 0x10000DE30, symSize: 0x13C }
  - { offset: 0x39FBF, size: 0x8, addend: 0x0, symName: __ZNSt3__114__map_iteratorINS_15__tree_iteratorINS_12__value_typeINS_12basic_stringIcNS_11char_traitsIcEENS_9allocatorIcEEEEN8nlohmann16json_abi_v3_11_210basic_jsonINS_3mapENS_6vectorES8_bxydS6_NSA_14adl_serializerENSD_IhNS6_IhEEEEEEEEPNS_11__tree_nodeISI_PvEElEEEC1B8ne180100Ev, symObjAddr: 0xB008, symBinAddr: 0x10000DF94, symSize: 0x2C }
  - { offset: 0x39FE9, size: 0x8, addend: 0x0, symName: __ZNSt3__111__wrap_iterIPN8nlohmann16json_abi_v3_11_210basic_jsonINS_3mapENS_6vectorENS_12basic_stringIcNS_11char_traitsIcEENS_9allocatorIcEEEEbxydS9_NS2_14adl_serializerENS5_IhNS9_IhEEEEEEEC1B8ne180100Ev, symObjAddr: 0xB034, symBinAddr: 0x10000DFC0, symSize: 0x2C }
  - { offset: 0x3A013, size: 0x8, addend: 0x0, symName: __ZN8nlohmann16json_abi_v3_11_26detail20primitive_iterator_tC1Ev, symObjAddr: 0xB060, symBinAddr: 0x10000DFEC, symSize: 0x2C }
  - { offset: 0x3A040, size: 0x8, addend: 0x0, symName: __ZNSt3__114__map_iteratorINS_15__tree_iteratorINS_12__value_typeINS_12basic_stringIcNS_11char_traitsIcEENS_9allocatorIcEEEEN8nlohmann16json_abi_v3_11_210basic_jsonINS_3mapENS_6vectorES8_bxydS6_NSA_14adl_serializerENSD_IhNS6_IhEEEEEEEEPNS_11__tree_nodeISI_PvEElEEEC2B8ne180100Ev, symObjAddr: 0xB08C, symBinAddr: 0x10000E018, symSize: 0x2C }
  - { offset: 0x3A06A, size: 0x8, addend: 0x0, symName: __ZNSt3__115__tree_iteratorINS_12__value_typeINS_12basic_stringIcNS_11char_traitsIcEENS_9allocatorIcEEEEN8nlohmann16json_abi_v3_11_210basic_jsonINS_3mapENS_6vectorES7_bxydS5_NS9_14adl_serializerENSC_IhNS5_IhEEEEEEEEPNS_11__tree_nodeISH_PvEElEC1B8ne180100Ev, symObjAddr: 0xB0B8, symBinAddr: 0x10000E044, symSize: 0x2C }
  - { offset: 0x3A094, size: 0x8, addend: 0x0, symName: __ZNSt3__115__tree_iteratorINS_12__value_typeINS_12basic_stringIcNS_11char_traitsIcEENS_9allocatorIcEEEEN8nlohmann16json_abi_v3_11_210basic_jsonINS_3mapENS_6vectorES7_bxydS5_NS9_14adl_serializerENSC_IhNS5_IhEEEEEEEEPNS_11__tree_nodeISH_PvEElEC2B8ne180100Ev, symObjAddr: 0xB0E4, symBinAddr: 0x10000E070, symSize: 0x18 }
  - { offset: 0x3A0BE, size: 0x8, addend: 0x0, symName: __ZNSt3__111__wrap_iterIPN8nlohmann16json_abi_v3_11_210basic_jsonINS_3mapENS_6vectorENS_12basic_stringIcNS_11char_traitsIcEENS_9allocatorIcEEEEbxydS9_NS2_14adl_serializerENS5_IhNS9_IhEEEEEEEC2B8ne180100Ev, symObjAddr: 0xB0FC, symBinAddr: 0x10000E088, symSize: 0x18 }
  - { offset: 0x3A0E8, size: 0x8, addend: 0x0, symName: __ZN8nlohmann16json_abi_v3_11_26detail20primitive_iterator_tC2Ev, symObjAddr: 0xB114, symBinAddr: 0x10000E0A0, symSize: 0x34 }
  - { offset: 0x3A115, size: 0x8, addend: 0x0, symName: __ZNSt3__114numeric_limitsIlE3minB8ne180100Ev, symObjAddr: 0xB148, symBinAddr: 0x10000E0D4, symSize: 0x14 }
  - { offset: 0x3A129, size: 0x8, addend: 0x0, symName: __ZNSt3__123__libcpp_numeric_limitsIlLb1EE3minB8ne180100Ev, symObjAddr: 0xB15C, symBinAddr: 0x10000E0E8, symSize: 0x8 }
  - { offset: 0x3A13D, size: 0x8, addend: 0x0, symName: __ZN8nlohmann16json_abi_v3_11_26detail20primitive_iterator_t7set_endEv, symObjAddr: 0xB164, symBinAddr: 0x10000E0F0, symSize: 0x1C }
  - { offset: 0x3A163, size: 0x8, addend: 0x0, symName: __ZN8nlohmann16json_abi_v3_11_26detail20primitive_iterator_t9set_beginEv, symObjAddr: 0xB180, symBinAddr: 0x10000E10C, symSize: 0x18 }
  - { offset: 0x3A189, size: 0x8, addend: 0x0, symName: __ZN8nlohmann16json_abi_v3_11_26detail21iteration_proxy_valueINS1_9iter_implIKNS0_10basic_jsonINSt3__13mapENS5_6vectorENS5_12basic_stringIcNS5_11char_traitsIcEENS5_9allocatorIcEEEEbxydSB_NS0_14adl_serializerENS7_IhNSB_IhEEEEEEEEEC2ESJ_m, symObjAddr: 0xB198, symBinAddr: 0x10000E124, symSize: 0x74 }
  - { offset: 0x3A1D2, size: 0x8, addend: 0x0, symName: __ZNK8nlohmann16json_abi_v3_11_210basic_jsonINSt3__13mapENS2_6vectorENS2_12basic_stringIcNS2_11char_traitsIcEENS2_9allocatorIcEEEEbxydS8_NS0_14adl_serializerENS4_IhNS8_IhEEEEE3endEv, symObjAddr: 0xB20C, symBinAddr: 0x10000E198, symSize: 0x2C }
  - { offset: 0x3A1F8, size: 0x8, addend: 0x0, symName: __ZNK8nlohmann16json_abi_v3_11_210basic_jsonINSt3__13mapENS2_6vectorENS2_12basic_stringIcNS2_11char_traitsIcEENS2_9allocatorIcEEEEbxydS8_NS0_14adl_serializerENS4_IhNS8_IhEEEEE4cendEv, symObjAddr: 0xB238, symBinAddr: 0x10000E1C4, symSize: 0x40 }
  - { offset: 0x3A22E, size: 0x8, addend: 0x0, symName: __ZN8nlohmann16json_abi_v3_11_26detail9iter_implIKNS0_10basic_jsonINSt3__13mapENS4_6vectorENS4_12basic_stringIcNS4_11char_traitsIcEENS4_9allocatorIcEEEEbxydSA_NS0_14adl_serializerENS6_IhNSA_IhEEEEEEE7set_endEv, symObjAddr: 0xB278, symBinAddr: 0x10000E204, symSize: 0x108 }
  - { offset: 0x3A254, size: 0x8, addend: 0x0, symName: __ZNK8nlohmann16json_abi_v3_11_26detail9iter_implIKNS0_10basic_jsonINSt3__13mapENS4_6vectorENS4_12basic_stringIcNS4_11char_traitsIcEENS4_9allocatorIcEEEEbxydSA_NS0_14adl_serializerENS6_IhNSA_IhEEEEEEEneISI_LDn0EEEbRKT_, symObjAddr: 0xB3A8, symBinAddr: 0x10000E334, symSize: 0x34 }
  - { offset: 0x3A298, size: 0x8, addend: 0x0, symName: __ZNK8nlohmann16json_abi_v3_11_26detail9iter_implIKNS0_10basic_jsonINSt3__13mapENS4_6vectorENS4_12basic_stringIcNS4_11char_traitsIcEENS4_9allocatorIcEEEEbxydSA_NS0_14adl_serializerENS6_IhNSA_IhEEEEEEEeqISI_LDn0EEEbRKT_, symObjAddr: 0xB3DC, symBinAddr: 0x10000E368, symSize: 0x214 }
  - { offset: 0x3A2E2, size: 0x8, addend: 0x0, symName: __ZN8nlohmann16json_abi_v3_11_26detail16invalid_iterator6createIPKNS0_10basic_jsonINSt3__13mapENS5_6vectorENS5_12basic_stringIcNS5_11char_traitsIcEENS5_9allocatorIcEEEEbxydSB_NS0_14adl_serializerENS7_IhNSB_IhEEEEEELi0EEES2_iRKSD_T_, symObjAddr: 0xB618, symBinAddr: 0x10000E5A4, symSize: 0x130 }
  - { offset: 0x3A342, size: 0x8, addend: 0x0, symName: __ZN8nlohmann16json_abi_v3_11_26detail16invalid_iteratorD1Ev, symObjAddr: 0xB748, symBinAddr: 0x10000E6D4, symSize: 0x2C }
  - { offset: 0x3A36F, size: 0x8, addend: 0x0, symName: __ZN8nlohmann16json_abi_v3_11_26detail16invalid_iteratorC1EiPKc, symObjAddr: 0xB814, symBinAddr: 0x10000E7A0, symSize: 0x3C }
  - { offset: 0x3A3B7, size: 0x8, addend: 0x0, symName: __ZN8nlohmann16json_abi_v3_11_26detail16invalid_iteratorC2EiPKc, symObjAddr: 0xB850, symBinAddr: 0x10000E7DC, symSize: 0x4C }
  - { offset: 0x3A3FF, size: 0x8, addend: 0x0, symName: __ZN8nlohmann16json_abi_v3_11_26detail16invalid_iteratorD0Ev, symObjAddr: 0xB89C, symBinAddr: 0x10000E828, symSize: 0x30 }
  - { offset: 0x3A42C, size: 0x8, addend: 0x0, symName: __ZN8nlohmann16json_abi_v3_11_26detail16invalid_iteratorD2Ev, symObjAddr: 0xB8CC, symBinAddr: 0x10000E858, symSize: 0x2C }
  - { offset: 0x3A459, size: 0x8, addend: 0x0, symName: __ZN8nlohmann16json_abi_v3_11_26detail9iter_implIKNS0_10basic_jsonINSt3__13mapENS4_6vectorENS4_12basic_stringIcNS4_11char_traitsIcEENS4_9allocatorIcEEEEbxydSA_NS0_14adl_serializerENS6_IhNSA_IhEEEEEEEppEv, symObjAddr: 0xB8F8, symBinAddr: 0x10000E884, symSize: 0xE0 }
  - { offset: 0x3A47F, size: 0x8, addend: 0x0, symName: __ZN8nlohmann16json_abi_v3_11_26detail20primitive_iterator_tppEv, symObjAddr: 0xBA80, symBinAddr: 0x10000EA0C, symSize: 0x20 }
  - { offset: 0x3A4A5, size: 0x8, addend: 0x0, symName: __ZNSt3__114__map_iteratorINS_15__tree_iteratorINS_12__value_typeINS_12basic_stringIcNS_11char_traitsIcEENS_9allocatorIcEEEEN8nlohmann16json_abi_v3_11_210basic_jsonINS_3mapENS_6vectorES8_bxydS6_NSA_14adl_serializerENSD_IhNS6_IhEEEEEEEEPNS_11__tree_nodeISI_PvEElEEEmmB8ne180100Ev, symObjAddr: 0xBB58, symBinAddr: 0x10000EAE4, symSize: 0x2C }
  - { offset: 0x3A4CB, size: 0x8, addend: 0x0, symName: __ZNSt3__115__tree_iteratorINS_12__value_typeINS_12basic_stringIcNS_11char_traitsIcEENS_9allocatorIcEEEEN8nlohmann16json_abi_v3_11_210basic_jsonINS_3mapENS_6vectorES7_bxydS5_NS9_14adl_serializerENSC_IhNS5_IhEEEEEEEEPNS_11__tree_nodeISH_PvEElEmmB8ne180100Ev, symObjAddr: 0xBB84, symBinAddr: 0x10000EB10, symSize: 0x38 }
  - { offset: 0x3A4F1, size: 0x8, addend: 0x0, symName: __ZNK8nlohmann16json_abi_v3_11_26detail21iteration_proxy_valueINS1_9iter_implIKNS0_10basic_jsonINSt3__13mapENS5_6vectorENS5_12basic_stringIcNS5_11char_traitsIcEENS5_9allocatorIcEEEEbxydSB_NS0_14adl_serializerENS7_IhNSB_IhEEEEEEEEE3keyEv, symObjAddr: 0xBCB0, symBinAddr: 0x10000EC3C, symSize: 0x114 }
  - { offset: 0x3A517, size: 0x8, addend: 0x0, symName: __ZNK8nlohmann16json_abi_v3_11_210basic_jsonINSt3__13mapENS2_6vectorENS2_12basic_stringIcNS2_11char_traitsIcEENS2_9allocatorIcEEEEbxydS8_NS0_14adl_serializerENS4_IhNS8_IhEEEEE4typeEv, symObjAddr: 0xBDEC, symBinAddr: 0x10000ED78, symSize: 0x18 }
  - { offset: 0x3A53D, size: 0x8, addend: 0x0, symName: __ZNK8nlohmann16json_abi_v3_11_26detail9iter_implIKNS0_10basic_jsonINSt3__13mapENS4_6vectorENS4_12basic_stringIcNS4_11char_traitsIcEENS4_9allocatorIcEEEEbxydSA_NS0_14adl_serializerENS6_IhNSA_IhEEEEEEE3keyEv, symObjAddr: 0xBE48, symBinAddr: 0x10000EDD4, symSize: 0x144 }
  - { offset: 0x3A563, size: 0x8, addend: 0x0, symName: __ZNKSt3__114__map_iteratorINS_15__tree_iteratorINS_12__value_typeINS_12basic_stringIcNS_11char_traitsIcEENS_9allocatorIcEEEEN8nlohmann16json_abi_v3_11_210basic_jsonINS_3mapENS_6vectorES8_bxydS6_NSA_14adl_serializerENSD_IhNS6_IhEEEEEEEEPNS_11__tree_nodeISI_PvEElEEEptB8ne180100Ev, symObjAddr: 0xBF8C, symBinAddr: 0x10000EF18, symSize: 0x2C }
  - { offset: 0x3A589, size: 0x8, addend: 0x0, symName: __ZNSt3__114pointer_traitsIPNS_4pairIKNS_12basic_stringIcNS_11char_traitsIcEENS_9allocatorIcEEEEN8nlohmann16json_abi_v3_11_210basic_jsonINS_3mapENS_6vectorES7_bxydS5_NSA_14adl_serializerENSD_IhNS5_IhEEEEEEEEE10pointer_toB8ne180100ERSI_, symObjAddr: 0xBFB8, symBinAddr: 0x10000EF44, symSize: 0x14 }
  - { offset: 0x3A5AD, size: 0x8, addend: 0x0, symName: __ZNK8nlohmann16json_abi_v3_11_26detail21iteration_proxy_valueINS1_9iter_implIKNS0_10basic_jsonINSt3__13mapENS5_6vectorENS5_12basic_stringIcNS5_11char_traitsIcEENS5_9allocatorIcEEEEbxydSB_NS0_14adl_serializerENS7_IhNSB_IhEEEEEEEEE5valueEv, symObjAddr: 0xBFCC, symBinAddr: 0x10000EF58, symSize: 0x24 }
  - { offset: 0x3A5D3, size: 0x8, addend: 0x0, symName: __ZNK8nlohmann16json_abi_v3_11_26detail9iter_implIKNS0_10basic_jsonINSt3__13mapENS4_6vectorENS4_12basic_stringIcNS4_11char_traitsIcEENS4_9allocatorIcEEEEbxydSA_NS0_14adl_serializerENS6_IhNSA_IhEEEEEEE5valueEv, symObjAddr: 0xBFF0, symBinAddr: 0x10000EF7C, symSize: 0x24 }
  - { offset: 0x3A5F9, size: 0x8, addend: 0x0, symName: __ZNK8nlohmann16json_abi_v3_11_26detail9iter_implIKNS0_10basic_jsonINSt3__13mapENS4_6vectorENS4_12basic_stringIcNS4_11char_traitsIcEENS4_9allocatorIcEEEEbxydSA_NS0_14adl_serializerENS6_IhNSA_IhEEEEEEEdeEv, symObjAddr: 0xC014, symBinAddr: 0x10000EFA0, symSize: 0x32C }
  - { offset: 0x3A61F, size: 0x8, addend: 0x0, symName: __ZNKSt3__111__wrap_iterIPN8nlohmann16json_abi_v3_11_210basic_jsonINS_3mapENS_6vectorENS_12basic_stringIcNS_11char_traitsIcEENS_9allocatorIcEEEEbxydS9_NS2_14adl_serializerENS5_IhNS9_IhEEEEEEEdeB8ne180100Ev, symObjAddr: 0xC39C, symBinAddr: 0x10000F328, symSize: 0x18 }
  - { offset: 0x3A645, size: 0x8, addend: 0x0, symName: __ZNK8nlohmann16json_abi_v3_11_26detail20primitive_iterator_t8is_beginEv, symObjAddr: 0xC3B4, symBinAddr: 0x10000F340, symSize: 0x24 }
  - { offset: 0x3A66B, size: 0x8, addend: 0x0, symName: __ZNSt3__16vectorINS_10shared_ptrI8TreeNodeEENS_9allocatorIS3_EEE9__end_capB8ne180100Ev, symObjAddr: 0xC3D8, symBinAddr: 0x10000F364, symSize: 0x28 }
  - { offset: 0x3A691, size: 0x8, addend: 0x0, symName: __ZNSt3__16vectorINS_10shared_ptrI8TreeNodeEENS_9allocatorIS3_EEE22__construct_one_at_endB8ne180100IJS3_EEEvDpOT_, symObjAddr: 0xC400, symBinAddr: 0x10000F38C, symSize: 0x90 }
  - { offset: 0x3A6E0, size: 0x8, addend: 0x0, symName: __ZNSt3__16vectorINS_10shared_ptrI8TreeNodeEENS_9allocatorIS3_EEE21__push_back_slow_pathIS3_EEPS3_OT_, symObjAddr: 0xC490, symBinAddr: 0x10000F41C, symSize: 0xE8 }
  - { offset: 0x3A73E, size: 0x8, addend: 0x0, symName: __ZNSt3__117__compressed_pairIPNS_10shared_ptrI8TreeNodeEENS_9allocatorIS3_EEE5firstB8ne180100Ev, symObjAddr: 0xC578, symBinAddr: 0x10000F504, symSize: 0x24 }
  - { offset: 0x3A764, size: 0x8, addend: 0x0, symName: __ZNSt3__122__compressed_pair_elemIPNS_10shared_ptrI8TreeNodeEELi0ELb0EE5__getB8ne180100Ev, symObjAddr: 0xC59C, symBinAddr: 0x10000F528, symSize: 0x14 }
  - { offset: 0x3A7A6, size: 0x8, addend: 0x0, symName: __ZNSt3__16vectorINS_10shared_ptrI8TreeNodeEENS_9allocatorIS3_EEE21_ConstructTransactionC1B8ne180100ERS6_m, symObjAddr: 0xC5B0, symBinAddr: 0x10000F53C, symSize: 0x3C }
  - { offset: 0x3A7EE, size: 0x8, addend: 0x0, symName: __ZNSt3__116allocator_traitsINS_9allocatorINS_10shared_ptrI8TreeNodeEEEEE9constructB8ne180100IS4_JS4_EvEEvRS5_PT_DpOT0_, symObjAddr: 0xC5EC, symBinAddr: 0x10000F578, symSize: 0x34 }
  - { offset: 0x3A845, size: 0x8, addend: 0x0, symName: __ZNSt3__16vectorINS_10shared_ptrI8TreeNodeEENS_9allocatorIS3_EEE21_ConstructTransactionD1B8ne180100Ev, symObjAddr: 0xC620, symBinAddr: 0x10000F5AC, symSize: 0x2C }
  - { offset: 0x3A86F, size: 0x8, addend: 0x0, symName: __ZNSt3__16vectorINS_10shared_ptrI8TreeNodeEENS_9allocatorIS3_EEE21_ConstructTransactionC2B8ne180100ERS6_m, symObjAddr: 0xC64C, symBinAddr: 0x10000F5D8, symSize: 0x44 }
  - { offset: 0x3A8B7, size: 0x8, addend: 0x0, symName: __ZNSt3__19allocatorINS_10shared_ptrI8TreeNodeEEE9constructB8ne180100IS3_JS3_EEEvPT_DpOT0_, symObjAddr: 0xC690, symBinAddr: 0x10000F61C, symSize: 0x30 }
  - { offset: 0x3A90F, size: 0x8, addend: 0x0, symName: __ZNSt3__110shared_ptrI8TreeNodeEC1B8ne180100EOS2_, symObjAddr: 0xC6C0, symBinAddr: 0x10000F64C, symSize: 0x34 }
  - { offset: 0x3A948, size: 0x8, addend: 0x0, symName: __ZNSt3__110shared_ptrI8TreeNodeEC2B8ne180100EOS2_, symObjAddr: 0xC6F4, symBinAddr: 0x10000F680, symSize: 0x40 }
  - { offset: 0x3A981, size: 0x8, addend: 0x0, symName: __ZNSt3__16vectorINS_10shared_ptrI8TreeNodeEENS_9allocatorIS3_EEE21_ConstructTransactionD2B8ne180100Ev, symObjAddr: 0xC734, symBinAddr: 0x10000F6C0, symSize: 0x20 }
  - { offset: 0x3A9AB, size: 0x8, addend: 0x0, symName: __ZNKSt3__16vectorINS_10shared_ptrI8TreeNodeEENS_9allocatorIS3_EEE11__recommendB8ne180100Em, symObjAddr: 0xC754, symBinAddr: 0x10000F6E0, symSize: 0xB4 }
  - { offset: 0x3AA00, size: 0x8, addend: 0x0, symName: __ZNKSt3__16vectorINS_10shared_ptrI8TreeNodeEENS_9allocatorIS3_EEE4sizeB8ne180100Ev, symObjAddr: 0xC808, symBinAddr: 0x10000F794, symSize: 0x28 }
  - { offset: 0x3AA26, size: 0x8, addend: 0x0, symName: __ZNSt3__114__split_bufferINS_10shared_ptrI8TreeNodeEERNS_9allocatorIS3_EEEC1EmmS6_, symObjAddr: 0xC830, symBinAddr: 0x10000F7BC, symSize: 0x44 }
  - { offset: 0x3AA7F, size: 0x8, addend: 0x0, symName: __ZNSt3__114__split_bufferINS_10shared_ptrI8TreeNodeEERNS_9allocatorIS3_EEED1Ev, symObjAddr: 0xC984, symBinAddr: 0x10000F910, symSize: 0x2C }
  - { offset: 0x3AAAB, size: 0x8, addend: 0x0, symName: __ZNKSt3__16vectorINS_10shared_ptrI8TreeNodeEENS_9allocatorIS3_EEE8max_sizeEv, symObjAddr: 0xC9B0, symBinAddr: 0x10000F93C, symSize: 0x60 }
  - { offset: 0x3AAD3, size: 0x8, addend: 0x0, symName: __ZNKSt3__16vectorINS_10shared_ptrI8TreeNodeEENS_9allocatorIS3_EEE20__throw_length_errorB8ne180100Ev, symObjAddr: 0xCA10, symBinAddr: 0x10000F99C, symSize: 0x1C }
  - { offset: 0x3AB04, size: 0x8, addend: 0x0, symName: __ZNSt3__116allocator_traitsINS_9allocatorINS_10shared_ptrI8TreeNodeEEEEE8max_sizeB8ne180100IS5_vEEmRKS5_, symObjAddr: 0xCA2C, symBinAddr: 0x10000F9B8, symSize: 0x24 }
  - { offset: 0x3AB32, size: 0x8, addend: 0x0, symName: __ZNKSt3__16vectorINS_10shared_ptrI8TreeNodeEENS_9allocatorIS3_EEE7__allocB8ne180100Ev, symObjAddr: 0xCA50, symBinAddr: 0x10000F9DC, symSize: 0x28 }
  - { offset: 0x3AB58, size: 0x8, addend: 0x0, symName: __ZNKSt3__19allocatorINS_10shared_ptrI8TreeNodeEEE8max_sizeB8ne180100Ev, symObjAddr: 0xCA78, symBinAddr: 0x10000FA04, symSize: 0x14 }
  - { offset: 0x3AB7E, size: 0x8, addend: 0x0, symName: __ZNKSt3__117__compressed_pairIPNS_10shared_ptrI8TreeNodeEENS_9allocatorIS3_EEE6secondB8ne180100Ev, symObjAddr: 0xCA8C, symBinAddr: 0x10000FA18, symSize: 0x24 }
  - { offset: 0x3ABA4, size: 0x8, addend: 0x0, symName: __ZNKSt3__122__compressed_pair_elemINS_9allocatorINS_10shared_ptrI8TreeNodeEEEELi1ELb1EE5__getB8ne180100Ev, symObjAddr: 0xCAB0, symBinAddr: 0x10000FA3C, symSize: 0x14 }
  - { offset: 0x3ABCA, size: 0x8, addend: 0x0, symName: __ZNSt3__114__split_bufferINS_10shared_ptrI8TreeNodeEERNS_9allocatorIS3_EEEC2EmmS6_, symObjAddr: 0xCAC4, symBinAddr: 0x10000FA50, symSize: 0xD4 }
  - { offset: 0x3AC41, size: 0x8, addend: 0x0, symName: __ZNSt3__117__compressed_pairIPNS_10shared_ptrI8TreeNodeEERNS_9allocatorIS3_EEEC1B8ne180100IDnS7_EEOT_OT0_, symObjAddr: 0xCB98, symBinAddr: 0x10000FB24, symSize: 0x3C }
  - { offset: 0x3AC9B, size: 0x8, addend: 0x0, symName: __ZNSt3__114__split_bufferINS_10shared_ptrI8TreeNodeEERNS_9allocatorIS3_EEE7__allocB8ne180100Ev, symObjAddr: 0xCC14, symBinAddr: 0x10000FBA0, symSize: 0x28 }
  - { offset: 0x3ACC1, size: 0x8, addend: 0x0, symName: __ZNSt3__114__split_bufferINS_10shared_ptrI8TreeNodeEERNS_9allocatorIS3_EEE9__end_capB8ne180100Ev, symObjAddr: 0xCC3C, symBinAddr: 0x10000FBC8, symSize: 0x28 }
  - { offset: 0x3ACE7, size: 0x8, addend: 0x0, symName: __ZNSt3__117__compressed_pairIPNS_10shared_ptrI8TreeNodeEERNS_9allocatorIS3_EEEC2B8ne180100IDnS7_EEOT_OT0_, symObjAddr: 0xCC64, symBinAddr: 0x10000FBF0, symSize: 0x48 }
  - { offset: 0x3AD41, size: 0x8, addend: 0x0, symName: __ZNSt3__122__compressed_pair_elemIRNS_9allocatorINS_10shared_ptrI8TreeNodeEEEELi1ELb0EEC2B8ne180100IS6_vEEOT_, symObjAddr: 0xCCAC, symBinAddr: 0x10000FC38, symSize: 0x20 }
  - { offset: 0x3AD84, size: 0x8, addend: 0x0, symName: __ZNSt3__19allocatorINS_10shared_ptrI8TreeNodeEEE8allocateB8ne180100Em, symObjAddr: 0xCCCC, symBinAddr: 0x10000FC58, symSize: 0x58 }
  - { offset: 0x3ADB9, size: 0x8, addend: 0x0, symName: __ZNSt3__117__compressed_pairIPNS_10shared_ptrI8TreeNodeEERNS_9allocatorIS3_EEE6secondB8ne180100Ev, symObjAddr: 0xCD24, symBinAddr: 0x10000FCB0, symSize: 0x28 }
  - { offset: 0x3ADDF, size: 0x8, addend: 0x0, symName: __ZNSt3__122__compressed_pair_elemIRNS_9allocatorINS_10shared_ptrI8TreeNodeEEEELi1ELb0EE5__getB8ne180100Ev, symObjAddr: 0xCD4C, symBinAddr: 0x10000FCD8, symSize: 0x18 }
  - { offset: 0x3AE05, size: 0x8, addend: 0x0, symName: __ZNSt3__117__compressed_pairIPNS_10shared_ptrI8TreeNodeEERNS_9allocatorIS3_EEE5firstB8ne180100Ev, symObjAddr: 0xCD64, symBinAddr: 0x10000FCF0, symSize: 0x24 }
  - { offset: 0x3AE2B, size: 0x8, addend: 0x0, symName: __ZNSt3__116reverse_iteratorIPNS_10shared_ptrI8TreeNodeEEEC1B8ne180100ES4_, symObjAddr: 0xCEB4, symBinAddr: 0x10000FE40, symSize: 0x34 }
  - { offset: 0x3AE64, size: 0x8, addend: 0x0, symName: __ZNKSt3__116reverse_iteratorIPNS_10shared_ptrI8TreeNodeEEE4baseB8ne180100Ev, symObjAddr: 0xCEE8, symBinAddr: 0x10000FE74, symSize: 0x18 }
  - { offset: 0x3AE8A, size: 0x8, addend: 0x0, symName: __ZNKSt3__16vectorINS_10shared_ptrI8TreeNodeEENS_9allocatorIS3_EEE14__annotate_newB8ne180100Em, symObjAddr: 0xCF3C, symBinAddr: 0x10000FEC8, symSize: 0x14 }
  - { offset: 0x3AEBF, size: 0x8, addend: 0x0, symName: __ZNSt3__129_AllocatorDestroyRangeReverseINS_9allocatorINS_10shared_ptrI8TreeNodeEEEENS_16reverse_iteratorIPS4_EEEC1B8ne180100ERS5_RS8_SB_, symObjAddr: 0xCF9C, symBinAddr: 0x10000FF28, symSize: 0x44 }
  - { offset: 0x3AF16, size: 0x8, addend: 0x0, symName: __ZNKSt3__116reverse_iteratorIPNS_10shared_ptrI8TreeNodeEEEdeB8ne180100Ev, symObjAddr: 0xD04C, symBinAddr: 0x10000FFD8, symSize: 0x28 }
  - { offset: 0x3AF4B, size: 0x8, addend: 0x0, symName: __ZNSt3__116reverse_iteratorIPNS_10shared_ptrI8TreeNodeEEEppB8ne180100Ev, symObjAddr: 0xD074, symBinAddr: 0x100010000, symSize: 0x20 }
  - { offset: 0x3AF71, size: 0x8, addend: 0x0, symName: __ZNSt3__128__exception_guard_exceptionsINS_29_AllocatorDestroyRangeReverseINS_9allocatorINS_10shared_ptrI8TreeNodeEEEENS_16reverse_iteratorIPS5_EEEEE10__completeB8ne180100Ev, symObjAddr: 0xD094, symBinAddr: 0x100010020, symSize: 0x1C }
  - { offset: 0x3AF97, size: 0x8, addend: 0x0, symName: __ZNSt3__128__exception_guard_exceptionsINS_29_AllocatorDestroyRangeReverseINS_9allocatorINS_10shared_ptrI8TreeNodeEEEENS_16reverse_iteratorIPS5_EEEEED1B8ne180100Ev, symObjAddr: 0xD0B0, symBinAddr: 0x10001003C, symSize: 0x2C }
  - { offset: 0x3AFC1, size: 0x8, addend: 0x0, symName: __ZNSt3__128__exception_guard_exceptionsINS_29_AllocatorDestroyRangeReverseINS_9allocatorINS_10shared_ptrI8TreeNodeEEEENS_16reverse_iteratorIPS5_EEEEEC1B8ne180100ESA_, symObjAddr: 0xD0DC, symBinAddr: 0x100010068, symSize: 0x34 }
  - { offset: 0x3AFFB, size: 0x8, addend: 0x0, symName: __ZNSt3__128__exception_guard_exceptionsINS_29_AllocatorDestroyRangeReverseINS_9allocatorINS_10shared_ptrI8TreeNodeEEEENS_16reverse_iteratorIPS5_EEEEEC2B8ne180100ESA_, symObjAddr: 0xD110, symBinAddr: 0x10001009C, symSize: 0x30 }
  - { offset: 0x3B035, size: 0x8, addend: 0x0, symName: __ZNSt3__129_AllocatorDestroyRangeReverseINS_9allocatorINS_10shared_ptrI8TreeNodeEEEENS_16reverse_iteratorIPS4_EEEC2B8ne180100ERS5_RS8_SB_, symObjAddr: 0xD140, symBinAddr: 0x1000100CC, symSize: 0x38 }
  - { offset: 0x3B092, size: 0x8, addend: 0x0, symName: __ZNSt3__119__to_address_helperINS_16reverse_iteratorIPNS_10shared_ptrI8TreeNodeEEEEvE6__callB8ne180100ERKS6_, symObjAddr: 0xD178, symBinAddr: 0x100010104, symSize: 0x38 }
  - { offset: 0x3B0B6, size: 0x8, addend: 0x0, symName: __ZNKSt3__116reverse_iteratorIPNS_10shared_ptrI8TreeNodeEEEptB8ne180100Ev, symObjAddr: 0xD1B0, symBinAddr: 0x10001013C, symSize: 0x24 }
  - { offset: 0x3B0DC, size: 0x8, addend: 0x0, symName: __ZNSt3__128__exception_guard_exceptionsINS_29_AllocatorDestroyRangeReverseINS_9allocatorINS_10shared_ptrI8TreeNodeEEEENS_16reverse_iteratorIPS5_EEEEED2B8ne180100Ev, symObjAddr: 0xD1D4, symBinAddr: 0x100010160, symSize: 0x50 }
  - { offset: 0x3B106, size: 0x8, addend: 0x0, symName: __ZNKSt3__129_AllocatorDestroyRangeReverseINS_9allocatorINS_10shared_ptrI8TreeNodeEEEENS_16reverse_iteratorIPS4_EEEclB8ne180100Ev, symObjAddr: 0xD224, symBinAddr: 0x1000101B0, symSize: 0xB4 }
  - { offset: 0x3B12D, size: 0x8, addend: 0x0, symName: __ZNSt3__116reverse_iteratorINS0_IPNS_10shared_ptrI8TreeNodeEEEEEC1B8ne180100ES5_, symObjAddr: 0xD348, symBinAddr: 0x1000102D4, symSize: 0x3C }
  - { offset: 0x3B166, size: 0x8, addend: 0x0, symName: __ZNSt3__116reverse_iteratorINS0_IPNS_10shared_ptrI8TreeNodeEEEEEppB8ne180100Ev, symObjAddr: 0xD408, symBinAddr: 0x100010394, symSize: 0x30 }
  - { offset: 0x3B18C, size: 0x8, addend: 0x0, symName: __ZNKSt3__116reverse_iteratorINS0_IPNS_10shared_ptrI8TreeNodeEEEEE4baseB8ne180100Ev, symObjAddr: 0xD438, symBinAddr: 0x1000103C4, symSize: 0x24 }
  - { offset: 0x3B1B8, size: 0x8, addend: 0x0, symName: __ZNSt3__119__to_address_helperINS_16reverse_iteratorINS1_IPNS_10shared_ptrI8TreeNodeEEEEEEvE6__callB8ne180100ERKS7_, symObjAddr: 0xD45C, symBinAddr: 0x1000103E8, symSize: 0x38 }
  - { offset: 0x3B1DC, size: 0x8, addend: 0x0, symName: __ZNKSt3__116reverse_iteratorINS0_IPNS_10shared_ptrI8TreeNodeEEEEEptB8ne180100Ev, symObjAddr: 0xD494, symBinAddr: 0x100010420, symSize: 0x24 }
  - { offset: 0x3B202, size: 0x8, addend: 0x0, symName: __ZNKSt3__116reverse_iteratorINS0_IPNS_10shared_ptrI8TreeNodeEEEEEdeB8ne180100Ev, symObjAddr: 0xD4B8, symBinAddr: 0x100010444, symSize: 0x34 }
  - { offset: 0x3B237, size: 0x8, addend: 0x0, symName: __ZNSt3__116reverse_iteratorIPNS_10shared_ptrI8TreeNodeEEEmmB8ne180100Ev, symObjAddr: 0xD4EC, symBinAddr: 0x100010478, symSize: 0x20 }
  - { offset: 0x3B25D, size: 0x8, addend: 0x0, symName: __ZNSt3__116reverse_iteratorINS0_IPNS_10shared_ptrI8TreeNodeEEEEEC2B8ne180100ES5_, symObjAddr: 0xD50C, symBinAddr: 0x100010498, symSize: 0x2C }
  - { offset: 0x3B296, size: 0x8, addend: 0x0, symName: __ZNSt3__116reverse_iteratorIPNS_10shared_ptrI8TreeNodeEEEC2B8ne180100ES4_, symObjAddr: 0xD538, symBinAddr: 0x1000104C4, symSize: 0x28 }
  - { offset: 0x3B2CF, size: 0x8, addend: 0x0, symName: __ZNSt3__114__split_bufferINS_10shared_ptrI8TreeNodeEERNS_9allocatorIS3_EEED2Ev, symObjAddr: 0xD560, symBinAddr: 0x1000104EC, symSize: 0x8C }
  - { offset: 0x3B2FB, size: 0x8, addend: 0x0, symName: __ZNSt3__114__split_bufferINS_10shared_ptrI8TreeNodeEERNS_9allocatorIS3_EEE5clearB8ne180100Ev, symObjAddr: 0xD5EC, symBinAddr: 0x100010578, symSize: 0x28 }
  - { offset: 0x3B321, size: 0x8, addend: 0x0, symName: __ZNKSt3__114__split_bufferINS_10shared_ptrI8TreeNodeEERNS_9allocatorIS3_EEE8capacityB8ne180100Ev, symObjAddr: 0xD614, symBinAddr: 0x1000105A0, symSize: 0x40 }
  - { offset: 0x3B347, size: 0x8, addend: 0x0, symName: __ZNSt3__114__split_bufferINS_10shared_ptrI8TreeNodeEERNS_9allocatorIS3_EEE17__destruct_at_endB8ne180100EPS3_, symObjAddr: 0xD654, symBinAddr: 0x1000105E0, symSize: 0x2C }
  - { offset: 0x3B37C, size: 0x8, addend: 0x0, symName: __ZNSt3__114__split_bufferINS_10shared_ptrI8TreeNodeEERNS_9allocatorIS3_EEE17__destruct_at_endB8ne180100EPS3_NS_17integral_constantIbLb0EEE, symObjAddr: 0xD680, symBinAddr: 0x10001060C, symSize: 0x80 }
  - { offset: 0x3B3BE, size: 0x8, addend: 0x0, symName: __ZNKSt3__114__split_bufferINS_10shared_ptrI8TreeNodeEERNS_9allocatorIS3_EEE9__end_capB8ne180100Ev, symObjAddr: 0xD700, symBinAddr: 0x10001068C, symSize: 0x28 }
  - { offset: 0x3B3E4, size: 0x8, addend: 0x0, symName: __ZNKSt3__117__compressed_pairIPNS_10shared_ptrI8TreeNodeEERNS_9allocatorIS3_EEE5firstB8ne180100Ev, symObjAddr: 0xD728, symBinAddr: 0x1000106B4, symSize: 0x24 }
  - { offset: 0x3B40A, size: 0x8, addend: 0x0, symName: __ZNSt3__16vectorIN8nlohmann16json_abi_v3_11_210basic_jsonINS_3mapES0_NS_12basic_stringIcNS_11char_traitsIcEENS_9allocatorIcEEEEbxydS8_NS2_14adl_serializerENS0_IhNS8_IhEEEEEENS8_ISE_EEEixB8ne180100Em, symObjAddr: 0xD74C, symBinAddr: 0x1000106D8, symSize: 0x24 }
  - { offset: 0x3B441, size: 0x8, addend: 0x0, symName: __ZNSt3__112basic_stringIcNS_11char_traitsIcEENS_9allocatorIcEEEC1B8ne180100EOS5_, symObjAddr: 0xD878, symBinAddr: 0x100010804, symSize: 0x34 }
  - { offset: 0x3B47A, size: 0x8, addend: 0x0, symName: __ZNSt3__112basic_stringIcNS_11char_traitsIcEENS_9allocatorIcEEEC2B8ne180100EOS5_, symObjAddr: 0xD8AC, symBinAddr: 0x100010838, symSize: 0xB8 }
  - { offset: 0x3B4E5, size: 0x8, addend: 0x0, symName: __ZZNSt3__112basic_stringIcNS_11char_traitsIcEENS_9allocatorIcEEEC1B8ne180100EOS5_ENKUlRS5_E_clES7_, symObjAddr: 0xD964, symBinAddr: 0x1000108F0, symSize: 0x40 }
  - { offset: 0x3B53B, size: 0x8, addend: 0x0, symName: __ZNKSt3__113basic_ostreamIcNS_11char_traitsIcEEE6sentrycvbB8ne180100Ev, symObjAddr: 0xDB90, symBinAddr: 0x100010B1C, symSize: 0x1C }
  - { offset: 0x3B561, size: 0x8, addend: 0x0, symName: __ZNSt3__119ostreambuf_iteratorIcNS_11char_traitsIcEEEC1B8ne180100ERNS_13basic_ostreamIcS2_EE, symObjAddr: 0xDDEC, symBinAddr: 0x100010D78, symSize: 0x34 }
  - { offset: 0x3B59A, size: 0x8, addend: 0x0, symName: __ZNKSt3__18ios_base5flagsB8ne180100Ev, symObjAddr: 0xDE20, symBinAddr: 0x100010DAC, symSize: 0x18 }
  - { offset: 0x3B5C2, size: 0x8, addend: 0x0, symName: __ZNKSt3__19basic_iosIcNS_11char_traitsIcEEE4fillB8ne180100Ev, symObjAddr: 0xDE38, symBinAddr: 0x100010DC4, symSize: 0x64 }
  - { offset: 0x3B5EA, size: 0x8, addend: 0x0, symName: __ZNKSt3__119ostreambuf_iteratorIcNS_11char_traitsIcEEE6failedB8ne180100Ev, symObjAddr: 0xDE9C, symBinAddr: 0x100010E28, symSize: 0x24 }
  - { offset: 0x3B610, size: 0x8, addend: 0x0, symName: __ZNSt3__19basic_iosIcNS_11char_traitsIcEEE8setstateB8ne180100Ej, symObjAddr: 0xDEC0, symBinAddr: 0x100010E4C, symSize: 0x2C }
  - { offset: 0x3B645, size: 0x8, addend: 0x0, symName: __ZNKSt3__18ios_base5widthB8ne180100Ev, symObjAddr: 0xDEEC, symBinAddr: 0x100010E78, symSize: 0x18 }
  - { offset: 0x3B66D, size: 0x8, addend: 0x0, symName: __ZNSt3__115basic_streambufIcNS_11char_traitsIcEEE5sputnB8ne180100EPKcl, symObjAddr: 0xDF04, symBinAddr: 0x100010E90, symSize: 0x3C }
  - { offset: 0x3B6B1, size: 0x8, addend: 0x0, symName: __ZNSt3__112basic_stringIcNS_11char_traitsIcEENS_9allocatorIcEEEC1B8ne180100Emc, symObjAddr: 0xDF40, symBinAddr: 0x100010ECC, symSize: 0x3C }
  - { offset: 0x3B6F9, size: 0x8, addend: 0x0, symName: __ZNSt3__112basic_stringIcNS_11char_traitsIcEENS_9allocatorIcEEE4dataB8ne180100Ev, symObjAddr: 0xDF7C, symBinAddr: 0x100010F08, symSize: 0x28 }
  - { offset: 0x3B71F, size: 0x8, addend: 0x0, symName: __ZNSt3__18ios_base5widthB8ne180100El, symObjAddr: 0xDFA4, symBinAddr: 0x100010F30, symSize: 0x2C }
  - { offset: 0x3B765, size: 0x8, addend: 0x0, symName: __ZNSt3__112basic_stringIcNS_11char_traitsIcEENS_9allocatorIcEEEC2B8ne180100Emc, symObjAddr: 0xDFD0, symBinAddr: 0x100010F5C, symSize: 0x4C }
  - { offset: 0x3B7AD, size: 0x8, addend: 0x0, symName: __ZNSt3__112basic_stringIcNS_11char_traitsIcEENS_9allocatorIcEEE13__get_pointerB8ne180100Ev, symObjAddr: 0xE030, symBinAddr: 0x100010FBC, symSize: 0x54 }
  - { offset: 0x3B7D3, size: 0x8, addend: 0x0, symName: __ZNSt3__119ostreambuf_iteratorIcNS_11char_traitsIcEEEC2B8ne180100ERNS_13basic_ostreamIcS2_EE, symObjAddr: 0xE084, symBinAddr: 0x100011010, symSize: 0x54 }
  - { offset: 0x3B80C, size: 0x8, addend: 0x0, symName: __ZNKSt3__19basic_iosIcNS_11char_traitsIcEEE5rdbufB8ne180100Ev, symObjAddr: 0xE0D8, symBinAddr: 0x100011064, symSize: 0x24 }
  - { offset: 0x3B834, size: 0x8, addend: 0x0, symName: __ZNKSt3__18ios_base5rdbufB8ne180100Ev, symObjAddr: 0xE0FC, symBinAddr: 0x100011088, symSize: 0x18 }
  - { offset: 0x3B85A, size: 0x8, addend: 0x0, symName: __ZNSt3__111char_traitsIcE11eq_int_typeB8ne180100Eii, symObjAddr: 0xE114, symBinAddr: 0x1000110A0, symSize: 0x28 }
  - { offset: 0x3B88D, size: 0x8, addend: 0x0, symName: __ZNSt3__111char_traitsIcE3eofB8ne180100Ev, symObjAddr: 0xE13C, symBinAddr: 0x1000110C8, symSize: 0x8 }
  - { offset: 0x3B8A1, size: 0x8, addend: 0x0, symName: __ZNKSt3__19basic_iosIcNS_11char_traitsIcEEE5widenB8ne180100Ec, symObjAddr: 0xE144, symBinAddr: 0x1000110D0, symSize: 0x84 }
  - { offset: 0x3B91C, size: 0x8, addend: 0x0, symName: __ZNKSt3__15ctypeIcE5widenB8ne180100Ec, symObjAddr: 0xE1F4, symBinAddr: 0x100011180, symSize: 0x38 }
  - { offset: 0x3B951, size: 0x8, addend: 0x0, symName: __ZNSt3__18ios_base8setstateB8ne180100Ej, symObjAddr: 0xE22C, symBinAddr: 0x1000111B8, symSize: 0x34 }
  - { offset: 0x3B988, size: 0x8, addend: 0x0, symName: __ZNSt3__16vectorINS_10shared_ptrI8TreeNodeEENS_9allocatorIS3_EEE11__make_iterB8ne180100EPS3_, symObjAddr: 0xE260, symBinAddr: 0x1000111EC, symSize: 0x30 }
  - { offset: 0x3B9BD, size: 0x8, addend: 0x0, symName: __ZNSt3__111__wrap_iterIPNS_10shared_ptrI8TreeNodeEEEC1B8ne180100ES4_, symObjAddr: 0xE290, symBinAddr: 0x10001121C, symSize: 0x34 }
  - { offset: 0x3B9F6, size: 0x8, addend: 0x0, symName: __ZNSt3__111__wrap_iterIPNS_10shared_ptrI8TreeNodeEEEC2B8ne180100ES4_, symObjAddr: 0xE2C4, symBinAddr: 0x100011250, symSize: 0x20 }
  - { offset: 0x3BA2F, size: 0x8, addend: 0x0, symName: __ZNKSt3__112__hash_tableINS_17__hash_value_typeIPK8TreeNodeNS_12basic_stringIcNS_11char_traitsIcEENS_9allocatorIcEEEEEENS_22__unordered_map_hasherIS4_SB_NS_4hashIS4_EENS_8equal_toIS4_EELb1EEENS_21__unordered_map_equalIS4_SB_SG_SE_Lb1EEENS8_ISB_EEE14__count_uniqueIS4_EEmRKT_, symObjAddr: 0xE2E4, symBinAddr: 0x100011270, symSize: 0x64 }
  - { offset: 0x3BA6F, size: 0x8, addend: 0x0, symName: __ZNKSt3__112__hash_tableINS_17__hash_value_typeIPK8TreeNodeNS_12basic_stringIcNS_11char_traitsIcEENS_9allocatorIcEEEEEENS_22__unordered_map_hasherIS4_SB_NS_4hashIS4_EENS_8equal_toIS4_EELb1EEENS_21__unordered_map_equalIS4_SB_SG_SE_Lb1EEENS8_ISB_EEE4findIS4_EENS_21__hash_const_iteratorIPNS_11__hash_nodeISB_PvEEEERKT_, symObjAddr: 0xE37C, symBinAddr: 0x100011308, symSize: 0x1B8 }
  - { offset: 0x3BAFA, size: 0x8, addend: 0x0, symName: __ZNKSt3__112__hash_tableINS_17__hash_value_typeIPK8TreeNodeNS_12basic_stringIcNS_11char_traitsIcEENS_9allocatorIcEEEEEENS_22__unordered_map_hasherIS4_SB_NS_4hashIS4_EENS_8equal_toIS4_EELb1EEENS_21__unordered_map_equalIS4_SB_SG_SE_Lb1EEENS8_ISB_EEE3endEv, symObjAddr: 0xE534, symBinAddr: 0x1000114C0, symSize: 0x2C }
  - { offset: 0x3BB22, size: 0x8, addend: 0x0, symName: __ZNKSt3__112__hash_tableINS_17__hash_value_typeIPK8TreeNodeNS_12basic_stringIcNS_11char_traitsIcEENS_9allocatorIcEEEEEENS_22__unordered_map_hasherIS4_SB_NS_4hashIS4_EENS_8equal_toIS4_EELb1EEENS_21__unordered_map_equalIS4_SB_SG_SE_Lb1EEENS8_ISB_EEE13hash_functionB8ne180100Ev, symObjAddr: 0xE590, symBinAddr: 0x10001151C, symSize: 0x28 }
  - { offset: 0x3BB48, size: 0x8, addend: 0x0, symName: __ZNKSt3__122__unordered_map_hasherIPK8TreeNodeNS_17__hash_value_typeIS3_NS_12basic_stringIcNS_11char_traitsIcEENS_9allocatorIcEEEEEENS_4hashIS3_EENS_8equal_toIS3_EELb1EEclB8ne180100ERKS3_, symObjAddr: 0xE5B8, symBinAddr: 0x100011544, symSize: 0x30 }
  - { offset: 0x3BB7D, size: 0x8, addend: 0x0, symName: __ZNKSt3__112__hash_tableINS_17__hash_value_typeIPK8TreeNodeNS_12basic_stringIcNS_11char_traitsIcEENS_9allocatorIcEEEEEENS_22__unordered_map_hasherIS4_SB_NS_4hashIS4_EENS_8equal_toIS4_EELb1EEENS_21__unordered_map_equalIS4_SB_SG_SE_Lb1EEENS8_ISB_EEE12bucket_countB8ne180100Ev, symObjAddr: 0xE5E8, symBinAddr: 0x100011574, symSize: 0x28 }
  - { offset: 0x3BBA3, size: 0x8, addend: 0x0, symName: __ZNKSt3__110unique_ptrIA_PNS_16__hash_node_baseIPNS_11__hash_nodeINS_17__hash_value_typeIPK8TreeNodeNS_12basic_stringIcNS_11char_traitsIcEENS_9allocatorIcEEEEEEPvEEEENS_25__bucket_list_deallocatorINSA_ISI_EEEEEixB8ne180100Em, symObjAddr: 0xE6A8, symBinAddr: 0x100011634, symSize: 0x34 }
  - { offset: 0x3BBD8, size: 0x8, addend: 0x0, symName: __ZNKSt3__116__hash_node_baseIPNS_11__hash_nodeINS_17__hash_value_typeIPK8TreeNodeNS_12basic_stringIcNS_11char_traitsIcEENS_9allocatorIcEEEEEEPvEEE6__hashB8ne180100Ev, symObjAddr: 0xE6DC, symBinAddr: 0x100011668, symSize: 0x18 }
  - { offset: 0x3BBFE, size: 0x8, addend: 0x0, symName: __ZNKSt3__112__hash_tableINS_17__hash_value_typeIPK8TreeNodeNS_12basic_stringIcNS_11char_traitsIcEENS_9allocatorIcEEEEEENS_22__unordered_map_hasherIS4_SB_NS_4hashIS4_EENS_8equal_toIS4_EELb1EEENS_21__unordered_map_equalIS4_SB_SG_SE_Lb1EEENS8_ISB_EEE6key_eqB8ne180100Ev, symObjAddr: 0xE6F4, symBinAddr: 0x100011680, symSize: 0x28 }
  - { offset: 0x3BC24, size: 0x8, addend: 0x0, symName: __ZNKSt3__121__unordered_map_equalIPK8TreeNodeNS_17__hash_value_typeIS3_NS_12basic_stringIcNS_11char_traitsIcEENS_9allocatorIcEEEEEENS_8equal_toIS3_EENS_4hashIS3_EELb1EEclB8ne180100ERKSB_RKS3_, symObjAddr: 0xE71C, symBinAddr: 0x1000116A8, symSize: 0x48 }
  - { offset: 0x3BC68, size: 0x8, addend: 0x0, symName: __ZNSt3__116__hash_node_baseIPNS_11__hash_nodeINS_17__hash_value_typeIPK8TreeNodeNS_12basic_stringIcNS_11char_traitsIcEENS_9allocatorIcEEEEEEPvEEE8__upcastB8ne180100Ev, symObjAddr: 0xE764, symBinAddr: 0x1000116F0, symSize: 0x24 }
  - { offset: 0x3BC8E, size: 0x8, addend: 0x0, symName: __ZNSt3__111__hash_nodeINS_17__hash_value_typeIPK8TreeNodeNS_12basic_stringIcNS_11char_traitsIcEENS_9allocatorIcEEEEEEPvE11__get_valueB8ne180100Ev, symObjAddr: 0xE788, symBinAddr: 0x100011714, symSize: 0x18 }
  - { offset: 0x3BCB4, size: 0x8, addend: 0x0, symName: __ZNSt3__121__hash_const_iteratorIPNS_11__hash_nodeINS_17__hash_value_typeIPK8TreeNodeNS_12basic_stringIcNS_11char_traitsIcEENS_9allocatorIcEEEEEEPvEEEC1B8ne180100EPNS_16__hash_node_baseISF_EE, symObjAddr: 0xE7A0, symBinAddr: 0x10001172C, symSize: 0x34 }
  - { offset: 0x3BCED, size: 0x8, addend: 0x0, symName: __ZNKSt3__117__compressed_pairImNS_22__unordered_map_hasherIPK8TreeNodeNS_17__hash_value_typeIS4_NS_12basic_stringIcNS_11char_traitsIcEENS_9allocatorIcEEEEEENS_4hashIS4_EENS_8equal_toIS4_EELb1EEEE6secondB8ne180100Ev, symObjAddr: 0xE7D4, symBinAddr: 0x100011760, symSize: 0x24 }
  - { offset: 0x3BD13, size: 0x8, addend: 0x0, symName: __ZNKSt3__122__compressed_pair_elemINS_22__unordered_map_hasherIPK8TreeNodeNS_17__hash_value_typeIS4_NS_12basic_stringIcNS_11char_traitsIcEENS_9allocatorIcEEEEEENS_4hashIS4_EENS_8equal_toIS4_EELb1EEELi1ELb1EE5__getB8ne180100Ev, symObjAddr: 0xE7F8, symBinAddr: 0x100011784, symSize: 0x14 }
  - { offset: 0x3BD39, size: 0x8, addend: 0x0, symName: __ZNKSt3__14hashIPK8TreeNodeEclB8ne180100ES3_, symObjAddr: 0xE80C, symBinAddr: 0x100011798, symSize: 0x48 }
  - { offset: 0x3BD9F, size: 0x8, addend: 0x0, symName: __ZNKSt3__121__murmur2_or_cityhashImLm64EEclB8ne180100EPKvm, symObjAddr: 0xE854, symBinAddr: 0x1000117E0, symSize: 0x410 }
  - { offset: 0x3BE41, size: 0x8, addend: 0x0, symName: __ZNSt3__121__murmur2_or_cityhashImLm64EE18__hash_len_0_to_16B8ne180100EPKcm, symObjAddr: 0xEC64, symBinAddr: 0x100011BF0, symSize: 0x1C8 }
  - { offset: 0x3BF28, size: 0x8, addend: 0x0, symName: __ZNSt3__121__murmur2_or_cityhashImLm64EE19__hash_len_17_to_32B8ne180100EPKcm, symObjAddr: 0xEE2C, symBinAddr: 0x100011DB8, symSize: 0x130 }
  - { offset: 0x3BF97, size: 0x8, addend: 0x0, symName: __ZNSt3__121__murmur2_or_cityhashImLm64EE19__hash_len_33_to_64B8ne180100EPKcm, symObjAddr: 0xEF5C, symBinAddr: 0x100011EE8, symSize: 0x2B8 }
  - { offset: 0x3C054, size: 0x8, addend: 0x0, symName: __ZNSt3__121__murmur2_or_cityhashImLm64EE13__hash_len_16B8ne180100Emm, symObjAddr: 0xF234, symBinAddr: 0x1000121C0, symSize: 0x80 }
  - { offset: 0x3C0B4, size: 0x8, addend: 0x0, symName: __ZNSt3__121__murmur2_or_cityhashImLm64EE29__weak_hash_len_32_with_seedsB8ne180100EPKcmm, symObjAddr: 0xF2B4, symBinAddr: 0x100012240, symSize: 0x88 }
  - { offset: 0x3C0F6, size: 0x8, addend: 0x0, symName: __ZNSt3__121__murmur2_or_cityhashImLm64EE8__rotateB8ne180100Emi, symObjAddr: 0xF33C, symBinAddr: 0x1000122C8, symSize: 0x64 }
  - { offset: 0x3C129, size: 0x8, addend: 0x0, symName: __ZNSt3__14pairImmEaSB8ne180100EOS1_, symObjAddr: 0xF3A0, symBinAddr: 0x10001232C, symSize: 0x30 }
  - { offset: 0x3C15E, size: 0x8, addend: 0x0, symName: __ZNSt3__121__murmur2_or_cityhashImLm64EE11__shift_mixB8ne180100Em, symObjAddr: 0xF40C, symBinAddr: 0x100012398, symSize: 0x1C }
  - { offset: 0x3C182, size: 0x8, addend: 0x0, symName: __ZNSt3__121__murmur2_or_cityhashImLm64EE22__rotate_by_at_least_1B8ne180100Emi, symObjAddr: 0xF428, symBinAddr: 0x1000123B4, symSize: 0x38 }
  - { offset: 0x3C1B5, size: 0x8, addend: 0x0, symName: __ZNSt3__121__murmur2_or_cityhashImLm64EE29__weak_hash_len_32_with_seedsB8ne180100Emmmmmm, symObjAddr: 0xF480, symBinAddr: 0x10001240C, symSize: 0xD8 }
  - { offset: 0x3C239, size: 0x8, addend: 0x0, symName: __ZNSt3__14pairImmEC1B8ne180100ImmLi0EEEOT_OT0_, symObjAddr: 0xF558, symBinAddr: 0x1000124E4, symSize: 0x3C }
  - { offset: 0x3C299, size: 0x8, addend: 0x0, symName: __ZNSt3__14pairImmEC2B8ne180100ImmLi0EEEOT_OT0_, symObjAddr: 0xF594, symBinAddr: 0x100012520, symSize: 0x34 }
  - { offset: 0x3C2F9, size: 0x8, addend: 0x0, symName: __ZNKSt3__110unique_ptrIA_PNS_16__hash_node_baseIPNS_11__hash_nodeINS_17__hash_value_typeIPK8TreeNodeNS_12basic_stringIcNS_11char_traitsIcEENS_9allocatorIcEEEEEEPvEEEENS_25__bucket_list_deallocatorINSA_ISI_EEEEE11get_deleterB8ne180100Ev, symObjAddr: 0xF5C8, symBinAddr: 0x100012554, symSize: 0x24 }
  - { offset: 0x3C31F, size: 0x8, addend: 0x0, symName: __ZNKSt3__125__bucket_list_deallocatorINS_9allocatorIPNS_16__hash_node_baseIPNS_11__hash_nodeINS_17__hash_value_typeIPK8TreeNodeNS_12basic_stringIcNS_11char_traitsIcEENS1_IcEEEEEEPvEEEEEEE4sizeB8ne180100Ev, symObjAddr: 0xF5EC, symBinAddr: 0x100012578, symSize: 0x28 }
  - { offset: 0x3C345, size: 0x8, addend: 0x0, symName: __ZNKSt3__117__compressed_pairIPPNS_16__hash_node_baseIPNS_11__hash_nodeINS_17__hash_value_typeIPK8TreeNodeNS_12basic_stringIcNS_11char_traitsIcEENS_9allocatorIcEEEEEEPvEEEENS_25__bucket_list_deallocatorINSA_ISI_EEEEE6secondB8ne180100Ev, symObjAddr: 0xF614, symBinAddr: 0x1000125A0, symSize: 0x28 }
  - { offset: 0x3C36B, size: 0x8, addend: 0x0, symName: __ZNKSt3__122__compressed_pair_elemINS_25__bucket_list_deallocatorINS_9allocatorIPNS_16__hash_node_baseIPNS_11__hash_nodeINS_17__hash_value_typeIPK8TreeNodeNS_12basic_stringIcNS_11char_traitsIcEENS2_IcEEEEEEPvEEEEEEEELi1ELb0EE5__getB8ne180100Ev, symObjAddr: 0xF63C, symBinAddr: 0x1000125C8, symSize: 0x14 }
  - { offset: 0x3C391, size: 0x8, addend: 0x0, symName: __ZNKSt3__117__compressed_pairImNS_9allocatorIPNS_16__hash_node_baseIPNS_11__hash_nodeINS_17__hash_value_typeIPK8TreeNodeNS_12basic_stringIcNS_11char_traitsIcEENS1_IcEEEEEEPvEEEEEEE5firstB8ne180100Ev, symObjAddr: 0xF650, symBinAddr: 0x1000125DC, symSize: 0x24 }
  - { offset: 0x3C3B7, size: 0x8, addend: 0x0, symName: __ZNKSt3__117__compressed_pairIPPNS_16__hash_node_baseIPNS_11__hash_nodeINS_17__hash_value_typeIPK8TreeNodeNS_12basic_stringIcNS_11char_traitsIcEENS_9allocatorIcEEEEEEPvEEEENS_25__bucket_list_deallocatorINSA_ISI_EEEEE5firstB8ne180100Ev, symObjAddr: 0xF674, symBinAddr: 0x100012600, symSize: 0x24 }
  - { offset: 0x3C3DD, size: 0x8, addend: 0x0, symName: __ZNKSt3__122__compressed_pair_elemIPPNS_16__hash_node_baseIPNS_11__hash_nodeINS_17__hash_value_typeIPK8TreeNodeNS_12basic_stringIcNS_11char_traitsIcEENS_9allocatorIcEEEEEEPvEEEELi0ELb0EE5__getB8ne180100Ev, symObjAddr: 0xF698, symBinAddr: 0x100012624, symSize: 0x14 }
  - { offset: 0x3C403, size: 0x8, addend: 0x0, symName: __ZNKSt3__117__compressed_pairIfNS_21__unordered_map_equalIPK8TreeNodeNS_17__hash_value_typeIS4_NS_12basic_stringIcNS_11char_traitsIcEENS_9allocatorIcEEEEEENS_8equal_toIS4_EENS_4hashIS4_EELb1EEEE6secondB8ne180100Ev, symObjAddr: 0xF6AC, symBinAddr: 0x100012638, symSize: 0x24 }
  - { offset: 0x3C429, size: 0x8, addend: 0x0, symName: __ZNKSt3__122__compressed_pair_elemINS_21__unordered_map_equalIPK8TreeNodeNS_17__hash_value_typeIS4_NS_12basic_stringIcNS_11char_traitsIcEENS_9allocatorIcEEEEEENS_8equal_toIS4_EENS_4hashIS4_EELb1EEELi1ELb1EE5__getB8ne180100Ev, symObjAddr: 0xF6D0, symBinAddr: 0x10001265C, symSize: 0x14 }
  - { offset: 0x3C44F, size: 0x8, addend: 0x0, symName: __ZNKSt3__18equal_toIPK8TreeNodeEclB8ne180100ERKS3_S6_, symObjAddr: 0xF6E4, symBinAddr: 0x100012670, symSize: 0x34 }
  - { offset: 0x3C493, size: 0x8, addend: 0x0, symName: __ZNKSt3__117__hash_value_typeIPK8TreeNodeNS_12basic_stringIcNS_11char_traitsIcEENS_9allocatorIcEEEEE11__get_valueB8ne180100Ev, symObjAddr: 0xF718, symBinAddr: 0x1000126A4, symSize: 0x24 }
  - { offset: 0x3C4B9, size: 0x8, addend: 0x0, symName: __ZNSt3__114pointer_traitsIPNS_16__hash_node_baseIPNS_11__hash_nodeINS_17__hash_value_typeIPK8TreeNodeNS_12basic_stringIcNS_11char_traitsIcEENS_9allocatorIcEEEEEEPvEEEEE10pointer_toB8ne180100ERSH_, symObjAddr: 0xF774, symBinAddr: 0x100012700, symSize: 0x14 }
  - { offset: 0x3C4DD, size: 0x8, addend: 0x0, symName: __ZNSt3__121__hash_const_iteratorIPNS_11__hash_nodeINS_17__hash_value_typeIPK8TreeNodeNS_12basic_stringIcNS_11char_traitsIcEENS_9allocatorIcEEEEEEPvEEEC2B8ne180100EPNS_16__hash_node_baseISF_EE, symObjAddr: 0xF788, symBinAddr: 0x100012714, symSize: 0x20 }
  - { offset: 0x3C52E, size: 0x8, addend: 0x0, symName: __ZNSt3__112__hash_tableINS_17__hash_value_typeIPK8TreeNodeNS_12basic_stringIcNS_11char_traitsIcEENS_9allocatorIcEEEEEENS_22__unordered_map_hasherIS4_SB_NS_4hashIS4_EENS_8equal_toIS4_EELb1EEENS_21__unordered_map_equalIS4_SB_SG_SE_Lb1EEENS8_ISB_EEE25__emplace_unique_key_argsIS4_JRKNS_21piecewise_construct_tENS_5tupleIJRKS4_EEENSQ_IJEEEEEENS_4pairINS_15__hash_iteratorIPNS_11__hash_nodeISB_PvEEEEbEERKT_DpOT0_, symObjAddr: 0xF7A8, symBinAddr: 0x100012734, symSize: 0x4B8 }
  - { offset: 0x3C639, size: 0x8, addend: 0x0, symName: __ZNKSt3__115__hash_iteratorIPNS_11__hash_nodeINS_17__hash_value_typeIPK8TreeNodeNS_12basic_stringIcNS_11char_traitsIcEENS_9allocatorIcEEEEEEPvEEEptB8ne180100Ev, symObjAddr: 0xFC90, symBinAddr: 0x100012C1C, symSize: 0x30 }
  - { offset: 0x3C65F, size: 0x8, addend: 0x0, symName: __ZNSt3__117__hash_value_typeIPK8TreeNodeNS_12basic_stringIcNS_11char_traitsIcEENS_9allocatorIcEEEEE11__get_valueB8ne180100Ev, symObjAddr: 0xFCC0, symBinAddr: 0x100012C4C, symSize: 0x24 }
  - { offset: 0x3C685, size: 0x8, addend: 0x0, symName: __ZNSt3__112__hash_tableINS_17__hash_value_typeIPK8TreeNodeNS_12basic_stringIcNS_11char_traitsIcEENS_9allocatorIcEEEEEENS_22__unordered_map_hasherIS4_SB_NS_4hashIS4_EENS_8equal_toIS4_EELb1EEENS_21__unordered_map_equalIS4_SB_SG_SE_Lb1EEENS8_ISB_EEE13hash_functionB8ne180100Ev, symObjAddr: 0xFCE4, symBinAddr: 0x100012C70, symSize: 0x28 }
  - { offset: 0x3C6AB, size: 0x8, addend: 0x0, symName: __ZNSt3__112__hash_tableINS_17__hash_value_typeIPK8TreeNodeNS_12basic_stringIcNS_11char_traitsIcEENS_9allocatorIcEEEEEENS_22__unordered_map_hasherIS4_SB_NS_4hashIS4_EENS_8equal_toIS4_EELb1EEENS_21__unordered_map_equalIS4_SB_SG_SE_Lb1EEENS8_ISB_EEE6key_eqB8ne180100Ev, symObjAddr: 0xFD0C, symBinAddr: 0x100012C98, symSize: 0x28 }
  - { offset: 0x3C6D1, size: 0x8, addend: 0x0, symName: __ZNSt3__112__hash_tableINS_17__hash_value_typeIPK8TreeNodeNS_12basic_stringIcNS_11char_traitsIcEENS_9allocatorIcEEEEEENS_22__unordered_map_hasherIS4_SB_NS_4hashIS4_EENS_8equal_toIS4_EELb1EEENS_21__unordered_map_equalIS4_SB_SG_SE_Lb1EEENS8_ISB_EEE21__construct_node_hashIRKNS_21piecewise_construct_tEJNS_5tupleIJRKS4_EEENSQ_IJEEEEEENS_10unique_ptrINS_11__hash_nodeISB_PvEENS_22__hash_node_destructorINS8_ISY_EEEEEEmOT_DpOT0_, symObjAddr: 0xFD34, symBinAddr: 0x100012CC0, symSize: 0x14C }
  - { offset: 0x3C76D, size: 0x8, addend: 0x0, symName: __ZNSt3__112__hash_tableINS_17__hash_value_typeIPK8TreeNodeNS_12basic_stringIcNS_11char_traitsIcEENS_9allocatorIcEEEEEENS_22__unordered_map_hasherIS4_SB_NS_4hashIS4_EENS_8equal_toIS4_EELb1EEENS_21__unordered_map_equalIS4_SB_SG_SE_Lb1EEENS8_ISB_EEE4sizeB8ne180100Ev, symObjAddr: 0xFE80, symBinAddr: 0x100012E0C, symSize: 0x28 }
  - { offset: 0x3C793, size: 0x8, addend: 0x0, symName: __ZNSt3__112__hash_tableINS_17__hash_value_typeIPK8TreeNodeNS_12basic_stringIcNS_11char_traitsIcEENS_9allocatorIcEEEEEENS_22__unordered_map_hasherIS4_SB_NS_4hashIS4_EENS_8equal_toIS4_EELb1EEENS_21__unordered_map_equalIS4_SB_SG_SE_Lb1EEENS8_ISB_EEE15max_load_factorB8ne180100Ev, symObjAddr: 0xFEA8, symBinAddr: 0x100012E34, symSize: 0x28 }
  - { offset: 0x3C7B9, size: 0x8, addend: 0x0, symName: __ZNSt3__112__hash_tableINS_17__hash_value_typeIPK8TreeNodeNS_12basic_stringIcNS_11char_traitsIcEENS_9allocatorIcEEEEEENS_22__unordered_map_hasherIS4_SB_NS_4hashIS4_EENS_8equal_toIS4_EELb1EEENS_21__unordered_map_equalIS4_SB_SG_SE_Lb1EEENS8_ISB_EEE15__rehash_uniqueB8ne180100Em, symObjAddr: 0xFED0, symBinAddr: 0x100012E5C, symSize: 0x2C }
  - { offset: 0x3C7EE, size: 0x8, addend: 0x0, symName: __ZNSt3__117__compressed_pairINS_16__hash_node_baseIPNS_11__hash_nodeINS_17__hash_value_typeIPK8TreeNodeNS_12basic_stringIcNS_11char_traitsIcEENS_9allocatorIcEEEEEEPvEEEENSA_ISF_EEE5firstB8ne180100Ev, symObjAddr: 0xFF64, symBinAddr: 0x100012EF0, symSize: 0x24 }
  - { offset: 0x3C814, size: 0x8, addend: 0x0, symName: __ZNSt3__116__hash_node_baseIPNS_11__hash_nodeINS_17__hash_value_typeIPK8TreeNodeNS_12basic_stringIcNS_11char_traitsIcEENS_9allocatorIcEEEEEEPvEEE5__ptrB8ne180100Ev, symObjAddr: 0xFF88, symBinAddr: 0x100012F14, symSize: 0x24 }
  - { offset: 0x3C83A, size: 0x8, addend: 0x0, symName: __ZNKSt3__110unique_ptrINS_11__hash_nodeINS_17__hash_value_typeIPK8TreeNodeNS_12basic_stringIcNS_11char_traitsIcEENS_9allocatorIcEEEEEEPvEENS_22__hash_node_destructorINS9_ISE_EEEEEptB8ne180100Ev, symObjAddr: 0xFFAC, symBinAddr: 0x100012F38, symSize: 0x28 }
  - { offset: 0x3C860, size: 0x8, addend: 0x0, symName: __ZNKSt3__110unique_ptrINS_11__hash_nodeINS_17__hash_value_typeIPK8TreeNodeNS_12basic_stringIcNS_11char_traitsIcEENS_9allocatorIcEEEEEEPvEENS_22__hash_node_destructorINS9_ISE_EEEEE3getB8ne180100Ev, symObjAddr: 0xFFD4, symBinAddr: 0x100012F60, symSize: 0x28 }
  - { offset: 0x3C886, size: 0x8, addend: 0x0, symName: __ZNSt3__110unique_ptrINS_11__hash_nodeINS_17__hash_value_typeIPK8TreeNodeNS_12basic_stringIcNS_11char_traitsIcEENS_9allocatorIcEEEEEEPvEENS_22__hash_node_destructorINS9_ISE_EEEEE7releaseB8ne180100Ev, symObjAddr: 0xFFFC, symBinAddr: 0x100012F88, symSize: 0x44 }
  - { offset: 0x3C8BB, size: 0x8, addend: 0x0, symName: __ZNSt3__110unique_ptrINS_11__hash_nodeINS_17__hash_value_typeIPK8TreeNodeNS_12basic_stringIcNS_11char_traitsIcEENS_9allocatorIcEEEEEEPvEENS_22__hash_node_destructorINS9_ISE_EEEEED1B8ne180100Ev, symObjAddr: 0x10040, symBinAddr: 0x100012FCC, symSize: 0x2C }
  - { offset: 0x3C8E5, size: 0x8, addend: 0x0, symName: __ZNSt3__115__hash_iteratorIPNS_11__hash_nodeINS_17__hash_value_typeIPK8TreeNodeNS_12basic_stringIcNS_11char_traitsIcEENS_9allocatorIcEEEEEEPvEEEC1B8ne180100EPNS_16__hash_node_baseISF_EE, symObjAddr: 0x1006C, symBinAddr: 0x100012FF8, symSize: 0x34 }
  - { offset: 0x3C924, size: 0x8, addend: 0x0, symName: __ZNSt3__14pairINS_15__hash_iteratorIPNS_11__hash_nodeINS_17__hash_value_typeIPK8TreeNodeNS_12basic_stringIcNS_11char_traitsIcEENS_9allocatorIcEEEEEEPvEEEEbEC1B8ne180100ISH_RbLi0EEEOT_OT0_, symObjAddr: 0x100A0, symBinAddr: 0x10001302C, symSize: 0x3C }
  - { offset: 0x3C984, size: 0x8, addend: 0x0, symName: __ZNSt3__117__compressed_pairImNS_22__unordered_map_hasherIPK8TreeNodeNS_17__hash_value_typeIS4_NS_12basic_stringIcNS_11char_traitsIcEENS_9allocatorIcEEEEEENS_4hashIS4_EENS_8equal_toIS4_EELb1EEEE6secondB8ne180100Ev, symObjAddr: 0x100DC, symBinAddr: 0x100013068, symSize: 0x24 }
  - { offset: 0x3C9AA, size: 0x8, addend: 0x0, symName: __ZNSt3__122__compressed_pair_elemINS_22__unordered_map_hasherIPK8TreeNodeNS_17__hash_value_typeIS4_NS_12basic_stringIcNS_11char_traitsIcEENS_9allocatorIcEEEEEENS_4hashIS4_EENS_8equal_toIS4_EELb1EEELi1ELb1EE5__getB8ne180100Ev, symObjAddr: 0x10100, symBinAddr: 0x10001308C, symSize: 0x14 }
  - { offset: 0x3C9D0, size: 0x8, addend: 0x0, symName: __ZNSt3__117__compressed_pairIfNS_21__unordered_map_equalIPK8TreeNodeNS_17__hash_value_typeIS4_NS_12basic_stringIcNS_11char_traitsIcEENS_9allocatorIcEEEEEENS_8equal_toIS4_EENS_4hashIS4_EELb1EEEE6secondB8ne180100Ev, symObjAddr: 0x10114, symBinAddr: 0x1000130A0, symSize: 0x24 }
  - { offset: 0x3C9F6, size: 0x8, addend: 0x0, symName: __ZNSt3__122__compressed_pair_elemINS_21__unordered_map_equalIPK8TreeNodeNS_17__hash_value_typeIS4_NS_12basic_stringIcNS_11char_traitsIcEENS_9allocatorIcEEEEEENS_8equal_toIS4_EENS_4hashIS4_EELb1EEELi1ELb1EE5__getB8ne180100Ev, symObjAddr: 0x10138, symBinAddr: 0x1000130C4, symSize: 0x14 }
  - { offset: 0x3CA1C, size: 0x8, addend: 0x0, symName: __ZNSt3__112__hash_tableINS_17__hash_value_typeIPK8TreeNodeNS_12basic_stringIcNS_11char_traitsIcEENS_9allocatorIcEEEEEENS_22__unordered_map_hasherIS4_SB_NS_4hashIS4_EENS_8equal_toIS4_EELb1EEENS_21__unordered_map_equalIS4_SB_SG_SE_Lb1EEENS8_ISB_EEE12__node_allocB8ne180100Ev, symObjAddr: 0x1014C, symBinAddr: 0x1000130D8, symSize: 0x28 }
  - { offset: 0x3CA42, size: 0x8, addend: 0x0, symName: __ZNSt3__116allocator_traitsINS_9allocatorINS_11__hash_nodeINS_17__hash_value_typeIPK8TreeNodeNS_12basic_stringIcNS_11char_traitsIcEENS1_IcEEEEEEPvEEEEE8allocateB8ne180100ERSF_m, symObjAddr: 0x10174, symBinAddr: 0x100013100, symSize: 0x2C }
  - { offset: 0x3CA75, size: 0x8, addend: 0x0, symName: __ZNSt3__122__hash_node_destructorINS_9allocatorINS_11__hash_nodeINS_17__hash_value_typeIPK8TreeNodeNS_12basic_stringIcNS_11char_traitsIcEENS1_IcEEEEEEPvEEEEEC1B8ne180100ERSF_b, symObjAddr: 0x101A0, symBinAddr: 0x10001312C, symSize: 0x48 }
  - { offset: 0x3CAC3, size: 0x8, addend: 0x0, symName: __ZNSt3__110unique_ptrINS_11__hash_nodeINS_17__hash_value_typeIPK8TreeNodeNS_12basic_stringIcNS_11char_traitsIcEENS_9allocatorIcEEEEEEPvEENS_22__hash_node_destructorINS9_ISE_EEEEEC1B8ne180100ILb1EvEEPSE_NS_16__dependent_typeINS_27__unique_ptr_deleter_sfinaeISH_EEXT_EE20__good_rval_ref_typeE, symObjAddr: 0x101E8, symBinAddr: 0x100013174, symSize: 0x3C }
  - { offset: 0x3CB16, size: 0x8, addend: 0x0, symName: __ZNKSt3__110unique_ptrINS_11__hash_nodeINS_17__hash_value_typeIPK8TreeNodeNS_12basic_stringIcNS_11char_traitsIcEENS_9allocatorIcEEEEEEPvEENS_22__hash_node_destructorINS9_ISE_EEEEEdeB8ne180100Ev, symObjAddr: 0x10264, symBinAddr: 0x1000131F0, symSize: 0x28 }
  - { offset: 0x3CB3C, size: 0x8, addend: 0x0, symName: __ZNSt3__116allocator_traitsINS_9allocatorINS_11__hash_nodeINS_17__hash_value_typeIPK8TreeNodeNS_12basic_stringIcNS_11char_traitsIcEENS1_IcEEEEEEPvEEEEE9constructB8ne180100INS_4pairIKS6_SB_EEJRKNS_21piecewise_construct_tENS_5tupleIJRSJ_EEENSO_IJEEEEvEEvRSF_PT_DpOT0_, symObjAddr: 0x1028C, symBinAddr: 0x100013218, symSize: 0x44 }
  - { offset: 0x3CBBB, size: 0x8, addend: 0x0, symName: __ZNSt3__122__hash_key_value_typesINS_17__hash_value_typeIPK8TreeNodeNS_12basic_stringIcNS_11char_traitsIcEENS_9allocatorIcEEEEEEE9__get_ptrB8ne180100ERSB_, symObjAddr: 0x102D0, symBinAddr: 0x10001325C, symSize: 0x24 }
  - { offset: 0x3CBDF, size: 0x8, addend: 0x0, symName: __ZNSt3__110unique_ptrINS_11__hash_nodeINS_17__hash_value_typeIPK8TreeNodeNS_12basic_stringIcNS_11char_traitsIcEENS_9allocatorIcEEEEEEPvEENS_22__hash_node_destructorINS9_ISE_EEEEE11get_deleterB8ne180100Ev, symObjAddr: 0x102F4, symBinAddr: 0x100013280, symSize: 0x24 }
  - { offset: 0x3CC05, size: 0x8, addend: 0x0, symName: __ZNSt3__117__compressed_pairINS_16__hash_node_baseIPNS_11__hash_nodeINS_17__hash_value_typeIPK8TreeNodeNS_12basic_stringIcNS_11char_traitsIcEENS_9allocatorIcEEEEEEPvEEEENSA_ISF_EEE6secondB8ne180100Ev, symObjAddr: 0x10318, symBinAddr: 0x1000132A4, symSize: 0x24 }
  - { offset: 0x3CC2B, size: 0x8, addend: 0x0, symName: __ZNSt3__122__compressed_pair_elemINS_9allocatorINS_11__hash_nodeINS_17__hash_value_typeIPK8TreeNodeNS_12basic_stringIcNS_11char_traitsIcEENS1_IcEEEEEEPvEEEELi1ELb1EE5__getB8ne180100Ev, symObjAddr: 0x1033C, symBinAddr: 0x1000132C8, symSize: 0x14 }
  - { offset: 0x3CC51, size: 0x8, addend: 0x0, symName: __ZNSt3__19allocatorINS_11__hash_nodeINS_17__hash_value_typeIPK8TreeNodeNS_12basic_stringIcNS_11char_traitsIcEENS0_IcEEEEEEPvEEE8allocateB8ne180100Em, symObjAddr: 0x10350, symBinAddr: 0x1000132DC, symSize: 0x5C }
  - { offset: 0x3CC91, size: 0x8, addend: 0x0, symName: __ZNSt3__116allocator_traitsINS_9allocatorINS_11__hash_nodeINS_17__hash_value_typeIPK8TreeNodeNS_12basic_stringIcNS_11char_traitsIcEENS1_IcEEEEEEPvEEEEE8max_sizeB8ne180100ISF_vEEmRKSF_, symObjAddr: 0x103AC, symBinAddr: 0x100013338, symSize: 0x24 }
  - { offset: 0x3CCBF, size: 0x8, addend: 0x0, symName: __ZNKSt3__19allocatorINS_11__hash_nodeINS_17__hash_value_typeIPK8TreeNodeNS_12basic_stringIcNS_11char_traitsIcEENS0_IcEEEEEEPvEEE8max_sizeB8ne180100Ev, symObjAddr: 0x103D0, symBinAddr: 0x10001335C, symSize: 0x18 }
  - { offset: 0x3CCE5, size: 0x8, addend: 0x0, symName: __ZNSt3__122__hash_node_destructorINS_9allocatorINS_11__hash_nodeINS_17__hash_value_typeIPK8TreeNodeNS_12basic_stringIcNS_11char_traitsIcEENS1_IcEEEEEEPvEEEEEC2B8ne180100ERSF_b, symObjAddr: 0x103E8, symBinAddr: 0x100013374, symSize: 0x38 }
  - { offset: 0x3CD2D, size: 0x8, addend: 0x0, symName: __ZNSt3__110unique_ptrINS_11__hash_nodeINS_17__hash_value_typeIPK8TreeNodeNS_12basic_stringIcNS_11char_traitsIcEENS_9allocatorIcEEEEEEPvEENS_22__hash_node_destructorINS9_ISE_EEEEEC2B8ne180100ILb1EvEEPSE_NS_16__dependent_typeINS_27__unique_ptr_deleter_sfinaeISH_EEXT_EE20__good_rval_ref_typeE, symObjAddr: 0x10420, symBinAddr: 0x1000133AC, symSize: 0x48 }
  - { offset: 0x3CD80, size: 0x8, addend: 0x0, symName: __ZNSt3__117__compressed_pairIPNS_11__hash_nodeINS_17__hash_value_typeIPK8TreeNodeNS_12basic_stringIcNS_11char_traitsIcEENS_9allocatorIcEEEEEEPvEENS_22__hash_node_destructorINS9_ISE_EEEEEC1B8ne180100IRSF_SI_EEOT_OT0_, symObjAddr: 0x10468, symBinAddr: 0x1000133F4, symSize: 0x3C }
  - { offset: 0x3CDDA, size: 0x8, addend: 0x0, symName: __ZNSt3__117__compressed_pairIPNS_11__hash_nodeINS_17__hash_value_typeIPK8TreeNodeNS_12basic_stringIcNS_11char_traitsIcEENS_9allocatorIcEEEEEEPvEENS_22__hash_node_destructorINS9_ISE_EEEEEC2B8ne180100IRSF_SI_EEOT_OT0_, symObjAddr: 0x104A4, symBinAddr: 0x100013430, symSize: 0x48 }
  - { offset: 0x3CE34, size: 0x8, addend: 0x0, symName: __ZNSt3__122__compressed_pair_elemIPNS_11__hash_nodeINS_17__hash_value_typeIPK8TreeNodeNS_12basic_stringIcNS_11char_traitsIcEENS_9allocatorIcEEEEEEPvEELi0ELb0EEC2B8ne180100IRSF_vEEOT_, symObjAddr: 0x104EC, symBinAddr: 0x100013478, symSize: 0x24 }
  - { offset: 0x3CE77, size: 0x8, addend: 0x0, symName: __ZNSt3__122__compressed_pair_elemINS_22__hash_node_destructorINS_9allocatorINS_11__hash_nodeINS_17__hash_value_typeIPK8TreeNodeNS_12basic_stringIcNS_11char_traitsIcEENS2_IcEEEEEEPvEEEEEELi1ELb0EEC2B8ne180100ISH_vEEOT_, symObjAddr: 0x10510, symBinAddr: 0x10001349C, symSize: 0x24 }
  - { offset: 0x3CEBA, size: 0x8, addend: 0x0, symName: __ZNSt3__111__hash_nodeINS_17__hash_value_typeIPK8TreeNodeNS_12basic_stringIcNS_11char_traitsIcEENS_9allocatorIcEEEEEEPvEC1B8ne180100EPNS_16__hash_node_baseIPSD_EEm, symObjAddr: 0x10534, symBinAddr: 0x1000134C0, symSize: 0x3C }
  - { offset: 0x3CF02, size: 0x8, addend: 0x0, symName: __ZNSt3__111__hash_nodeINS_17__hash_value_typeIPK8TreeNodeNS_12basic_stringIcNS_11char_traitsIcEENS_9allocatorIcEEEEEEPvEC2B8ne180100EPNS_16__hash_node_baseIPSD_EEm, symObjAddr: 0x10570, symBinAddr: 0x1000134FC, symSize: 0x40 }
  - { offset: 0x3CF4A, size: 0x8, addend: 0x0, symName: __ZNSt3__116__hash_node_baseIPNS_11__hash_nodeINS_17__hash_value_typeIPK8TreeNodeNS_12basic_stringIcNS_11char_traitsIcEENS_9allocatorIcEEEEEEPvEEEC2B8ne180100EPSG_, symObjAddr: 0x105B0, symBinAddr: 0x10001353C, symSize: 0x20 }
  - { offset: 0x3CF83, size: 0x8, addend: 0x0, symName: __ZNKSt3__117__compressed_pairIPNS_11__hash_nodeINS_17__hash_value_typeIPK8TreeNodeNS_12basic_stringIcNS_11char_traitsIcEENS_9allocatorIcEEEEEEPvEENS_22__hash_node_destructorINS9_ISE_EEEEE5firstB8ne180100Ev, symObjAddr: 0x105D0, symBinAddr: 0x10001355C, symSize: 0x24 }
  - { offset: 0x3CFA9, size: 0x8, addend: 0x0, symName: __ZNKSt3__122__compressed_pair_elemIPNS_11__hash_nodeINS_17__hash_value_typeIPK8TreeNodeNS_12basic_stringIcNS_11char_traitsIcEENS_9allocatorIcEEEEEEPvEELi0ELb0EE5__getB8ne180100Ev, symObjAddr: 0x105F4, symBinAddr: 0x100013580, symSize: 0x14 }
  - { offset: 0x3CFCF, size: 0x8, addend: 0x0, symName: __ZNSt3__19allocatorINS_11__hash_nodeINS_17__hash_value_typeIPK8TreeNodeNS_12basic_stringIcNS_11char_traitsIcEENS0_IcEEEEEEPvEEE9constructB8ne180100INS_4pairIKS5_SA_EEJRKNS_21piecewise_construct_tENS_5tupleIJRSH_EEENSM_IJEEEEEEvPT_DpOT0_, symObjAddr: 0x10608, symBinAddr: 0x100013594, symSize: 0x44 }
  - { offset: 0x3D04F, size: 0x8, addend: 0x0, symName: __ZNSt3__14pairIKPK8TreeNodeNS_12basic_stringIcNS_11char_traitsIcEENS_9allocatorIcEEEEEC1B8ne180100IJRS4_EJEEENS_21piecewise_construct_tENS_5tupleIJDpT_EEENSF_IJDpT0_EEE, symObjAddr: 0x1064C, symBinAddr: 0x1000135D8, symSize: 0x44 }
  - { offset: 0x3D0B6, size: 0x8, addend: 0x0, symName: __ZNSt3__14pairIKPK8TreeNodeNS_12basic_stringIcNS_11char_traitsIcEENS_9allocatorIcEEEEEC1B8ne180100IJRS4_EJEJLm0EEJEEENS_21piecewise_construct_tERNS_5tupleIJDpT_EEERNSF_IJDpT0_EEENS_15__tuple_indicesIJXspT1_EEEENSO_IJXspT2_EEEE, symObjAddr: 0x10690, symBinAddr: 0x10001361C, symSize: 0x3C }
  - { offset: 0x3D143, size: 0x8, addend: 0x0, symName: __ZNSt3__14pairIKPK8TreeNodeNS_12basic_stringIcNS_11char_traitsIcEENS_9allocatorIcEEEEEC2B8ne180100IJRS4_EJEJLm0EEJEEENS_21piecewise_construct_tERNS_5tupleIJDpT_EEERNSF_IJDpT0_EEENS_15__tuple_indicesIJXspT1_EEEENSO_IJXspT2_EEEE, symObjAddr: 0x106CC, symBinAddr: 0x100013658, symSize: 0x4C }
  - { offset: 0x3D1D0, size: 0x8, addend: 0x0, symName: __ZNSt3__112__tuple_leafILm0ERKPK8TreeNodeLb0EE3getB8ne180100Ev, symObjAddr: 0x1073C, symBinAddr: 0x1000136C8, symSize: 0x18 }
  - { offset: 0x3D1F6, size: 0x8, addend: 0x0, symName: __ZNSt3__117__compressed_pairIPNS_11__hash_nodeINS_17__hash_value_typeIPK8TreeNodeNS_12basic_stringIcNS_11char_traitsIcEENS_9allocatorIcEEEEEEPvEENS_22__hash_node_destructorINS9_ISE_EEEEE6secondB8ne180100Ev, symObjAddr: 0x10754, symBinAddr: 0x1000136E0, symSize: 0x28 }
  - { offset: 0x3D21C, size: 0x8, addend: 0x0, symName: __ZNSt3__122__compressed_pair_elemINS_22__hash_node_destructorINS_9allocatorINS_11__hash_nodeINS_17__hash_value_typeIPK8TreeNodeNS_12basic_stringIcNS_11char_traitsIcEENS2_IcEEEEEEPvEEEEEELi1ELb0EE5__getB8ne180100Ev, symObjAddr: 0x1077C, symBinAddr: 0x100013708, symSize: 0x14 }
  - { offset: 0x3D242, size: 0x8, addend: 0x0, symName: __ZNSt3__117__compressed_pairImNS_22__unordered_map_hasherIPK8TreeNodeNS_17__hash_value_typeIS4_NS_12basic_stringIcNS_11char_traitsIcEENS_9allocatorIcEEEEEENS_4hashIS4_EENS_8equal_toIS4_EELb1EEEE5firstB8ne180100Ev, symObjAddr: 0x10790, symBinAddr: 0x10001371C, symSize: 0x24 }
  - { offset: 0x3D268, size: 0x8, addend: 0x0, symName: __ZNSt3__117__compressed_pairIfNS_21__unordered_map_equalIPK8TreeNodeNS_17__hash_value_typeIS4_NS_12basic_stringIcNS_11char_traitsIcEENS_9allocatorIcEEEEEENS_8equal_toIS4_EENS_4hashIS4_EELb1EEEE5firstB8ne180100Ev, symObjAddr: 0x107B4, symBinAddr: 0x100013740, symSize: 0x24 }
  - { offset: 0x3D28E, size: 0x8, addend: 0x0, symName: __ZNSt3__122__compressed_pair_elemIfLi0ELb0EE5__getB8ne180100Ev, symObjAddr: 0x107D8, symBinAddr: 0x100013764, symSize: 0x14 }
  - { offset: 0x3D2B4, size: 0x8, addend: 0x0, symName: __ZNSt3__112__hash_tableINS_17__hash_value_typeIPK8TreeNodeNS_12basic_stringIcNS_11char_traitsIcEENS_9allocatorIcEEEEEENS_22__unordered_map_hasherIS4_SB_NS_4hashIS4_EENS_8equal_toIS4_EELb1EEENS_21__unordered_map_equalIS4_SB_SG_SE_Lb1EEENS8_ISB_EEE8__rehashILb1EEEvm, symObjAddr: 0x107EC, symBinAddr: 0x100013778, symSize: 0x1A8 }
  - { offset: 0x3D304, size: 0x8, addend: 0x0, symName: __ZNSt3__112__hash_tableINS_17__hash_value_typeIPK8TreeNodeNS_12basic_stringIcNS_11char_traitsIcEENS_9allocatorIcEEEEEENS_22__unordered_map_hasherIS4_SB_NS_4hashIS4_EENS_8equal_toIS4_EELb1EEENS_21__unordered_map_equalIS4_SB_SG_SE_Lb1EEENS8_ISB_EEE11__do_rehashILb1EEEvm, symObjAddr: 0x10994, symBinAddr: 0x100013920, symSize: 0x288 }
  - { offset: 0x3D3EB, size: 0x8, addend: 0x0, symName: __ZNSt3__110unique_ptrIA_PNS_16__hash_node_baseIPNS_11__hash_nodeINS_17__hash_value_typeIPK8TreeNodeNS_12basic_stringIcNS_11char_traitsIcEENS_9allocatorIcEEEEEEPvEEEENS_25__bucket_list_deallocatorINSA_ISI_EEEEE11get_deleterB8ne180100Ev, symObjAddr: 0x10C88, symBinAddr: 0x100013C14, symSize: 0x24 }
  - { offset: 0x3D411, size: 0x8, addend: 0x0, symName: __ZNSt3__125__bucket_list_deallocatorINS_9allocatorIPNS_16__hash_node_baseIPNS_11__hash_nodeINS_17__hash_value_typeIPK8TreeNodeNS_12basic_stringIcNS_11char_traitsIcEENS1_IcEEEEEEPvEEEEEEE7__allocB8ne180100Ev, symObjAddr: 0x10CAC, symBinAddr: 0x100013C38, symSize: 0x24 }
  - { offset: 0x3D437, size: 0x8, addend: 0x0, symName: __ZNSt3__110unique_ptrIA_PNS_16__hash_node_baseIPNS_11__hash_nodeINS_17__hash_value_typeIPK8TreeNodeNS_12basic_stringIcNS_11char_traitsIcEENS_9allocatorIcEEEEEEPvEEEENS_25__bucket_list_deallocatorINSA_ISI_EEEEE5resetB8ne180100IPSI_Li0EEEvT_, symObjAddr: 0x10CD0, symBinAddr: 0x100013C5C, symSize: 0x78 }
  - { offset: 0x3D48A, size: 0x8, addend: 0x0, symName: __ZNSt3__116allocator_traitsINS_9allocatorIPNS_16__hash_node_baseIPNS_11__hash_nodeINS_17__hash_value_typeIPK8TreeNodeNS_12basic_stringIcNS_11char_traitsIcEENS1_IcEEEEEEPvEEEEEEE8allocateB8ne180100ERSJ_m, symObjAddr: 0x10D48, symBinAddr: 0x100013CD4, symSize: 0x2C }
  - { offset: 0x3D4BD, size: 0x8, addend: 0x0, symName: __ZNSt3__125__bucket_list_deallocatorINS_9allocatorIPNS_16__hash_node_baseIPNS_11__hash_nodeINS_17__hash_value_typeIPK8TreeNodeNS_12basic_stringIcNS_11char_traitsIcEENS1_IcEEEEEEPvEEEEEEE4sizeB8ne180100Ev, symObjAddr: 0x10D74, symBinAddr: 0x100013D00, symSize: 0x24 }
  - { offset: 0x3D4E3, size: 0x8, addend: 0x0, symName: __ZNSt3__117__compressed_pairIPPNS_16__hash_node_baseIPNS_11__hash_nodeINS_17__hash_value_typeIPK8TreeNodeNS_12basic_stringIcNS_11char_traitsIcEENS_9allocatorIcEEEEEEPvEEEENS_25__bucket_list_deallocatorINSA_ISI_EEEEE6secondB8ne180100Ev, symObjAddr: 0x10D98, symBinAddr: 0x100013D24, symSize: 0x28 }
  - { offset: 0x3D509, size: 0x8, addend: 0x0, symName: __ZNSt3__122__compressed_pair_elemINS_25__bucket_list_deallocatorINS_9allocatorIPNS_16__hash_node_baseIPNS_11__hash_nodeINS_17__hash_value_typeIPK8TreeNodeNS_12basic_stringIcNS_11char_traitsIcEENS2_IcEEEEEEPvEEEEEEEELi1ELb0EE5__getB8ne180100Ev, symObjAddr: 0x10DC0, symBinAddr: 0x100013D4C, symSize: 0x14 }
  - { offset: 0x3D52F, size: 0x8, addend: 0x0, symName: __ZNSt3__117__compressed_pairImNS_9allocatorIPNS_16__hash_node_baseIPNS_11__hash_nodeINS_17__hash_value_typeIPK8TreeNodeNS_12basic_stringIcNS_11char_traitsIcEENS1_IcEEEEEEPvEEEEEEE6secondB8ne180100Ev, symObjAddr: 0x10DD4, symBinAddr: 0x100013D60, symSize: 0x24 }
  - { offset: 0x3D555, size: 0x8, addend: 0x0, symName: __ZNSt3__122__compressed_pair_elemINS_9allocatorIPNS_16__hash_node_baseIPNS_11__hash_nodeINS_17__hash_value_typeIPK8TreeNodeNS_12basic_stringIcNS_11char_traitsIcEENS1_IcEEEEEEPvEEEEEELi1ELb1EE5__getB8ne180100Ev, symObjAddr: 0x10DF8, symBinAddr: 0x100013D84, symSize: 0x14 }
  - { offset: 0x3D57B, size: 0x8, addend: 0x0, symName: __ZNSt3__117__compressed_pairIPPNS_16__hash_node_baseIPNS_11__hash_nodeINS_17__hash_value_typeIPK8TreeNodeNS_12basic_stringIcNS_11char_traitsIcEENS_9allocatorIcEEEEEEPvEEEENS_25__bucket_list_deallocatorINSA_ISI_EEEEE5firstB8ne180100Ev, symObjAddr: 0x10E0C, symBinAddr: 0x100013D98, symSize: 0x24 }
  - { offset: 0x3D5A1, size: 0x8, addend: 0x0, symName: __ZNSt3__125__bucket_list_deallocatorINS_9allocatorIPNS_16__hash_node_baseIPNS_11__hash_nodeINS_17__hash_value_typeIPK8TreeNodeNS_12basic_stringIcNS_11char_traitsIcEENS1_IcEEEEEEPvEEEEEEEclB8ne180100EPSI_, symObjAddr: 0x10E30, symBinAddr: 0x100013DBC, symSize: 0x58 }
  - { offset: 0x3D5D6, size: 0x8, addend: 0x0, symName: __ZNSt3__122__compressed_pair_elemIPPNS_16__hash_node_baseIPNS_11__hash_nodeINS_17__hash_value_typeIPK8TreeNodeNS_12basic_stringIcNS_11char_traitsIcEENS_9allocatorIcEEEEEEPvEEEELi0ELb0EE5__getB8ne180100Ev, symObjAddr: 0x10E88, symBinAddr: 0x100013E14, symSize: 0x14 }
  - { offset: 0x3D5FC, size: 0x8, addend: 0x0, symName: __ZNSt3__116allocator_traitsINS_9allocatorIPNS_16__hash_node_baseIPNS_11__hash_nodeINS_17__hash_value_typeIPK8TreeNodeNS_12basic_stringIcNS_11char_traitsIcEENS1_IcEEEEEEPvEEEEEEE10deallocateB8ne180100ERSJ_PSI_m, symObjAddr: 0x10E9C, symBinAddr: 0x100013E28, symSize: 0x34 }
  - { offset: 0x3D63E, size: 0x8, addend: 0x0, symName: __ZNSt3__19allocatorIPNS_16__hash_node_baseIPNS_11__hash_nodeINS_17__hash_value_typeIPK8TreeNodeNS_12basic_stringIcNS_11char_traitsIcEENS0_IcEEEEEEPvEEEEE10deallocateB8ne180100EPSH_m, symObjAddr: 0x10ED0, symBinAddr: 0x100013E5C, symSize: 0x40 }
  - { offset: 0x3D682, size: 0x8, addend: 0x0, symName: __ZNSt3__19allocatorIPNS_16__hash_node_baseIPNS_11__hash_nodeINS_17__hash_value_typeIPK8TreeNodeNS_12basic_stringIcNS_11char_traitsIcEENS0_IcEEEEEEPvEEEEE8allocateB8ne180100Em, symObjAddr: 0x10F10, symBinAddr: 0x100013E9C, symSize: 0x58 }
  - { offset: 0x3D6C2, size: 0x8, addend: 0x0, symName: __ZNSt3__116allocator_traitsINS_9allocatorIPNS_16__hash_node_baseIPNS_11__hash_nodeINS_17__hash_value_typeIPK8TreeNodeNS_12basic_stringIcNS_11char_traitsIcEENS1_IcEEEEEEPvEEEEEEE8max_sizeB8ne180100ISJ_vEEmRKSJ_, symObjAddr: 0x10F68, symBinAddr: 0x100013EF4, symSize: 0x24 }
  - { offset: 0x3D6F0, size: 0x8, addend: 0x0, symName: __ZNKSt3__19allocatorIPNS_16__hash_node_baseIPNS_11__hash_nodeINS_17__hash_value_typeIPK8TreeNodeNS_12basic_stringIcNS_11char_traitsIcEENS0_IcEEEEEEPvEEEEE8max_sizeB8ne180100Ev, symObjAddr: 0x10F8C, symBinAddr: 0x100013F18, symSize: 0x14 }
  - { offset: 0x3D716, size: 0x8, addend: 0x0, symName: __ZNSt3__117__compressed_pairImNS_9allocatorIPNS_16__hash_node_baseIPNS_11__hash_nodeINS_17__hash_value_typeIPK8TreeNodeNS_12basic_stringIcNS_11char_traitsIcEENS1_IcEEEEEEPvEEEEEEE5firstB8ne180100Ev, symObjAddr: 0x10FA0, symBinAddr: 0x100013F2C, symSize: 0x24 }
  - { offset: 0x3D73C, size: 0x8, addend: 0x0, symName: __ZNSt3__122__compressed_pair_elemINS_16__hash_node_baseIPNS_11__hash_nodeINS_17__hash_value_typeIPK8TreeNodeNS_12basic_stringIcNS_11char_traitsIcEENS_9allocatorIcEEEEEEPvEEEELi0ELb0EE5__getB8ne180100Ev, symObjAddr: 0x10FE0, symBinAddr: 0x100013F6C, symSize: 0x14 }
  - { offset: 0x3D762, size: 0x8, addend: 0x0, symName: __ZNSt3__117__compressed_pairIPNS_11__hash_nodeINS_17__hash_value_typeIPK8TreeNodeNS_12basic_stringIcNS_11char_traitsIcEENS_9allocatorIcEEEEEEPvEENS_22__hash_node_destructorINS9_ISE_EEEEE5firstB8ne180100Ev, symObjAddr: 0x10FF4, symBinAddr: 0x100013F80, symSize: 0x24 }
  - { offset: 0x3D788, size: 0x8, addend: 0x0, symName: __ZNSt3__122__compressed_pair_elemIPNS_11__hash_nodeINS_17__hash_value_typeIPK8TreeNodeNS_12basic_stringIcNS_11char_traitsIcEENS_9allocatorIcEEEEEEPvEELi0ELb0EE5__getB8ne180100Ev, symObjAddr: 0x11018, symBinAddr: 0x100013FA4, symSize: 0x14 }
  - { offset: 0x3D7AE, size: 0x8, addend: 0x0, symName: __ZNSt3__110unique_ptrINS_11__hash_nodeINS_17__hash_value_typeIPK8TreeNodeNS_12basic_stringIcNS_11char_traitsIcEENS_9allocatorIcEEEEEEPvEENS_22__hash_node_destructorINS9_ISE_EEEEED2B8ne180100Ev, symObjAddr: 0x1102C, symBinAddr: 0x100013FB8, symSize: 0x30 }
  - { offset: 0x3D7D8, size: 0x8, addend: 0x0, symName: __ZNSt3__110unique_ptrINS_11__hash_nodeINS_17__hash_value_typeIPK8TreeNodeNS_12basic_stringIcNS_11char_traitsIcEENS_9allocatorIcEEEEEEPvEENS_22__hash_node_destructorINS9_ISE_EEEEE5resetB8ne180100EPSE_, symObjAddr: 0x1105C, symBinAddr: 0x100013FE8, symSize: 0x78 }
  - { offset: 0x3D81C, size: 0x8, addend: 0x0, symName: __ZNSt3__122__hash_node_destructorINS_9allocatorINS_11__hash_nodeINS_17__hash_value_typeIPK8TreeNodeNS_12basic_stringIcNS_11char_traitsIcEENS1_IcEEEEEEPvEEEEEclB8ne180100EPSE_, symObjAddr: 0x110D4, symBinAddr: 0x100014060, symSize: 0xA4 }
  - { offset: 0x3D851, size: 0x8, addend: 0x0, symName: __ZNSt3__116allocator_traitsINS_9allocatorINS_11__hash_nodeINS_17__hash_value_typeIPK8TreeNodeNS_12basic_stringIcNS_11char_traitsIcEENS1_IcEEEEEEPvEEEEE7destroyB8ne180100INS_4pairIKS6_SB_EEvvEEvRSF_PT_, symObjAddr: 0x11178, symBinAddr: 0x100014104, symSize: 0x28 }
  - { offset: 0x3D88B, size: 0x8, addend: 0x0, symName: __ZNSt3__116allocator_traitsINS_9allocatorINS_11__hash_nodeINS_17__hash_value_typeIPK8TreeNodeNS_12basic_stringIcNS_11char_traitsIcEENS1_IcEEEEEEPvEEEEE10deallocateB8ne180100ERSF_PSE_m, symObjAddr: 0x111C4, symBinAddr: 0x100014150, symSize: 0x34 }
  - { offset: 0x3D8CD, size: 0x8, addend: 0x0, symName: __ZNSt3__14pairIKPK8TreeNodeNS_12basic_stringIcNS_11char_traitsIcEENS_9allocatorIcEEEEED1Ev, symObjAddr: 0x1121C, symBinAddr: 0x1000141A8, symSize: 0x2C }
  - { offset: 0x3D8F9, size: 0x8, addend: 0x0, symName: __ZNSt3__14pairIKPK8TreeNodeNS_12basic_stringIcNS_11char_traitsIcEENS_9allocatorIcEEEEED2Ev, symObjAddr: 0x11248, symBinAddr: 0x1000141D4, symSize: 0x30 }
  - { offset: 0x3D925, size: 0x8, addend: 0x0, symName: __ZNSt3__111__hash_nodeINS_17__hash_value_typeIPK8TreeNodeNS_12basic_stringIcNS_11char_traitsIcEENS_9allocatorIcEEEEEEPvED1B8ne180100Ev, symObjAddr: 0x11278, symBinAddr: 0x100014204, symSize: 0x2C }
  - { offset: 0x3D94F, size: 0x8, addend: 0x0, symName: __ZNSt3__111__hash_nodeINS_17__hash_value_typeIPK8TreeNodeNS_12basic_stringIcNS_11char_traitsIcEENS_9allocatorIcEEEEEEPvED2B8ne180100Ev, symObjAddr: 0x112A4, symBinAddr: 0x100014230, symSize: 0x14 }
  - { offset: 0x3D979, size: 0x8, addend: 0x0, symName: __ZNSt3__19allocatorINS_11__hash_nodeINS_17__hash_value_typeIPK8TreeNodeNS_12basic_stringIcNS_11char_traitsIcEENS0_IcEEEEEEPvEEE10deallocateB8ne180100EPSD_m, symObjAddr: 0x112B8, symBinAddr: 0x100014244, symSize: 0x44 }
  - { offset: 0x3D9BD, size: 0x8, addend: 0x0, symName: __ZNSt3__115__hash_iteratorIPNS_11__hash_nodeINS_17__hash_value_typeIPK8TreeNodeNS_12basic_stringIcNS_11char_traitsIcEENS_9allocatorIcEEEEEEPvEEEC2B8ne180100EPNS_16__hash_node_baseISF_EE, symObjAddr: 0x112FC, symBinAddr: 0x100014288, symSize: 0x20 }
  - { offset: 0x3D9F6, size: 0x8, addend: 0x0, symName: __ZNSt3__14pairINS_15__hash_iteratorIPNS_11__hash_nodeINS_17__hash_value_typeIPK8TreeNodeNS_12basic_stringIcNS_11char_traitsIcEENS_9allocatorIcEEEEEEPvEEEEbEC2B8ne180100ISH_RbLi0EEEOT_OT0_, symObjAddr: 0x1131C, symBinAddr: 0x1000142A8, symSize: 0x38 }
  - { offset: 0x3DA56, size: 0x8, addend: 0x0, symName: __ZNSt3__15tupleIJRKPK8TreeNodeEEC1B8ne180100INS_4_AndELi0EEES5_, symObjAddr: 0x11354, symBinAddr: 0x1000142E0, symSize: 0x34 }
  - { offset: 0x3DA9E, size: 0x8, addend: 0x0, symName: __ZNSt3__15tupleIJRKPK8TreeNodeEEC2B8ne180100INS_4_AndELi0EEES5_, symObjAddr: 0x11388, symBinAddr: 0x100014314, symSize: 0x34 }
  - { offset: 0x3DAE6, size: 0x8, addend: 0x0, symName: __ZNSt3__112__tuple_implINS_15__tuple_indicesIJLm0EEEEJRKPK8TreeNodeEEC1B8ne180100IJLm0EEJS7_EJEJEJS7_EEENS1_IJXspT_EEEENS_13__tuple_typesIJDpT0_EEENS1_IJXspT1_EEEENSB_IJDpT2_EEEDpOT3_, symObjAddr: 0x113BC, symBinAddr: 0x100014348, symSize: 0x34 }
  - { offset: 0x3DB77, size: 0x8, addend: 0x0, symName: __ZNSt3__112__tuple_implINS_15__tuple_indicesIJLm0EEEEJRKPK8TreeNodeEEC2B8ne180100IJLm0EEJS7_EJEJEJS7_EEENS1_IJXspT_EEEENS_13__tuple_typesIJDpT0_EEENS1_IJXspT1_EEEENSB_IJDpT2_EEEDpOT3_, symObjAddr: 0x113F0, symBinAddr: 0x10001437C, symSize: 0x34 }
  - { offset: 0x3DC08, size: 0x8, addend: 0x0, symName: __ZNSt3__112__tuple_leafILm0ERKPK8TreeNodeLb0EEC2B8ne180100IS5_vEEOT_, symObjAddr: 0x11424, symBinAddr: 0x1000143B0, symSize: 0x20 }
  - { offset: 0x3DC4B, size: 0x8, addend: 0x0, symName: __ZNSt3__114pointer_traitsIPNS_17__hash_value_typeIPK8TreeNodeNS_12basic_stringIcNS_11char_traitsIcEENS_9allocatorIcEEEEEEE10pointer_toB8ne180100ERSB_, symObjAddr: 0x11444, symBinAddr: 0x1000143D0, symSize: 0x14 }
  - { offset: 0x3DC6F, size: 0x8, addend: 0x0, symName: __ZNSt3__19basic_iosIcNS_11char_traitsIcEEEC2B8ne180100Ev, symObjAddr: 0x11490, symBinAddr: 0x10001441C, symSize: 0x3C }
  - { offset: 0x3DC99, size: 0x8, addend: 0x0, symName: __ZNSt3__113basic_ostreamIcNS_11char_traitsIcEEEC2B8ne180100EPNS_15basic_streambufIcS2_EE, symObjAddr: 0x114CC, symBinAddr: 0x100014458, symSize: 0x60 }
  - { offset: 0x3DCDF, size: 0x8, addend: 0x0, symName: __ZNSt3__115basic_stringbufIcNS_11char_traitsIcEENS_9allocatorIcEEEC1B8ne180100Ej, symObjAddr: 0x1152C, symBinAddr: 0x1000144B8, symSize: 0x34 }
  - { offset: 0x3DD18, size: 0x8, addend: 0x0, symName: __ZNSt3__18ios_baseC2B8ne180100Ev, symObjAddr: 0x11560, symBinAddr: 0x1000144EC, symSize: 0x24 }
  - { offset: 0x3DD42, size: 0x8, addend: 0x0, symName: __ZNSt3__19basic_iosIcNS_11char_traitsIcEEE4initB8ne180100EPNS_15basic_streambufIcS2_EE, symObjAddr: 0x11584, symBinAddr: 0x100014510, symSize: 0x44 }
  - { offset: 0x3DD79, size: 0x8, addend: 0x0, symName: __ZNSt3__115basic_stringbufIcNS_11char_traitsIcEENS_9allocatorIcEEEC2B8ne180100Ej, symObjAddr: 0x115C8, symBinAddr: 0x100014554, symSize: 0x58 }
  - { offset: 0x3DDB2, size: 0x8, addend: 0x0, symName: __ZNSt3__113basic_filebufIcNS_11char_traitsIcEEE4openERKNS_12basic_stringIcS2_NS_9allocatorIcEEEEj, symObjAddr: 0x11620, symBinAddr: 0x1000145AC, symSize: 0x44 }
  - { offset: 0x3DDF8, size: 0x8, addend: 0x0, symName: __ZNKSt3__19basic_iosIcNS_11char_traitsIcEEE4failB8ne180100Ev, symObjAddr: 0x11664, symBinAddr: 0x1000145F0, symSize: 0x28 }
  - { offset: 0x3DE1E, size: 0x8, addend: 0x0, symName: __ZNKSt3__18ios_base4failB8ne180100Ev, symObjAddr: 0x1168C, symBinAddr: 0x100014618, symSize: 0x28 }
  - { offset: 0x3DE46, size: 0x8, addend: 0x0, symName: __ZNSt3__113unordered_mapIPK8TreeNodeNS_12basic_stringIcNS_11char_traitsIcEENS_9allocatorIcEEEENS_4hashIS3_EENS_8equal_toIS3_EENS7_INS_4pairIKS3_S9_EEEEEC2B8ne180100Ev, symObjAddr: 0x116B4, symBinAddr: 0x100014640, symSize: 0x2C }
  - { offset: 0x3DE70, size: 0x8, addend: 0x0, symName: __ZNSt3__112__hash_tableINS_17__hash_value_typeIPK8TreeNodeNS_12basic_stringIcNS_11char_traitsIcEENS_9allocatorIcEEEEEENS_22__unordered_map_hasherIS4_SB_NS_4hashIS4_EENS_8equal_toIS4_EELb1EEENS_21__unordered_map_equalIS4_SB_SG_SE_Lb1EEENS8_ISB_EEEC1Ev, symObjAddr: 0x116E0, symBinAddr: 0x10001466C, symSize: 0x2C }
  - { offset: 0x3DE9C, size: 0x8, addend: 0x0, symName: __ZNSt3__112__hash_tableINS_17__hash_value_typeIPK8TreeNodeNS_12basic_stringIcNS_11char_traitsIcEENS_9allocatorIcEEEEEENS_22__unordered_map_hasherIS4_SB_NS_4hashIS4_EENS_8equal_toIS4_EELb1EEENS_21__unordered_map_equalIS4_SB_SG_SE_Lb1EEENS8_ISB_EEEC2Ev, symObjAddr: 0x1170C, symBinAddr: 0x100014698, symSize: 0x7C }
  - { offset: 0x3DEC8, size: 0x8, addend: 0x0, symName: __ZNSt3__110unique_ptrIA_PNS_16__hash_node_baseIPNS_11__hash_nodeINS_17__hash_value_typeIPK8TreeNodeNS_12basic_stringIcNS_11char_traitsIcEENS_9allocatorIcEEEEEEPvEEEENS_25__bucket_list_deallocatorINSA_ISI_EEEEEC1B8ne180100ILb1EvEEv, symObjAddr: 0x11788, symBinAddr: 0x100014714, symSize: 0x2C }
  - { offset: 0x3DEFD, size: 0x8, addend: 0x0, symName: __ZNSt3__117__compressed_pairINS_16__hash_node_baseIPNS_11__hash_nodeINS_17__hash_value_typeIPK8TreeNodeNS_12basic_stringIcNS_11char_traitsIcEENS_9allocatorIcEEEEEEPvEEEENSA_ISF_EEEC1B8ne180100ILb1EvEEv, symObjAddr: 0x117B4, symBinAddr: 0x100014740, symSize: 0x2C }
  - { offset: 0x3DF32, size: 0x8, addend: 0x0, symName: __ZNSt3__117__compressed_pairImNS_22__unordered_map_hasherIPK8TreeNodeNS_17__hash_value_typeIS4_NS_12basic_stringIcNS_11char_traitsIcEENS_9allocatorIcEEEEEENS_4hashIS4_EENS_8equal_toIS4_EELb1EEEEC1B8ne180100IiNS_18__default_init_tagEEEOT_OT0_, symObjAddr: 0x117E0, symBinAddr: 0x10001476C, symSize: 0x3C }
  - { offset: 0x3DF92, size: 0x8, addend: 0x0, symName: __ZNSt3__117__compressed_pairIfNS_21__unordered_map_equalIPK8TreeNodeNS_17__hash_value_typeIS4_NS_12basic_stringIcNS_11char_traitsIcEENS_9allocatorIcEEEEEENS_8equal_toIS4_EENS_4hashIS4_EELb1EEEEC1B8ne180100IfNS_18__default_init_tagEEEOT_OT0_, symObjAddr: 0x1181C, symBinAddr: 0x1000147A8, symSize: 0x3C }
  - { offset: 0x3DFEC, size: 0x8, addend: 0x0, symName: __ZNSt3__110unique_ptrIA_PNS_16__hash_node_baseIPNS_11__hash_nodeINS_17__hash_value_typeIPK8TreeNodeNS_12basic_stringIcNS_11char_traitsIcEENS_9allocatorIcEEEEEEPvEEEENS_25__bucket_list_deallocatorINSA_ISI_EEEEEC2B8ne180100ILb1EvEEv, symObjAddr: 0x11858, symBinAddr: 0x1000147E4, symSize: 0x3C }
  - { offset: 0x3E021, size: 0x8, addend: 0x0, symName: __ZNSt3__117__compressed_pairIPPNS_16__hash_node_baseIPNS_11__hash_nodeINS_17__hash_value_typeIPK8TreeNodeNS_12basic_stringIcNS_11char_traitsIcEENS_9allocatorIcEEEEEEPvEEEENS_25__bucket_list_deallocatorINSA_ISI_EEEEEC1B8ne180100INS_16__value_init_tagESP_EEOT_OT0_, symObjAddr: 0x11894, symBinAddr: 0x100014820, symSize: 0x3C }
  - { offset: 0x3E07B, size: 0x8, addend: 0x0, symName: __ZNSt3__117__compressed_pairIPPNS_16__hash_node_baseIPNS_11__hash_nodeINS_17__hash_value_typeIPK8TreeNodeNS_12basic_stringIcNS_11char_traitsIcEENS_9allocatorIcEEEEEEPvEEEENS_25__bucket_list_deallocatorINSA_ISI_EEEEEC2B8ne180100INS_16__value_init_tagESP_EEOT_OT0_, symObjAddr: 0x118D0, symBinAddr: 0x10001485C, symSize: 0x40 }
  - { offset: 0x3E0D5, size: 0x8, addend: 0x0, symName: __ZNSt3__122__compressed_pair_elemIPPNS_16__hash_node_baseIPNS_11__hash_nodeINS_17__hash_value_typeIPK8TreeNodeNS_12basic_stringIcNS_11char_traitsIcEENS_9allocatorIcEEEEEEPvEEEELi0ELb0EEC2B8ne180100ENS_16__value_init_tagE, symObjAddr: 0x11910, symBinAddr: 0x10001489C, symSize: 0x18 }
  - { offset: 0x3E10A, size: 0x8, addend: 0x0, symName: __ZNSt3__122__compressed_pair_elemINS_25__bucket_list_deallocatorINS_9allocatorIPNS_16__hash_node_baseIPNS_11__hash_nodeINS_17__hash_value_typeIPK8TreeNodeNS_12basic_stringIcNS_11char_traitsIcEENS2_IcEEEEEEPvEEEEEEEELi1ELb0EEC2B8ne180100ENS_16__value_init_tagE, symObjAddr: 0x11928, symBinAddr: 0x1000148B4, symSize: 0x2C }
  - { offset: 0x3E13F, size: 0x8, addend: 0x0, symName: __ZNSt3__125__bucket_list_deallocatorINS_9allocatorIPNS_16__hash_node_baseIPNS_11__hash_nodeINS_17__hash_value_typeIPK8TreeNodeNS_12basic_stringIcNS_11char_traitsIcEENS1_IcEEEEEEPvEEEEEEEC1B8ne180100Ev, symObjAddr: 0x11954, symBinAddr: 0x1000148E0, symSize: 0x2C }
  - { offset: 0x3E169, size: 0x8, addend: 0x0, symName: __ZNSt3__125__bucket_list_deallocatorINS_9allocatorIPNS_16__hash_node_baseIPNS_11__hash_nodeINS_17__hash_value_typeIPK8TreeNodeNS_12basic_stringIcNS_11char_traitsIcEENS1_IcEEEEEEPvEEEEEEEC2B8ne180100Ev, symObjAddr: 0x11980, symBinAddr: 0x10001490C, symSize: 0x40 }
  - { offset: 0x3E193, size: 0x8, addend: 0x0, symName: __ZNSt3__117__compressed_pairImNS_9allocatorIPNS_16__hash_node_baseIPNS_11__hash_nodeINS_17__hash_value_typeIPK8TreeNodeNS_12basic_stringIcNS_11char_traitsIcEENS1_IcEEEEEEPvEEEEEEEC1B8ne180100IiNS_18__default_init_tagEEEOT_OT0_, symObjAddr: 0x119C0, symBinAddr: 0x10001494C, symSize: 0x3C }
  - { offset: 0x3E1ED, size: 0x8, addend: 0x0, symName: __ZNSt3__117__compressed_pairImNS_9allocatorIPNS_16__hash_node_baseIPNS_11__hash_nodeINS_17__hash_value_typeIPK8TreeNodeNS_12basic_stringIcNS_11char_traitsIcEENS1_IcEEEEEEPvEEEEEEEC2B8ne180100IiNS_18__default_init_tagEEEOT_OT0_, symObjAddr: 0x119FC, symBinAddr: 0x100014988, symSize: 0x40 }
  - { offset: 0x3E247, size: 0x8, addend: 0x0, symName: __ZNSt3__122__compressed_pair_elemImLi0ELb0EEC2B8ne180100IivEEOT_, symObjAddr: 0x11A3C, symBinAddr: 0x1000149C8, symSize: 0x24 }
  - { offset: 0x3E28A, size: 0x8, addend: 0x0, symName: __ZNSt3__122__compressed_pair_elemINS_9allocatorIPNS_16__hash_node_baseIPNS_11__hash_nodeINS_17__hash_value_typeIPK8TreeNodeNS_12basic_stringIcNS_11char_traitsIcEENS1_IcEEEEEEPvEEEEEELi1ELb1EEC2B8ne180100ENS_18__default_init_tagE, symObjAddr: 0x11A60, symBinAddr: 0x1000149EC, symSize: 0x2C }
  - { offset: 0x3E2BF, size: 0x8, addend: 0x0, symName: __ZNSt3__19allocatorIPNS_16__hash_node_baseIPNS_11__hash_nodeINS_17__hash_value_typeIPK8TreeNodeNS_12basic_stringIcNS_11char_traitsIcEENS0_IcEEEEEEPvEEEEEC2B8ne180100Ev, symObjAddr: 0x11A8C, symBinAddr: 0x100014A18, symSize: 0x2C }
  - { offset: 0x3E2E9, size: 0x8, addend: 0x0, symName: __ZNSt3__116__non_trivial_ifILb1ENS_9allocatorIPNS_16__hash_node_baseIPNS_11__hash_nodeINS_17__hash_value_typeIPK8TreeNodeNS_12basic_stringIcNS_11char_traitsIcEENS1_IcEEEEEEPvEEEEEEEC2B8ne180100Ev, symObjAddr: 0x11AB8, symBinAddr: 0x100014A44, symSize: 0x14 }
  - { offset: 0x3E313, size: 0x8, addend: 0x0, symName: __ZNSt3__117__compressed_pairINS_16__hash_node_baseIPNS_11__hash_nodeINS_17__hash_value_typeIPK8TreeNodeNS_12basic_stringIcNS_11char_traitsIcEENS_9allocatorIcEEEEEEPvEEEENSA_ISF_EEEC2B8ne180100ILb1EvEEv, symObjAddr: 0x11ACC, symBinAddr: 0x100014A58, symSize: 0x34 }
  - { offset: 0x3E348, size: 0x8, addend: 0x0, symName: __ZNSt3__122__compressed_pair_elemINS_16__hash_node_baseIPNS_11__hash_nodeINS_17__hash_value_typeIPK8TreeNodeNS_12basic_stringIcNS_11char_traitsIcEENS_9allocatorIcEEEEEEPvEEEELi0ELb0EEC2B8ne180100ENS_16__value_init_tagE, symObjAddr: 0x11B00, symBinAddr: 0x100014A8C, symSize: 0x2C }
  - { offset: 0x3E37D, size: 0x8, addend: 0x0, symName: __ZNSt3__122__compressed_pair_elemINS_9allocatorINS_11__hash_nodeINS_17__hash_value_typeIPK8TreeNodeNS_12basic_stringIcNS_11char_traitsIcEENS1_IcEEEEEEPvEEEELi1ELb1EEC2B8ne180100ENS_16__value_init_tagE, symObjAddr: 0x11B2C, symBinAddr: 0x100014AB8, symSize: 0x2C }
  - { offset: 0x3E3B2, size: 0x8, addend: 0x0, symName: __ZNSt3__116__hash_node_baseIPNS_11__hash_nodeINS_17__hash_value_typeIPK8TreeNodeNS_12basic_stringIcNS_11char_traitsIcEENS_9allocatorIcEEEEEEPvEEEC1B8ne180100Ev, symObjAddr: 0x11B58, symBinAddr: 0x100014AE4, symSize: 0x2C }
  - { offset: 0x3E3DC, size: 0x8, addend: 0x0, symName: __ZNSt3__116__hash_node_baseIPNS_11__hash_nodeINS_17__hash_value_typeIPK8TreeNodeNS_12basic_stringIcNS_11char_traitsIcEENS_9allocatorIcEEEEEEPvEEEC2B8ne180100Ev, symObjAddr: 0x11B84, symBinAddr: 0x100014B10, symSize: 0x18 }
  - { offset: 0x3E406, size: 0x8, addend: 0x0, symName: __ZNSt3__19allocatorINS_11__hash_nodeINS_17__hash_value_typeIPK8TreeNodeNS_12basic_stringIcNS_11char_traitsIcEENS0_IcEEEEEEPvEEEC2B8ne180100Ev, symObjAddr: 0x11B9C, symBinAddr: 0x100014B28, symSize: 0x2C }
  - { offset: 0x3E430, size: 0x8, addend: 0x0, symName: __ZNSt3__116__non_trivial_ifILb1ENS_9allocatorINS_11__hash_nodeINS_17__hash_value_typeIPK8TreeNodeNS_12basic_stringIcNS_11char_traitsIcEENS1_IcEEEEEEPvEEEEEC2B8ne180100Ev, symObjAddr: 0x11BC8, symBinAddr: 0x100014B54, symSize: 0x14 }
  - { offset: 0x3E45A, size: 0x8, addend: 0x0, symName: __ZNSt3__117__compressed_pairImNS_22__unordered_map_hasherIPK8TreeNodeNS_17__hash_value_typeIS4_NS_12basic_stringIcNS_11char_traitsIcEENS_9allocatorIcEEEEEENS_4hashIS4_EENS_8equal_toIS4_EELb1EEEEC2B8ne180100IiNS_18__default_init_tagEEEOT_OT0_, symObjAddr: 0x11BDC, symBinAddr: 0x100014B68, symSize: 0x40 }
  - { offset: 0x3E4B4, size: 0x8, addend: 0x0, symName: __ZNSt3__122__compressed_pair_elemINS_22__unordered_map_hasherIPK8TreeNodeNS_17__hash_value_typeIS4_NS_12basic_stringIcNS_11char_traitsIcEENS_9allocatorIcEEEEEENS_4hashIS4_EENS_8equal_toIS4_EELb1EEELi1ELb1EEC2B8ne180100ENS_18__default_init_tagE, symObjAddr: 0x11C1C, symBinAddr: 0x100014BA8, symSize: 0x2C }
  - { offset: 0x3E4E9, size: 0x8, addend: 0x0, symName: __ZNSt3__122__unordered_map_hasherIPK8TreeNodeNS_17__hash_value_typeIS3_NS_12basic_stringIcNS_11char_traitsIcEENS_9allocatorIcEEEEEENS_4hashIS3_EENS_8equal_toIS3_EELb1EEC2B8ne180100Ev, symObjAddr: 0x11C48, symBinAddr: 0x100014BD4, symSize: 0x14 }
  - { offset: 0x3E513, size: 0x8, addend: 0x0, symName: __ZNSt3__117__compressed_pairIfNS_21__unordered_map_equalIPK8TreeNodeNS_17__hash_value_typeIS4_NS_12basic_stringIcNS_11char_traitsIcEENS_9allocatorIcEEEEEENS_8equal_toIS4_EENS_4hashIS4_EELb1EEEEC2B8ne180100IfNS_18__default_init_tagEEEOT_OT0_, symObjAddr: 0x11C5C, symBinAddr: 0x100014BE8, symSize: 0x40 }
  - { offset: 0x3E56D, size: 0x8, addend: 0x0, symName: __ZNSt3__122__compressed_pair_elemIfLi0ELb0EEC2B8ne180100IfvEEOT_, symObjAddr: 0x11C9C, symBinAddr: 0x100014C28, symSize: 0x24 }
  - { offset: 0x3E5B0, size: 0x8, addend: 0x0, symName: __ZNSt3__122__compressed_pair_elemINS_21__unordered_map_equalIPK8TreeNodeNS_17__hash_value_typeIS4_NS_12basic_stringIcNS_11char_traitsIcEENS_9allocatorIcEEEEEENS_8equal_toIS4_EENS_4hashIS4_EELb1EEELi1ELb1EEC2B8ne180100ENS_18__default_init_tagE, symObjAddr: 0x11CC0, symBinAddr: 0x100014C4C, symSize: 0x2C }
  - { offset: 0x3E5E5, size: 0x8, addend: 0x0, symName: __ZNSt3__121__unordered_map_equalIPK8TreeNodeNS_17__hash_value_typeIS3_NS_12basic_stringIcNS_11char_traitsIcEENS_9allocatorIcEEEEEENS_8equal_toIS3_EENS_4hashIS3_EELb1EEC2B8ne180100Ev, symObjAddr: 0x11CEC, symBinAddr: 0x100014C78, symSize: 0x14 }
  - { offset: 0x3E60F, size: 0x8, addend: 0x0, symName: __ZNSt3__113unordered_mapIPK8TreeNodeNS_12basic_stringIcNS_11char_traitsIcEENS_9allocatorIcEEEENS_4hashIS3_EENS_8equal_toIS3_EENS7_INS_4pairIKS3_S9_EEEEED2B8ne180100Ev, symObjAddr: 0x11D00, symBinAddr: 0x100014C8C, symSize: 0x2C }
  - { offset: 0x3E639, size: 0x8, addend: 0x0, symName: __ZNSt3__112__hash_tableINS_17__hash_value_typeIPK8TreeNodeNS_12basic_stringIcNS_11char_traitsIcEENS_9allocatorIcEEEEEENS_22__unordered_map_hasherIS4_SB_NS_4hashIS4_EENS_8equal_toIS4_EELb1EEENS_21__unordered_map_equalIS4_SB_SG_SE_Lb1EEENS8_ISB_EEED1Ev, symObjAddr: 0x11D2C, symBinAddr: 0x100014CB8, symSize: 0x2C }
  - { offset: 0x3E665, size: 0x8, addend: 0x0, symName: __ZNSt3__112__hash_tableINS_17__hash_value_typeIPK8TreeNodeNS_12basic_stringIcNS_11char_traitsIcEENS_9allocatorIcEEEEEENS_22__unordered_map_hasherIS4_SB_NS_4hashIS4_EENS_8equal_toIS4_EELb1EEENS_21__unordered_map_equalIS4_SB_SG_SE_Lb1EEENS8_ISB_EEED2Ev, symObjAddr: 0x11D58, symBinAddr: 0x100014CE4, symSize: 0x48 }
  - { offset: 0x3E691, size: 0x8, addend: 0x0, symName: __ZNSt3__112__hash_tableINS_17__hash_value_typeIPK8TreeNodeNS_12basic_stringIcNS_11char_traitsIcEENS_9allocatorIcEEEEEENS_22__unordered_map_hasherIS4_SB_NS_4hashIS4_EENS_8equal_toIS4_EELb1EEENS_21__unordered_map_equalIS4_SB_SG_SE_Lb1EEENS8_ISB_EEE17__deallocate_nodeEPNS_16__hash_node_baseIPNS_11__hash_nodeISB_PvEEEE, symObjAddr: 0x11DA0, symBinAddr: 0x100014D2C, symSize: 0xB0 }
  - { offset: 0x3E6FC, size: 0x8, addend: 0x0, symName: __ZNSt3__110unique_ptrIA_PNS_16__hash_node_baseIPNS_11__hash_nodeINS_17__hash_value_typeIPK8TreeNodeNS_12basic_stringIcNS_11char_traitsIcEENS_9allocatorIcEEEEEEPvEEEENS_25__bucket_list_deallocatorINSA_ISI_EEEEED1B8ne180100Ev, symObjAddr: 0x11E50, symBinAddr: 0x100014DDC, symSize: 0x2C }
  - { offset: 0x3E726, size: 0x8, addend: 0x0, symName: __ZNSt3__110unique_ptrIA_PNS_16__hash_node_baseIPNS_11__hash_nodeINS_17__hash_value_typeIPK8TreeNodeNS_12basic_stringIcNS_11char_traitsIcEENS_9allocatorIcEEEEEEPvEEEENS_25__bucket_list_deallocatorINSA_ISI_EEEEED2B8ne180100Ev, symObjAddr: 0x11E7C, symBinAddr: 0x100014E08, symSize: 0x30 }
  - { offset: 0x3E750, size: 0x8, addend: 0x0, symName: __ZNSt3__110unique_ptrIA_PNS_16__hash_node_baseIPNS_11__hash_nodeINS_17__hash_value_typeIPK8TreeNodeNS_12basic_stringIcNS_11char_traitsIcEENS_9allocatorIcEEEEEEPvEEEENS_25__bucket_list_deallocatorINSA_ISI_EEEEE5resetB8ne180100EDn, symObjAddr: 0x11EAC, symBinAddr: 0x100014E38, symSize: 0x6C }
  - { offset: 0x3E790, size: 0x8, addend: 0x0, symName: __ZNSt3__113basic_istreamIcNS_11char_traitsIcEEEC2B8ne180100EPNS_15basic_streambufIcS2_EE, symObjAddr: 0x11F18, symBinAddr: 0x100014EA4, symSize: 0x64 }
  - { offset: 0x3E7D6, size: 0x8, addend: 0x0, symName: __ZNKSt3__113basic_filebufIcNS_11char_traitsIcEEE7is_openEv, symObjAddr: 0x11F7C, symBinAddr: 0x100014F08, symSize: 0x24 }
  - { offset: 0x3E7FE, size: 0x8, addend: 0x0, symName: __ZN8nlohmann16json_abi_v3_11_210basic_jsonINSt3__13mapENS2_6vectorENS2_12basic_stringIcNS2_11char_traitsIcEENS2_9allocatorIcEEEEbxydS8_NS0_14adl_serializerENS4_IhNS8_IhEEEEEC1ENS0_6detail7value_tE, symObjAddr: 0x11FA0, symBinAddr: 0x100014F2C, symSize: 0x34 }
  - { offset: 0x3E837, size: 0x8, addend: 0x0, symName: __ZN8nlohmann16json_abi_v3_11_210basic_jsonINSt3__13mapENS2_6vectorENS2_12basic_stringIcNS2_11char_traitsIcEENS2_9allocatorIcEEEEbxydS8_NS0_14adl_serializerENS4_IhNS8_IhEEEEEC2ENS0_6detail7value_tE, symObjAddr: 0x11FD4, symBinAddr: 0x100014F60, symSize: 0x50 }
  - { offset: 0x3E870, size: 0x8, addend: 0x0, symName: __ZN8nlohmann16json_abi_v3_11_210basic_jsonINSt3__13mapENS2_6vectorENS2_12basic_stringIcNS2_11char_traitsIcEENS2_9allocatorIcEEEEbxydS8_NS0_14adl_serializerENS4_IhNS8_IhEEEEE10json_valueC1ENS0_6detail7value_tE, symObjAddr: 0x12024, symBinAddr: 0x100014FB0, symSize: 0x34 }
  - { offset: 0x3E8A9, size: 0x8, addend: 0x0, symName: __ZN8nlohmann16json_abi_v3_11_210basic_jsonINSt3__13mapENS2_6vectorENS2_12basic_stringIcNS2_11char_traitsIcEENS2_9allocatorIcEEEEbxydS8_NS0_14adl_serializerENS4_IhNS8_IhEEEEE10json_valueC2ENS0_6detail7value_tE, symObjAddr: 0x12058, symBinAddr: 0x100014FE4, symSize: 0x1DC }
  - { offset: 0x3E8E2, size: 0x8, addend: 0x0, symName: __ZN8nlohmann16json_abi_v3_11_210basic_jsonINSt3__13mapENS2_6vectorENS2_12basic_stringIcNS2_11char_traitsIcEENS2_9allocatorIcEEEEbxydS8_NS0_14adl_serializerENS4_IhNS8_IhEEEEE6createINS3_ISA_SE_NS2_4lessIvEENS8_INS2_4pairIKSA_SE_EEEEEEJEEEPT_DpOT0_, symObjAddr: 0x1225C, symBinAddr: 0x1000151E8, symSize: 0xEC }
  - { offset: 0x3E95B, size: 0x8, addend: 0x0, symName: __ZN8nlohmann16json_abi_v3_11_210basic_jsonINSt3__13mapENS2_6vectorENS2_12basic_stringIcNS2_11char_traitsIcEENS2_9allocatorIcEEEEbxydS8_NS0_14adl_serializerENS4_IhNS8_IhEEEEE6createINS4_ISE_NS8_ISE_EEEEJEEEPT_DpOT0_, symObjAddr: 0x12348, symBinAddr: 0x1000152D4, symSize: 0xEC }
  - { offset: 0x3E9ED, size: 0x8, addend: 0x0, symName: __ZN8nlohmann16json_abi_v3_11_210basic_jsonINSt3__13mapENS2_6vectorENS2_12basic_stringIcNS2_11char_traitsIcEENS2_9allocatorIcEEEEbxydS8_NS0_14adl_serializerENS4_IhNS8_IhEEEEE6createISA_JRA1_KcEEEPT_DpOT0_, symObjAddr: 0x12434, symBinAddr: 0x1000153C0, symSize: 0xF4 }
  - { offset: 0x3EA7B, size: 0x8, addend: 0x0, symName: __ZN8nlohmann16json_abi_v3_11_210basic_jsonINSt3__13mapENS2_6vectorENS2_12basic_stringIcNS2_11char_traitsIcEENS2_9allocatorIcEEEEbxydS8_NS0_14adl_serializerENS4_IhNS8_IhEEEEE6createINS0_27byte_container_with_subtypeISD_EEJEEEPT_DpOT0_, symObjAddr: 0x12528, symBinAddr: 0x1000154B4, symSize: 0xEC }
  - { offset: 0x3EAFA, size: 0x8, addend: 0x0, symName: __ZN8nlohmann16json_abi_v3_11_26detail11other_error6createIDnLi0EEES2_iRKNSt3__112basic_stringIcNS4_11char_traitsIcEENS4_9allocatorIcEEEET_, symObjAddr: 0x12614, symBinAddr: 0x1000155A0, symSize: 0x130 }
  - { offset: 0x3EB5A, size: 0x8, addend: 0x0, symName: __ZN8nlohmann16json_abi_v3_11_26detail11other_errorD1Ev, symObjAddr: 0x12744, symBinAddr: 0x1000156D0, symSize: 0x2C }
  - { offset: 0x3EB87, size: 0x8, addend: 0x0, symName: __ZNSt3__116allocator_traitsINS_9allocatorINS_3mapINS_12basic_stringIcNS_11char_traitsIcEENS1_IcEEEEN8nlohmann16json_abi_v3_11_210basic_jsonIS2_NS_6vectorES7_bxydS1_NS9_14adl_serializerENSB_IhNS1_IhEEEEEENS_4lessIvEENS1_INS_4pairIKS7_SF_EEEEEEEEE8allocateB8ne180100ERSN_m, symObjAddr: 0x12770, symBinAddr: 0x1000156FC, symSize: 0x2C }
  - { offset: 0x3EC5B, size: 0x8, addend: 0x0, symName: __ZNSt3__110unique_ptrINS_3mapINS_12basic_stringIcNS_11char_traitsIcEENS_9allocatorIcEEEEN8nlohmann16json_abi_v3_11_210basic_jsonIS1_NS_6vectorES7_bxydS5_NS9_14adl_serializerENSB_IhNS5_IhEEEEEENS_4lessIvEENS5_INS_4pairIKS7_SF_EEEEEEZNSF_6createISM_JEEEPT_DpOT0_EUlPSM_E_EC1B8ne180100ILb1EvEEST_NS_16__dependent_typeINS_27__unique_ptr_deleter_sfinaeISU_EEXT_EE15__lval_ref_typeE, symObjAddr: 0x1279C, symBinAddr: 0x100015728, symSize: 0x3C }
  - { offset: 0x3ECAE, size: 0x8, addend: 0x0, symName: __ZNSt3__116allocator_traitsINS_9allocatorINS_3mapINS_12basic_stringIcNS_11char_traitsIcEENS1_IcEEEEN8nlohmann16json_abi_v3_11_210basic_jsonIS2_NS_6vectorES7_bxydS1_NS9_14adl_serializerENSB_IhNS1_IhEEEEEENS_4lessIvEENS1_INS_4pairIKS7_SF_EEEEEEEEE9constructB8ne180100ISM_JEvEEvRSN_PT_DpOT0_, symObjAddr: 0x127D8, symBinAddr: 0x100015764, symSize: 0x2C }
  - { offset: 0x3ECF0, size: 0x8, addend: 0x0, symName: __ZNKSt3__110unique_ptrINS_3mapINS_12basic_stringIcNS_11char_traitsIcEENS_9allocatorIcEEEEN8nlohmann16json_abi_v3_11_210basic_jsonIS1_NS_6vectorES7_bxydS5_NS9_14adl_serializerENSB_IhNS5_IhEEEEEENS_4lessIvEENS5_INS_4pairIKS7_SF_EEEEEEZNSF_6createISM_JEEEPT_DpOT0_EUlPSM_E_E3getB8ne180100Ev, symObjAddr: 0x12804, symBinAddr: 0x100015790, symSize: 0x28 }
  - { offset: 0x3ED16, size: 0x8, addend: 0x0, symName: __ZNSt3__110unique_ptrINS_3mapINS_12basic_stringIcNS_11char_traitsIcEENS_9allocatorIcEEEEN8nlohmann16json_abi_v3_11_210basic_jsonIS1_NS_6vectorES7_bxydS5_NS9_14adl_serializerENSB_IhNS5_IhEEEEEENS_4lessIvEENS5_INS_4pairIKS7_SF_EEEEEEZNSF_6createISM_JEEEPT_DpOT0_EUlPSM_E_E7releaseB8ne180100Ev, symObjAddr: 0x12858, symBinAddr: 0x1000157E4, symSize: 0x44 }
  - { offset: 0x3ED4B, size: 0x8, addend: 0x0, symName: __ZNSt3__110unique_ptrINS_3mapINS_12basic_stringIcNS_11char_traitsIcEENS_9allocatorIcEEEEN8nlohmann16json_abi_v3_11_210basic_jsonIS1_NS_6vectorES7_bxydS5_NS9_14adl_serializerENSB_IhNS5_IhEEEEEENS_4lessIvEENS5_INS_4pairIKS7_SF_EEEEEEZNSF_6createISM_JEEEPT_DpOT0_EUlPSM_E_ED1B8ne180100Ev, symObjAddr: 0x1289C, symBinAddr: 0x100015828, symSize: 0x2C }
  - { offset: 0x3ED75, size: 0x8, addend: 0x0, symName: __ZNSt3__19allocatorINS_3mapINS_12basic_stringIcNS_11char_traitsIcEENS0_IcEEEEN8nlohmann16json_abi_v3_11_210basic_jsonIS1_NS_6vectorES6_bxydS0_NS8_14adl_serializerENSA_IhNS0_IhEEEEEENS_4lessIvEENS0_INS_4pairIKS6_SE_EEEEEEE8allocateB8ne180100Em, symObjAddr: 0x128C8, symBinAddr: 0x100015854, symSize: 0x5C }
  - { offset: 0x3EDB5, size: 0x8, addend: 0x0, symName: __ZNSt3__116allocator_traitsINS_9allocatorINS_3mapINS_12basic_stringIcNS_11char_traitsIcEENS1_IcEEEEN8nlohmann16json_abi_v3_11_210basic_jsonIS2_NS_6vectorES7_bxydS1_NS9_14adl_serializerENSB_IhNS1_IhEEEEEENS_4lessIvEENS1_INS_4pairIKS7_SF_EEEEEEEEE8max_sizeB8ne180100ISN_vEEmRKSN_, symObjAddr: 0x12924, symBinAddr: 0x1000158B0, symSize: 0x24 }
  - { offset: 0x3EDE3, size: 0x8, addend: 0x0, symName: __ZNKSt3__19allocatorINS_3mapINS_12basic_stringIcNS_11char_traitsIcEENS0_IcEEEEN8nlohmann16json_abi_v3_11_210basic_jsonIS1_NS_6vectorES6_bxydS0_NS8_14adl_serializerENSA_IhNS0_IhEEEEEENS_4lessIvEENS0_INS_4pairIKS6_SE_EEEEEEE8max_sizeB8ne180100Ev, symObjAddr: 0x12948, symBinAddr: 0x1000158D4, symSize: 0x18 }
  - { offset: 0x3EE09, size: 0x8, addend: 0x0, symName: __ZNSt3__110unique_ptrINS_3mapINS_12basic_stringIcNS_11char_traitsIcEENS_9allocatorIcEEEEN8nlohmann16json_abi_v3_11_210basic_jsonIS1_NS_6vectorES7_bxydS5_NS9_14adl_serializerENSB_IhNS5_IhEEEEEENS_4lessIvEENS5_INS_4pairIKS7_SF_EEEEEEZNSF_6createISM_JEEEPT_DpOT0_EUlPSM_E_EC2B8ne180100ILb1EvEEST_NS_16__dependent_typeINS_27__unique_ptr_deleter_sfinaeISU_EEXT_EE15__lval_ref_typeE, symObjAddr: 0x12960, symBinAddr: 0x1000158EC, symSize: 0x48 }
  - { offset: 0x3EE5C, size: 0x8, addend: 0x0, symName: __ZNSt3__117__compressed_pairIPNS_3mapINS_12basic_stringIcNS_11char_traitsIcEENS_9allocatorIcEEEEN8nlohmann16json_abi_v3_11_210basic_jsonIS1_NS_6vectorES7_bxydS5_NS9_14adl_serializerENSB_IhNS5_IhEEEEEENS_4lessIvEENS5_INS_4pairIKS7_SF_EEEEEEZNSF_6createISM_JEEEPT_DpOT0_EUlSN_E_EC1B8ne180100IRSN_RKSU_EEOSP_OT0_, symObjAddr: 0x129A8, symBinAddr: 0x100015934, symSize: 0x3C }
  - { offset: 0x3EEB6, size: 0x8, addend: 0x0, symName: __ZNSt3__117__compressed_pairIPNS_3mapINS_12basic_stringIcNS_11char_traitsIcEENS_9allocatorIcEEEEN8nlohmann16json_abi_v3_11_210basic_jsonIS1_NS_6vectorES7_bxydS5_NS9_14adl_serializerENSB_IhNS5_IhEEEEEENS_4lessIvEENS5_INS_4pairIKS7_SF_EEEEEEZNSF_6createISM_JEEEPT_DpOT0_EUlSN_E_EC2B8ne180100IRSN_RKSU_EEOSP_OT0_, symObjAddr: 0x129E4, symBinAddr: 0x100015970, symSize: 0x48 }
  - { offset: 0x3EF10, size: 0x8, addend: 0x0, symName: __ZNSt3__122__compressed_pair_elemIPNS_3mapINS_12basic_stringIcNS_11char_traitsIcEENS_9allocatorIcEEEEN8nlohmann16json_abi_v3_11_210basic_jsonIS1_NS_6vectorES7_bxydS5_NS9_14adl_serializerENSB_IhNS5_IhEEEEEENS_4lessIvEENS5_INS_4pairIKS7_SF_EEEEEELi0ELb0EEC2B8ne180100IRSN_vEEOT_, symObjAddr: 0x12A2C, symBinAddr: 0x1000159B8, symSize: 0x24 }
  - { offset: 0x3EF53, size: 0x8, addend: 0x0, symName: __ZNSt3__122__compressed_pair_elemIZN8nlohmann16json_abi_v3_11_210basic_jsonINS_3mapENS_6vectorENS_12basic_stringIcNS_11char_traitsIcEENS_9allocatorIcEEEEbxydS9_NS2_14adl_serializerENS5_IhNS9_IhEEEEE6createINS4_ISB_SF_NS_4lessIvEENS9_INS_4pairIKSB_SF_EEEEEEJEEEPT_DpOT0_EUlPSN_E_Li1ELb0EEC2B8ne180100IRKSU_vEEOSO_, symObjAddr: 0x12A50, symBinAddr: 0x1000159DC, symSize: 0x24 }
  - { offset: 0x3EF96, size: 0x8, addend: 0x0, symName: __ZNSt3__19allocatorINS_3mapINS_12basic_stringIcNS_11char_traitsIcEENS0_IcEEEEN8nlohmann16json_abi_v3_11_210basic_jsonIS1_NS_6vectorES6_bxydS0_NS8_14adl_serializerENSA_IhNS0_IhEEEEEENS_4lessIvEENS0_INS_4pairIKS6_SE_EEEEEEE9constructB8ne180100ISL_JEEEvPT_DpOT0_, symObjAddr: 0x12A74, symBinAddr: 0x100015A00, symSize: 0x28 }
  - { offset: 0x3EFD9, size: 0x8, addend: 0x0, symName: __ZNSt3__13mapINS_12basic_stringIcNS_11char_traitsIcEENS_9allocatorIcEEEEN8nlohmann16json_abi_v3_11_210basic_jsonIS0_NS_6vectorES6_bxydS4_NS8_14adl_serializerENSA_IhNS4_IhEEEEEENS_4lessIvEENS4_INS_4pairIKS6_SE_EEEEEC1B8ne180100Ev, symObjAddr: 0x12A9C, symBinAddr: 0x100015A28, symSize: 0x2C }
  - { offset: 0x3F003, size: 0x8, addend: 0x0, symName: __ZNSt3__13mapINS_12basic_stringIcNS_11char_traitsIcEENS_9allocatorIcEEEEN8nlohmann16json_abi_v3_11_210basic_jsonIS0_NS_6vectorES6_bxydS4_NS8_14adl_serializerENSA_IhNS4_IhEEEEEENS_4lessIvEENS4_INS_4pairIKS6_SE_EEEEEC2B8ne180100Ev, symObjAddr: 0x12AC8, symBinAddr: 0x100015A54, symSize: 0x40 }
  - { offset: 0x3F02D, size: 0x8, addend: 0x0, symName: __ZNSt3__119__map_value_compareINS_12basic_stringIcNS_11char_traitsIcEENS_9allocatorIcEEEENS_12__value_typeIS6_N8nlohmann16json_abi_v3_11_210basic_jsonINS_3mapENS_6vectorES6_bxydS4_NS9_14adl_serializerENSC_IhNS4_IhEEEEEEEENS_4lessIvEELb1EEC1B8ne180100ESJ_, symObjAddr: 0x12B08, symBinAddr: 0x100015A94, symSize: 0x2C }
  - { offset: 0x3F066, size: 0x8, addend: 0x0, symName: __ZNSt3__16__treeINS_12__value_typeINS_12basic_stringIcNS_11char_traitsIcEENS_9allocatorIcEEEEN8nlohmann16json_abi_v3_11_210basic_jsonINS_3mapENS_6vectorES7_bxydS5_NS9_14adl_serializerENSC_IhNS5_IhEEEEEEEENS_19__map_value_compareIS7_SH_NS_4lessIvEELb1EEENS5_ISH_EEEC1ERKSL_, symObjAddr: 0x12B34, symBinAddr: 0x100015AC0, symSize: 0x34 }
  - { offset: 0x3F0A1, size: 0x8, addend: 0x0, symName: __ZNSt3__119__map_value_compareINS_12basic_stringIcNS_11char_traitsIcEENS_9allocatorIcEEEENS_12__value_typeIS6_N8nlohmann16json_abi_v3_11_210basic_jsonINS_3mapENS_6vectorES6_bxydS4_NS9_14adl_serializerENSC_IhNS4_IhEEEEEEEENS_4lessIvEELb1EEC2B8ne180100ESJ_, symObjAddr: 0x12B68, symBinAddr: 0x100015AF4, symSize: 0x14 }
  - { offset: 0x3F0DA, size: 0x8, addend: 0x0, symName: __ZNSt3__16__treeINS_12__value_typeINS_12basic_stringIcNS_11char_traitsIcEENS_9allocatorIcEEEEN8nlohmann16json_abi_v3_11_210basic_jsonINS_3mapENS_6vectorES7_bxydS5_NS9_14adl_serializerENSC_IhNS5_IhEEEEEEEENS_19__map_value_compareIS7_SH_NS_4lessIvEELb1EEENS5_ISH_EEEC2ERKSL_, symObjAddr: 0x12B7C, symBinAddr: 0x100015B08, symSize: 0x7C }
  - { offset: 0x3F115, size: 0x8, addend: 0x0, symName: __ZNSt3__117__compressed_pairINS_15__tree_end_nodeIPNS_16__tree_node_baseIPvEEEENS_9allocatorINS_11__tree_nodeINS_12__value_typeINS_12basic_stringIcNS_11char_traitsIcEENS7_IcEEEEN8nlohmann16json_abi_v3_11_210basic_jsonINS_3mapENS_6vectorESE_bxydS7_NSG_14adl_serializerENSJ_IhNS7_IhEEEEEEEES3_EEEEEC1B8ne180100ILb1EvEEv, symObjAddr: 0x12BF8, symBinAddr: 0x100015B84, symSize: 0x2C }
  - { offset: 0x3F14A, size: 0x8, addend: 0x0, symName: __ZNSt3__117__compressed_pairImNS_19__map_value_compareINS_12basic_stringIcNS_11char_traitsIcEENS_9allocatorIcEEEENS_12__value_typeIS7_N8nlohmann16json_abi_v3_11_210basic_jsonINS_3mapENS_6vectorES7_bxydS5_NSA_14adl_serializerENSD_IhNS5_IhEEEEEEEENS_4lessIvEELb1EEEEC1B8ne180100IiRKSL_EEOT_OT0_, symObjAddr: 0x12C24, symBinAddr: 0x100015BB0, symSize: 0x3C }
  - { offset: 0x3F1A4, size: 0x8, addend: 0x0, symName: __ZNSt3__117__compressed_pairINS_15__tree_end_nodeIPNS_16__tree_node_baseIPvEEEENS_9allocatorINS_11__tree_nodeINS_12__value_typeINS_12basic_stringIcNS_11char_traitsIcEENS7_IcEEEEN8nlohmann16json_abi_v3_11_210basic_jsonINS_3mapENS_6vectorESE_bxydS7_NSG_14adl_serializerENSJ_IhNS7_IhEEEEEEEES3_EEEEEC2B8ne180100ILb1EvEEv, symObjAddr: 0x12C60, symBinAddr: 0x100015BEC, symSize: 0x34 }
  - { offset: 0x3F1D9, size: 0x8, addend: 0x0, symName: __ZNSt3__122__compressed_pair_elemINS_15__tree_end_nodeIPNS_16__tree_node_baseIPvEEEELi0ELb0EEC2B8ne180100ENS_16__value_init_tagE, symObjAddr: 0x12C94, symBinAddr: 0x100015C20, symSize: 0x2C }
  - { offset: 0x3F20E, size: 0x8, addend: 0x0, symName: __ZNSt3__122__compressed_pair_elemINS_9allocatorINS_11__tree_nodeINS_12__value_typeINS_12basic_stringIcNS_11char_traitsIcEENS1_IcEEEEN8nlohmann16json_abi_v3_11_210basic_jsonINS_3mapENS_6vectorES8_bxydS1_NSA_14adl_serializerENSD_IhNS1_IhEEEEEEEEPvEEEELi1ELb1EEC2B8ne180100ENS_16__value_init_tagE, symObjAddr: 0x12CC0, symBinAddr: 0x100015C4C, symSize: 0x2C }
  - { offset: 0x3F243, size: 0x8, addend: 0x0, symName: __ZNSt3__115__tree_end_nodeIPNS_16__tree_node_baseIPvEEEC1B8ne180100Ev, symObjAddr: 0x12CEC, symBinAddr: 0x100015C78, symSize: 0x2C }
  - { offset: 0x3F26D, size: 0x8, addend: 0x0, symName: __ZNSt3__115__tree_end_nodeIPNS_16__tree_node_baseIPvEEEC2B8ne180100Ev, symObjAddr: 0x12D18, symBinAddr: 0x100015CA4, symSize: 0x18 }
  - { offset: 0x3F297, size: 0x8, addend: 0x0, symName: __ZNSt3__19allocatorINS_11__tree_nodeINS_12__value_typeINS_12basic_stringIcNS_11char_traitsIcEENS0_IcEEEEN8nlohmann16json_abi_v3_11_210basic_jsonINS_3mapENS_6vectorES7_bxydS0_NS9_14adl_serializerENSC_IhNS0_IhEEEEEEEEPvEEEC2B8ne180100Ev, symObjAddr: 0x12D30, symBinAddr: 0x100015CBC, symSize: 0x2C }
  - { offset: 0x3F2C1, size: 0x8, addend: 0x0, symName: __ZNSt3__116__non_trivial_ifILb1ENS_9allocatorINS_11__tree_nodeINS_12__value_typeINS_12basic_stringIcNS_11char_traitsIcEENS1_IcEEEEN8nlohmann16json_abi_v3_11_210basic_jsonINS_3mapENS_6vectorES8_bxydS1_NSA_14adl_serializerENSD_IhNS1_IhEEEEEEEEPvEEEEEC2B8ne180100Ev, symObjAddr: 0x12D5C, symBinAddr: 0x100015CE8, symSize: 0x14 }
  - { offset: 0x3F2EB, size: 0x8, addend: 0x0, symName: __ZNSt3__117__compressed_pairImNS_19__map_value_compareINS_12basic_stringIcNS_11char_traitsIcEENS_9allocatorIcEEEENS_12__value_typeIS7_N8nlohmann16json_abi_v3_11_210basic_jsonINS_3mapENS_6vectorES7_bxydS5_NSA_14adl_serializerENSD_IhNS5_IhEEEEEEEENS_4lessIvEELb1EEEEC2B8ne180100IiRKSL_EEOT_OT0_, symObjAddr: 0x12D70, symBinAddr: 0x100015CFC, symSize: 0x44 }
  - { offset: 0x3F345, size: 0x8, addend: 0x0, symName: __ZNSt3__122__compressed_pair_elemINS_19__map_value_compareINS_12basic_stringIcNS_11char_traitsIcEENS_9allocatorIcEEEENS_12__value_typeIS7_N8nlohmann16json_abi_v3_11_210basic_jsonINS_3mapENS_6vectorES7_bxydS5_NSA_14adl_serializerENSD_IhNS5_IhEEEEEEEENS_4lessIvEELb1EEELi1ELb1EEC2B8ne180100IRKSL_vEEOT_, symObjAddr: 0x12DB4, symBinAddr: 0x100015D40, symSize: 0x18 }
  - { offset: 0x3F388, size: 0x8, addend: 0x0, symName: __ZNKSt3__117__compressed_pairIPNS_3mapINS_12basic_stringIcNS_11char_traitsIcEENS_9allocatorIcEEEEN8nlohmann16json_abi_v3_11_210basic_jsonIS1_NS_6vectorES7_bxydS5_NS9_14adl_serializerENSB_IhNS5_IhEEEEEENS_4lessIvEENS5_INS_4pairIKS7_SF_EEEEEEZNSF_6createISM_JEEEPT_DpOT0_EUlSN_E_E5firstB8ne180100Ev, symObjAddr: 0x12DCC, symBinAddr: 0x100015D58, symSize: 0x24 }
  - { offset: 0x3F3AE, size: 0x8, addend: 0x0, symName: __ZNKSt3__122__compressed_pair_elemIPNS_3mapINS_12basic_stringIcNS_11char_traitsIcEENS_9allocatorIcEEEEN8nlohmann16json_abi_v3_11_210basic_jsonIS1_NS_6vectorES7_bxydS5_NS9_14adl_serializerENSB_IhNS5_IhEEEEEENS_4lessIvEENS5_INS_4pairIKS7_SF_EEEEEELi0ELb0EE5__getB8ne180100Ev, symObjAddr: 0x12DF0, symBinAddr: 0x100015D7C, symSize: 0x14 }
  - { offset: 0x3F3D4, size: 0x8, addend: 0x0, symName: __ZNKSt3__110unique_ptrINS_3mapINS_12basic_stringIcNS_11char_traitsIcEENS_9allocatorIcEEEEN8nlohmann16json_abi_v3_11_210basic_jsonIS1_NS_6vectorES7_bxydS5_NS9_14adl_serializerENSB_IhNS5_IhEEEEEENS_4lessIvEENS5_INS_4pairIKS7_SF_EEEEEEZNSF_6createISM_JEEEPT_DpOT0_EUlPSM_E_EcvbB8ne180100Ev, symObjAddr: 0x12E04, symBinAddr: 0x100015D90, symSize: 0x34 }
  - { offset: 0x3F3FA, size: 0x8, addend: 0x0, symName: __ZNSt3__117__compressed_pairIPNS_3mapINS_12basic_stringIcNS_11char_traitsIcEENS_9allocatorIcEEEEN8nlohmann16json_abi_v3_11_210basic_jsonIS1_NS_6vectorES7_bxydS5_NS9_14adl_serializerENSB_IhNS5_IhEEEEEENS_4lessIvEENS5_INS_4pairIKS7_SF_EEEEEEZNSF_6createISM_JEEEPT_DpOT0_EUlSN_E_E5firstB8ne180100Ev, symObjAddr: 0x12E38, symBinAddr: 0x100015DC4, symSize: 0x24 }
  - { offset: 0x3F420, size: 0x8, addend: 0x0, symName: __ZNSt3__122__compressed_pair_elemIPNS_3mapINS_12basic_stringIcNS_11char_traitsIcEENS_9allocatorIcEEEEN8nlohmann16json_abi_v3_11_210basic_jsonIS1_NS_6vectorES7_bxydS5_NS9_14adl_serializerENSB_IhNS5_IhEEEEEENS_4lessIvEENS5_INS_4pairIKS7_SF_EEEEEELi0ELb0EE5__getB8ne180100Ev, symObjAddr: 0x12E5C, symBinAddr: 0x100015DE8, symSize: 0x14 }
  - { offset: 0x3F446, size: 0x8, addend: 0x0, symName: __ZNSt3__110unique_ptrINS_3mapINS_12basic_stringIcNS_11char_traitsIcEENS_9allocatorIcEEEEN8nlohmann16json_abi_v3_11_210basic_jsonIS1_NS_6vectorES7_bxydS5_NS9_14adl_serializerENSB_IhNS5_IhEEEEEENS_4lessIvEENS5_INS_4pairIKS7_SF_EEEEEEZNSF_6createISM_JEEEPT_DpOT0_EUlPSM_E_ED2B8ne180100Ev, symObjAddr: 0x12E70, symBinAddr: 0x100015DFC, symSize: 0x30 }
  - { offset: 0x3F470, size: 0x8, addend: 0x0, symName: __ZNSt3__110unique_ptrINS_3mapINS_12basic_stringIcNS_11char_traitsIcEENS_9allocatorIcEEEEN8nlohmann16json_abi_v3_11_210basic_jsonIS1_NS_6vectorES7_bxydS5_NS9_14adl_serializerENSB_IhNS5_IhEEEEEENS_4lessIvEENS5_INS_4pairIKS7_SF_EEEEEEZNSF_6createISM_JEEEPT_DpOT0_EUlPSM_E_E5resetB8ne180100EST_, symObjAddr: 0x12EA0, symBinAddr: 0x100015E2C, symSize: 0x80 }
  - { offset: 0x3F4B4, size: 0x8, addend: 0x0, symName: __ZNSt3__117__compressed_pairIPNS_3mapINS_12basic_stringIcNS_11char_traitsIcEENS_9allocatorIcEEEEN8nlohmann16json_abi_v3_11_210basic_jsonIS1_NS_6vectorES7_bxydS5_NS9_14adl_serializerENSB_IhNS5_IhEEEEEENS_4lessIvEENS5_INS_4pairIKS7_SF_EEEEEEZNSF_6createISM_JEEEPT_DpOT0_EUlSN_E_E6secondB8ne180100Ev, symObjAddr: 0x12F20, symBinAddr: 0x100015EAC, symSize: 0x28 }
  - { offset: 0x3F4E0, size: 0x8, addend: 0x0, symName: __ZZN8nlohmann16json_abi_v3_11_210basic_jsonINSt3__13mapENS2_6vectorENS2_12basic_stringIcNS2_11char_traitsIcEENS2_9allocatorIcEEEEbxydS8_NS0_14adl_serializerENS4_IhNS8_IhEEEEE6createINS3_ISA_SE_NS2_4lessIvEENS8_INS2_4pairIKSA_SE_EEEEEEJEEEPT_DpOT0_ENKUlPSM_E_clESS_, symObjAddr: 0x12F48, symBinAddr: 0x100015ED4, symSize: 0x34 }
  - { offset: 0x3F519, size: 0x8, addend: 0x0, symName: __ZNSt3__122__compressed_pair_elemIZN8nlohmann16json_abi_v3_11_210basic_jsonINS_3mapENS_6vectorENS_12basic_stringIcNS_11char_traitsIcEENS_9allocatorIcEEEEbxydS9_NS2_14adl_serializerENS5_IhNS9_IhEEEEE6createINS4_ISB_SF_NS_4lessIvEENS9_INS_4pairIKSB_SF_EEEEEEJEEEPT_DpOT0_EUlPSN_E_Li1ELb0EE5__getB8ne180100Ev, symObjAddr: 0x12F7C, symBinAddr: 0x100015F08, symSize: 0x14 }
  - { offset: 0x3F53F, size: 0x8, addend: 0x0, symName: __ZNSt3__116allocator_traitsINS_9allocatorINS_6vectorIN8nlohmann16json_abi_v3_11_210basic_jsonINS_3mapES2_NS_12basic_stringIcNS_11char_traitsIcEENS1_IcEEEEbxydS1_NS4_14adl_serializerENS2_IhNS1_IhEEEEEENS1_ISF_EEEEEEE8allocateB8ne180100ERSI_m, symObjAddr: 0x12F90, symBinAddr: 0x100015F1C, symSize: 0x2C }
  - { offset: 0x3F613, size: 0x8, addend: 0x0, symName: __ZNSt3__110unique_ptrINS_6vectorIN8nlohmann16json_abi_v3_11_210basic_jsonINS_3mapES1_NS_12basic_stringIcNS_11char_traitsIcEENS_9allocatorIcEEEEbxydS9_NS3_14adl_serializerENS1_IhNS9_IhEEEEEENS9_ISF_EEEEZNSF_6createISH_JEEEPT_DpOT0_EUlPSH_E_EC1B8ne180100ILb1EvEESO_NS_16__dependent_typeINS_27__unique_ptr_deleter_sfinaeISP_EEXT_EE15__lval_ref_typeE, symObjAddr: 0x12FBC, symBinAddr: 0x100015F48, symSize: 0x3C }
  - { offset: 0x3F666, size: 0x8, addend: 0x0, symName: __ZNSt3__116allocator_traitsINS_9allocatorINS_6vectorIN8nlohmann16json_abi_v3_11_210basic_jsonINS_3mapES2_NS_12basic_stringIcNS_11char_traitsIcEENS1_IcEEEEbxydS1_NS4_14adl_serializerENS2_IhNS1_IhEEEEEENS1_ISF_EEEEEEE9constructB8ne180100ISH_JEvEEvRSI_PT_DpOT0_, symObjAddr: 0x12FF8, symBinAddr: 0x100015F84, symSize: 0x2C }
  - { offset: 0x3F6A8, size: 0x8, addend: 0x0, symName: __ZNKSt3__110unique_ptrINS_6vectorIN8nlohmann16json_abi_v3_11_210basic_jsonINS_3mapES1_NS_12basic_stringIcNS_11char_traitsIcEENS_9allocatorIcEEEEbxydS9_NS3_14adl_serializerENS1_IhNS9_IhEEEEEENS9_ISF_EEEEZNSF_6createISH_JEEEPT_DpOT0_EUlPSH_E_E3getB8ne180100Ev, symObjAddr: 0x13024, symBinAddr: 0x100015FB0, symSize: 0x28 }
  - { offset: 0x3F6CE, size: 0x8, addend: 0x0, symName: __ZNSt3__110unique_ptrINS_6vectorIN8nlohmann16json_abi_v3_11_210basic_jsonINS_3mapES1_NS_12basic_stringIcNS_11char_traitsIcEENS_9allocatorIcEEEEbxydS9_NS3_14adl_serializerENS1_IhNS9_IhEEEEEENS9_ISF_EEEEZNSF_6createISH_JEEEPT_DpOT0_EUlPSH_E_E7releaseB8ne180100Ev, symObjAddr: 0x13078, symBinAddr: 0x100016004, symSize: 0x44 }
  - { offset: 0x3F703, size: 0x8, addend: 0x0, symName: __ZNSt3__110unique_ptrINS_6vectorIN8nlohmann16json_abi_v3_11_210basic_jsonINS_3mapES1_NS_12basic_stringIcNS_11char_traitsIcEENS_9allocatorIcEEEEbxydS9_NS3_14adl_serializerENS1_IhNS9_IhEEEEEENS9_ISF_EEEEZNSF_6createISH_JEEEPT_DpOT0_EUlPSH_E_ED1B8ne180100Ev, symObjAddr: 0x130BC, symBinAddr: 0x100016048, symSize: 0x2C }
  - { offset: 0x3F72D, size: 0x8, addend: 0x0, symName: __ZNSt3__19allocatorINS_6vectorIN8nlohmann16json_abi_v3_11_210basic_jsonINS_3mapES1_NS_12basic_stringIcNS_11char_traitsIcEENS0_IcEEEEbxydS0_NS3_14adl_serializerENS1_IhNS0_IhEEEEEENS0_ISE_EEEEE8allocateB8ne180100Em, symObjAddr: 0x130E8, symBinAddr: 0x100016074, symSize: 0x5C }
  - { offset: 0x3F76D, size: 0x8, addend: 0x0, symName: __ZNSt3__116allocator_traitsINS_9allocatorINS_6vectorIN8nlohmann16json_abi_v3_11_210basic_jsonINS_3mapES2_NS_12basic_stringIcNS_11char_traitsIcEENS1_IcEEEEbxydS1_NS4_14adl_serializerENS2_IhNS1_IhEEEEEENS1_ISF_EEEEEEE8max_sizeB8ne180100ISI_vEEmRKSI_, symObjAddr: 0x13144, symBinAddr: 0x1000160D0, symSize: 0x24 }
  - { offset: 0x3F79B, size: 0x8, addend: 0x0, symName: __ZNKSt3__19allocatorINS_6vectorIN8nlohmann16json_abi_v3_11_210basic_jsonINS_3mapES1_NS_12basic_stringIcNS_11char_traitsIcEENS0_IcEEEEbxydS0_NS3_14adl_serializerENS1_IhNS0_IhEEEEEENS0_ISE_EEEEE8max_sizeB8ne180100Ev, symObjAddr: 0x13168, symBinAddr: 0x1000160F4, symSize: 0x18 }
  - { offset: 0x3F7C1, size: 0x8, addend: 0x0, symName: __ZNSt3__110unique_ptrINS_6vectorIN8nlohmann16json_abi_v3_11_210basic_jsonINS_3mapES1_NS_12basic_stringIcNS_11char_traitsIcEENS_9allocatorIcEEEEbxydS9_NS3_14adl_serializerENS1_IhNS9_IhEEEEEENS9_ISF_EEEEZNSF_6createISH_JEEEPT_DpOT0_EUlPSH_E_EC2B8ne180100ILb1EvEESO_NS_16__dependent_typeINS_27__unique_ptr_deleter_sfinaeISP_EEXT_EE15__lval_ref_typeE, symObjAddr: 0x13180, symBinAddr: 0x10001610C, symSize: 0x48 }
  - { offset: 0x3F814, size: 0x8, addend: 0x0, symName: __ZNSt3__117__compressed_pairIPNS_6vectorIN8nlohmann16json_abi_v3_11_210basic_jsonINS_3mapES1_NS_12basic_stringIcNS_11char_traitsIcEENS_9allocatorIcEEEEbxydS9_NS3_14adl_serializerENS1_IhNS9_IhEEEEEENS9_ISF_EEEEZNSF_6createISH_JEEEPT_DpOT0_EUlSI_E_EC1B8ne180100IRSI_RKSP_EEOSK_OT0_, symObjAddr: 0x131C8, symBinAddr: 0x100016154, symSize: 0x3C }
  - { offset: 0x3F86E, size: 0x8, addend: 0x0, symName: __ZNSt3__117__compressed_pairIPNS_6vectorIN8nlohmann16json_abi_v3_11_210basic_jsonINS_3mapES1_NS_12basic_stringIcNS_11char_traitsIcEENS_9allocatorIcEEEEbxydS9_NS3_14adl_serializerENS1_IhNS9_IhEEEEEENS9_ISF_EEEEZNSF_6createISH_JEEEPT_DpOT0_EUlSI_E_EC2B8ne180100IRSI_RKSP_EEOSK_OT0_, symObjAddr: 0x13204, symBinAddr: 0x100016190, symSize: 0x48 }
  - { offset: 0x3F8C8, size: 0x8, addend: 0x0, symName: __ZNSt3__122__compressed_pair_elemIPNS_6vectorIN8nlohmann16json_abi_v3_11_210basic_jsonINS_3mapES1_NS_12basic_stringIcNS_11char_traitsIcEENS_9allocatorIcEEEEbxydS9_NS3_14adl_serializerENS1_IhNS9_IhEEEEEENS9_ISF_EEEELi0ELb0EEC2B8ne180100IRSI_vEEOT_, symObjAddr: 0x1324C, symBinAddr: 0x1000161D8, symSize: 0x24 }
  - { offset: 0x3F90B, size: 0x8, addend: 0x0, symName: __ZNSt3__122__compressed_pair_elemIZN8nlohmann16json_abi_v3_11_210basic_jsonINS_3mapENS_6vectorENS_12basic_stringIcNS_11char_traitsIcEENS_9allocatorIcEEEEbxydS9_NS2_14adl_serializerENS5_IhNS9_IhEEEEE6createINS5_ISF_NS9_ISF_EEEEJEEEPT_DpOT0_EUlPSI_E_Li1ELb0EEC2B8ne180100IRKSP_vEEOSJ_, symObjAddr: 0x13270, symBinAddr: 0x1000161FC, symSize: 0x24 }
  - { offset: 0x3F94E, size: 0x8, addend: 0x0, symName: __ZNSt3__19allocatorINS_6vectorIN8nlohmann16json_abi_v3_11_210basic_jsonINS_3mapES1_NS_12basic_stringIcNS_11char_traitsIcEENS0_IcEEEEbxydS0_NS3_14adl_serializerENS1_IhNS0_IhEEEEEENS0_ISE_EEEEE9constructB8ne180100ISG_JEEEvPT_DpOT0_, symObjAddr: 0x13294, symBinAddr: 0x100016220, symSize: 0x28 }
  - { offset: 0x3F991, size: 0x8, addend: 0x0, symName: __ZNKSt3__117__compressed_pairIPNS_6vectorIN8nlohmann16json_abi_v3_11_210basic_jsonINS_3mapES1_NS_12basic_stringIcNS_11char_traitsIcEENS_9allocatorIcEEEEbxydS9_NS3_14adl_serializerENS1_IhNS9_IhEEEEEENS9_ISF_EEEEZNSF_6createISH_JEEEPT_DpOT0_EUlSI_E_E5firstB8ne180100Ev, symObjAddr: 0x132BC, symBinAddr: 0x100016248, symSize: 0x24 }
  - { offset: 0x3F9B7, size: 0x8, addend: 0x0, symName: __ZNKSt3__122__compressed_pair_elemIPNS_6vectorIN8nlohmann16json_abi_v3_11_210basic_jsonINS_3mapES1_NS_12basic_stringIcNS_11char_traitsIcEENS_9allocatorIcEEEEbxydS9_NS3_14adl_serializerENS1_IhNS9_IhEEEEEENS9_ISF_EEEELi0ELb0EE5__getB8ne180100Ev, symObjAddr: 0x132E0, symBinAddr: 0x10001626C, symSize: 0x14 }
  - { offset: 0x3F9DD, size: 0x8, addend: 0x0, symName: __ZNKSt3__110unique_ptrINS_6vectorIN8nlohmann16json_abi_v3_11_210basic_jsonINS_3mapES1_NS_12basic_stringIcNS_11char_traitsIcEENS_9allocatorIcEEEEbxydS9_NS3_14adl_serializerENS1_IhNS9_IhEEEEEENS9_ISF_EEEEZNSF_6createISH_JEEEPT_DpOT0_EUlPSH_E_EcvbB8ne180100Ev, symObjAddr: 0x132F4, symBinAddr: 0x100016280, symSize: 0x34 }
  - { offset: 0x3FA03, size: 0x8, addend: 0x0, symName: __ZNSt3__117__compressed_pairIPNS_6vectorIN8nlohmann16json_abi_v3_11_210basic_jsonINS_3mapES1_NS_12basic_stringIcNS_11char_traitsIcEENS_9allocatorIcEEEEbxydS9_NS3_14adl_serializerENS1_IhNS9_IhEEEEEENS9_ISF_EEEEZNSF_6createISH_JEEEPT_DpOT0_EUlSI_E_E5firstB8ne180100Ev, symObjAddr: 0x13328, symBinAddr: 0x1000162B4, symSize: 0x24 }
  - { offset: 0x3FA29, size: 0x8, addend: 0x0, symName: __ZNSt3__122__compressed_pair_elemIPNS_6vectorIN8nlohmann16json_abi_v3_11_210basic_jsonINS_3mapES1_NS_12basic_stringIcNS_11char_traitsIcEENS_9allocatorIcEEEEbxydS9_NS3_14adl_serializerENS1_IhNS9_IhEEEEEENS9_ISF_EEEELi0ELb0EE5__getB8ne180100Ev, symObjAddr: 0x1334C, symBinAddr: 0x1000162D8, symSize: 0x14 }
  - { offset: 0x3FA4F, size: 0x8, addend: 0x0, symName: __ZNSt3__110unique_ptrINS_6vectorIN8nlohmann16json_abi_v3_11_210basic_jsonINS_3mapES1_NS_12basic_stringIcNS_11char_traitsIcEENS_9allocatorIcEEEEbxydS9_NS3_14adl_serializerENS1_IhNS9_IhEEEEEENS9_ISF_EEEEZNSF_6createISH_JEEEPT_DpOT0_EUlPSH_E_ED2B8ne180100Ev, symObjAddr: 0x13360, symBinAddr: 0x1000162EC, symSize: 0x30 }
  - { offset: 0x3FA79, size: 0x8, addend: 0x0, symName: __ZNSt3__110unique_ptrINS_6vectorIN8nlohmann16json_abi_v3_11_210basic_jsonINS_3mapES1_NS_12basic_stringIcNS_11char_traitsIcEENS_9allocatorIcEEEEbxydS9_NS3_14adl_serializerENS1_IhNS9_IhEEEEEENS9_ISF_EEEEZNSF_6createISH_JEEEPT_DpOT0_EUlPSH_E_E5resetB8ne180100ESO_, symObjAddr: 0x13390, symBinAddr: 0x10001631C, symSize: 0x80 }
  - { offset: 0x3FABD, size: 0x8, addend: 0x0, symName: __ZNSt3__117__compressed_pairIPNS_6vectorIN8nlohmann16json_abi_v3_11_210basic_jsonINS_3mapES1_NS_12basic_stringIcNS_11char_traitsIcEENS_9allocatorIcEEEEbxydS9_NS3_14adl_serializerENS1_IhNS9_IhEEEEEENS9_ISF_EEEEZNSF_6createISH_JEEEPT_DpOT0_EUlSI_E_E6secondB8ne180100Ev, symObjAddr: 0x13410, symBinAddr: 0x10001639C, symSize: 0x28 }
  - { offset: 0x3FAE9, size: 0x8, addend: 0x0, symName: __ZZN8nlohmann16json_abi_v3_11_210basic_jsonINSt3__13mapENS2_6vectorENS2_12basic_stringIcNS2_11char_traitsIcEENS2_9allocatorIcEEEEbxydS8_NS0_14adl_serializerENS4_IhNS8_IhEEEEE6createINS4_ISE_NS8_ISE_EEEEJEEEPT_DpOT0_ENKUlPSH_E_clESN_, symObjAddr: 0x13438, symBinAddr: 0x1000163C4, symSize: 0x34 }
  - { offset: 0x3FB22, size: 0x8, addend: 0x0, symName: __ZNSt3__122__compressed_pair_elemIZN8nlohmann16json_abi_v3_11_210basic_jsonINS_3mapENS_6vectorENS_12basic_stringIcNS_11char_traitsIcEENS_9allocatorIcEEEEbxydS9_NS2_14adl_serializerENS5_IhNS9_IhEEEEE6createINS5_ISF_NS9_ISF_EEEEJEEEPT_DpOT0_EUlPSI_E_Li1ELb0EE5__getB8ne180100Ev, symObjAddr: 0x1346C, symBinAddr: 0x1000163F8, symSize: 0x14 }
  - { offset: 0x3FB48, size: 0x8, addend: 0x0, symName: __ZNSt3__116allocator_traitsINS_9allocatorINS_12basic_stringIcNS_11char_traitsIcEENS1_IcEEEEEEE8allocateB8ne180100ERS7_m, symObjAddr: 0x13480, symBinAddr: 0x10001640C, symSize: 0x2C }
  - { offset: 0x3FBEE, size: 0x8, addend: 0x0, symName: __ZNSt3__110unique_ptrINS_12basic_stringIcNS_11char_traitsIcEENS_9allocatorIcEEEEZN8nlohmann16json_abi_v3_11_210basic_jsonINS_3mapENS_6vectorES6_bxydS4_NS8_14adl_serializerENSB_IhNS4_IhEEEEE6createIS6_JRA1_KcEEEPT_DpOT0_EUlPS6_E_EC1B8ne180100ILb1EvEESP_NS_16__dependent_typeINS_27__unique_ptr_deleter_sfinaeISQ_EEXT_EE15__lval_ref_typeE, symObjAddr: 0x134AC, symBinAddr: 0x100016438, symSize: 0x3C }
  - { offset: 0x3FC41, size: 0x8, addend: 0x0, symName: __ZNSt3__116allocator_traitsINS_9allocatorINS_12basic_stringIcNS_11char_traitsIcEENS1_IcEEEEEEE9constructB8ne180100IS6_JRA1_KcEvEEvRS7_PT_DpOT0_, symObjAddr: 0x134E8, symBinAddr: 0x100016474, symSize: 0x34 }
  - { offset: 0x3FC98, size: 0x8, addend: 0x0, symName: __ZNKSt3__110unique_ptrINS_12basic_stringIcNS_11char_traitsIcEENS_9allocatorIcEEEEZN8nlohmann16json_abi_v3_11_210basic_jsonINS_3mapENS_6vectorES6_bxydS4_NS8_14adl_serializerENSB_IhNS4_IhEEEEE6createIS6_JRA1_KcEEEPT_DpOT0_EUlPS6_E_E3getB8ne180100Ev, symObjAddr: 0x1351C, symBinAddr: 0x1000164A8, symSize: 0x28 }
  - { offset: 0x3FCBE, size: 0x8, addend: 0x0, symName: __ZNSt3__110unique_ptrINS_12basic_stringIcNS_11char_traitsIcEENS_9allocatorIcEEEEZN8nlohmann16json_abi_v3_11_210basic_jsonINS_3mapENS_6vectorES6_bxydS4_NS8_14adl_serializerENSB_IhNS4_IhEEEEE6createIS6_JRA1_KcEEEPT_DpOT0_EUlPS6_E_E7releaseB8ne180100Ev, symObjAddr: 0x13570, symBinAddr: 0x1000164FC, symSize: 0x44 }
  - { offset: 0x3FCF3, size: 0x8, addend: 0x0, symName: __ZNSt3__110unique_ptrINS_12basic_stringIcNS_11char_traitsIcEENS_9allocatorIcEEEEZN8nlohmann16json_abi_v3_11_210basic_jsonINS_3mapENS_6vectorES6_bxydS4_NS8_14adl_serializerENSB_IhNS4_IhEEEEE6createIS6_JRA1_KcEEEPT_DpOT0_EUlPS6_E_ED1B8ne180100Ev, symObjAddr: 0x135B4, symBinAddr: 0x100016540, symSize: 0x2C }
  - { offset: 0x3FD1D, size: 0x8, addend: 0x0, symName: __ZNSt3__19allocatorINS_12basic_stringIcNS_11char_traitsIcEENS0_IcEEEEE8allocateB8ne180100Em, symObjAddr: 0x135E0, symBinAddr: 0x10001656C, symSize: 0x5C }
  - { offset: 0x3FD5D, size: 0x8, addend: 0x0, symName: __ZNSt3__116allocator_traitsINS_9allocatorINS_12basic_stringIcNS_11char_traitsIcEENS1_IcEEEEEEE8max_sizeB8ne180100IS7_vEEmRKS7_, symObjAddr: 0x1363C, symBinAddr: 0x1000165C8, symSize: 0x24 }
  - { offset: 0x3FD8B, size: 0x8, addend: 0x0, symName: __ZNKSt3__19allocatorINS_12basic_stringIcNS_11char_traitsIcEENS0_IcEEEEE8max_sizeB8ne180100Ev, symObjAddr: 0x13660, symBinAddr: 0x1000165EC, symSize: 0x18 }
  - { offset: 0x3FDB1, size: 0x8, addend: 0x0, symName: __ZNSt3__110unique_ptrINS_12basic_stringIcNS_11char_traitsIcEENS_9allocatorIcEEEEZN8nlohmann16json_abi_v3_11_210basic_jsonINS_3mapENS_6vectorES6_bxydS4_NS8_14adl_serializerENSB_IhNS4_IhEEEEE6createIS6_JRA1_KcEEEPT_DpOT0_EUlPS6_E_EC2B8ne180100ILb1EvEESP_NS_16__dependent_typeINS_27__unique_ptr_deleter_sfinaeISQ_EEXT_EE15__lval_ref_typeE, symObjAddr: 0x13678, symBinAddr: 0x100016604, symSize: 0x48 }
  - { offset: 0x3FE0A, size: 0x8, addend: 0x0, symName: __ZNSt3__117__compressed_pairIPNS_12basic_stringIcNS_11char_traitsIcEENS_9allocatorIcEEEEZN8nlohmann16json_abi_v3_11_210basic_jsonINS_3mapENS_6vectorES6_bxydS4_NS9_14adl_serializerENSC_IhNS4_IhEEEEE6createIS6_JRA1_KcEEEPT_DpOT0_EUlS7_E_EC1B8ne180100IRS7_RKSQ_EEOSL_OT0_, symObjAddr: 0x136C0, symBinAddr: 0x10001664C, symSize: 0x3C }
  - { offset: 0x3FE64, size: 0x8, addend: 0x0, symName: __ZNSt3__117__compressed_pairIPNS_12basic_stringIcNS_11char_traitsIcEENS_9allocatorIcEEEEZN8nlohmann16json_abi_v3_11_210basic_jsonINS_3mapENS_6vectorES6_bxydS4_NS9_14adl_serializerENSC_IhNS4_IhEEEEE6createIS6_JRA1_KcEEEPT_DpOT0_EUlS7_E_EC2B8ne180100IRS7_RKSQ_EEOSL_OT0_, symObjAddr: 0x136FC, symBinAddr: 0x100016688, symSize: 0x48 }
  - { offset: 0x3FEBE, size: 0x8, addend: 0x0, symName: __ZNSt3__122__compressed_pair_elemIPNS_12basic_stringIcNS_11char_traitsIcEENS_9allocatorIcEEEELi0ELb0EEC2B8ne180100IRS7_vEEOT_, symObjAddr: 0x13744, symBinAddr: 0x1000166D0, symSize: 0x24 }
  - { offset: 0x3FF01, size: 0x8, addend: 0x0, symName: __ZNSt3__122__compressed_pair_elemIZN8nlohmann16json_abi_v3_11_210basic_jsonINS_3mapENS_6vectorENS_12basic_stringIcNS_11char_traitsIcEENS_9allocatorIcEEEEbxydS9_NS2_14adl_serializerENS5_IhNS9_IhEEEEE6createISB_JRA1_KcEEEPT_DpOT0_EUlPSB_E_Li1ELb0EEC2B8ne180100IRKSQ_vEEOSK_, symObjAddr: 0x13768, symBinAddr: 0x1000166F4, symSize: 0x24 }
  - { offset: 0x3FF44, size: 0x8, addend: 0x0, symName: __ZNSt3__19allocatorINS_12basic_stringIcNS_11char_traitsIcEENS0_IcEEEEE9constructB8ne180100IS5_JRA1_KcEEEvPT_DpOT0_, symObjAddr: 0x1378C, symBinAddr: 0x100016718, symSize: 0x30 }
  - { offset: 0x3FF9C, size: 0x8, addend: 0x0, symName: __ZNKSt3__117__compressed_pairIPNS_12basic_stringIcNS_11char_traitsIcEENS_9allocatorIcEEEEZN8nlohmann16json_abi_v3_11_210basic_jsonINS_3mapENS_6vectorES6_bxydS4_NS9_14adl_serializerENSC_IhNS4_IhEEEEE6createIS6_JRA1_KcEEEPT_DpOT0_EUlS7_E_E5firstB8ne180100Ev, symObjAddr: 0x137BC, symBinAddr: 0x100016748, symSize: 0x24 }
  - { offset: 0x3FFC2, size: 0x8, addend: 0x0, symName: __ZNKSt3__122__compressed_pair_elemIPNS_12basic_stringIcNS_11char_traitsIcEENS_9allocatorIcEEEELi0ELb0EE5__getB8ne180100Ev, symObjAddr: 0x137E0, symBinAddr: 0x10001676C, symSize: 0x14 }
  - { offset: 0x3FFE8, size: 0x8, addend: 0x0, symName: __ZNKSt3__110unique_ptrINS_12basic_stringIcNS_11char_traitsIcEENS_9allocatorIcEEEEZN8nlohmann16json_abi_v3_11_210basic_jsonINS_3mapENS_6vectorES6_bxydS4_NS8_14adl_serializerENSB_IhNS4_IhEEEEE6createIS6_JRA1_KcEEEPT_DpOT0_EUlPS6_E_EcvbB8ne180100Ev, symObjAddr: 0x137F4, symBinAddr: 0x100016780, symSize: 0x34 }
  - { offset: 0x4000E, size: 0x8, addend: 0x0, symName: __ZNSt3__117__compressed_pairIPNS_12basic_stringIcNS_11char_traitsIcEENS_9allocatorIcEEEEZN8nlohmann16json_abi_v3_11_210basic_jsonINS_3mapENS_6vectorES6_bxydS4_NS9_14adl_serializerENSC_IhNS4_IhEEEEE6createIS6_JRA1_KcEEEPT_DpOT0_EUlS7_E_E5firstB8ne180100Ev, symObjAddr: 0x13828, symBinAddr: 0x1000167B4, symSize: 0x24 }
  - { offset: 0x40034, size: 0x8, addend: 0x0, symName: __ZNSt3__122__compressed_pair_elemIPNS_12basic_stringIcNS_11char_traitsIcEENS_9allocatorIcEEEELi0ELb0EE5__getB8ne180100Ev, symObjAddr: 0x1384C, symBinAddr: 0x1000167D8, symSize: 0x14 }
  - { offset: 0x4005A, size: 0x8, addend: 0x0, symName: __ZNSt3__110unique_ptrINS_12basic_stringIcNS_11char_traitsIcEENS_9allocatorIcEEEEZN8nlohmann16json_abi_v3_11_210basic_jsonINS_3mapENS_6vectorES6_bxydS4_NS8_14adl_serializerENSB_IhNS4_IhEEEEE6createIS6_JRA1_KcEEEPT_DpOT0_EUlPS6_E_ED2B8ne180100Ev, symObjAddr: 0x13860, symBinAddr: 0x1000167EC, symSize: 0x30 }
  - { offset: 0x40084, size: 0x8, addend: 0x0, symName: __ZNSt3__110unique_ptrINS_12basic_stringIcNS_11char_traitsIcEENS_9allocatorIcEEEEZN8nlohmann16json_abi_v3_11_210basic_jsonINS_3mapENS_6vectorES6_bxydS4_NS8_14adl_serializerENSB_IhNS4_IhEEEEE6createIS6_JRA1_KcEEEPT_DpOT0_EUlPS6_E_E5resetB8ne180100ESP_, symObjAddr: 0x13890, symBinAddr: 0x10001681C, symSize: 0x80 }
  - { offset: 0x400C8, size: 0x8, addend: 0x0, symName: __ZNSt3__117__compressed_pairIPNS_12basic_stringIcNS_11char_traitsIcEENS_9allocatorIcEEEEZN8nlohmann16json_abi_v3_11_210basic_jsonINS_3mapENS_6vectorES6_bxydS4_NS9_14adl_serializerENSC_IhNS4_IhEEEEE6createIS6_JRA1_KcEEEPT_DpOT0_EUlS7_E_E6secondB8ne180100Ev, symObjAddr: 0x13910, symBinAddr: 0x10001689C, symSize: 0x28 }
  - { offset: 0x400F4, size: 0x8, addend: 0x0, symName: __ZZN8nlohmann16json_abi_v3_11_210basic_jsonINSt3__13mapENS2_6vectorENS2_12basic_stringIcNS2_11char_traitsIcEENS2_9allocatorIcEEEEbxydS8_NS0_14adl_serializerENS4_IhNS8_IhEEEEE6createISA_JRA1_KcEEEPT_DpOT0_ENKUlPSA_E_clESO_, symObjAddr: 0x13938, symBinAddr: 0x1000168C4, symSize: 0x34 }
  - { offset: 0x4012D, size: 0x8, addend: 0x0, symName: __ZNSt3__122__compressed_pair_elemIZN8nlohmann16json_abi_v3_11_210basic_jsonINS_3mapENS_6vectorENS_12basic_stringIcNS_11char_traitsIcEENS_9allocatorIcEEEEbxydS9_NS2_14adl_serializerENS5_IhNS9_IhEEEEE6createISB_JRA1_KcEEEPT_DpOT0_EUlPSB_E_Li1ELb0EE5__getB8ne180100Ev, symObjAddr: 0x1396C, symBinAddr: 0x1000168F8, symSize: 0x14 }
  - { offset: 0x40153, size: 0x8, addend: 0x0, symName: __ZNSt3__116allocator_traitsINS_9allocatorIN8nlohmann16json_abi_v3_11_227byte_container_with_subtypeINS_6vectorIhNS1_IhEEEEEEEEE8allocateB8ne180100ERS9_m, symObjAddr: 0x13980, symBinAddr: 0x10001690C, symSize: 0x2C }
  - { offset: 0x40227, size: 0x8, addend: 0x0, symName: __ZNSt3__110unique_ptrIN8nlohmann16json_abi_v3_11_227byte_container_with_subtypeINS_6vectorIhNS_9allocatorIhEEEEEEZNS2_10basic_jsonINS_3mapES4_NS_12basic_stringIcNS_11char_traitsIcEENS5_IcEEEEbxydS5_NS2_14adl_serializerES7_E6createIS8_JEEEPT_DpOT0_EUlPS8_E_EC1B8ne180100ILb1EvEESO_NS_16__dependent_typeINS_27__unique_ptr_deleter_sfinaeISP_EEXT_EE15__lval_ref_typeE, symObjAddr: 0x139AC, symBinAddr: 0x100016938, symSize: 0x3C }
  - { offset: 0x4027A, size: 0x8, addend: 0x0, symName: __ZNSt3__116allocator_traitsINS_9allocatorIN8nlohmann16json_abi_v3_11_227byte_container_with_subtypeINS_6vectorIhNS1_IhEEEEEEEEE9constructB8ne180100IS8_JEvEEvRS9_PT_DpOT0_, symObjAddr: 0x139E8, symBinAddr: 0x100016974, symSize: 0x2C }
  - { offset: 0x402BC, size: 0x8, addend: 0x0, symName: __ZNKSt3__110unique_ptrIN8nlohmann16json_abi_v3_11_227byte_container_with_subtypeINS_6vectorIhNS_9allocatorIhEEEEEEZNS2_10basic_jsonINS_3mapES4_NS_12basic_stringIcNS_11char_traitsIcEENS5_IcEEEEbxydS5_NS2_14adl_serializerES7_E6createIS8_JEEEPT_DpOT0_EUlPS8_E_E3getB8ne180100Ev, symObjAddr: 0x13A14, symBinAddr: 0x1000169A0, symSize: 0x28 }
  - { offset: 0x402E2, size: 0x8, addend: 0x0, symName: __ZNSt3__110unique_ptrIN8nlohmann16json_abi_v3_11_227byte_container_with_subtypeINS_6vectorIhNS_9allocatorIhEEEEEEZNS2_10basic_jsonINS_3mapES4_NS_12basic_stringIcNS_11char_traitsIcEENS5_IcEEEEbxydS5_NS2_14adl_serializerES7_E6createIS8_JEEEPT_DpOT0_EUlPS8_E_E7releaseB8ne180100Ev, symObjAddr: 0x13A68, symBinAddr: 0x1000169F4, symSize: 0x44 }
  - { offset: 0x40317, size: 0x8, addend: 0x0, symName: __ZNSt3__110unique_ptrIN8nlohmann16json_abi_v3_11_227byte_container_with_subtypeINS_6vectorIhNS_9allocatorIhEEEEEEZNS2_10basic_jsonINS_3mapES4_NS_12basic_stringIcNS_11char_traitsIcEENS5_IcEEEEbxydS5_NS2_14adl_serializerES7_E6createIS8_JEEEPT_DpOT0_EUlPS8_E_ED1B8ne180100Ev, symObjAddr: 0x13AAC, symBinAddr: 0x100016A38, symSize: 0x2C }
  - { offset: 0x40341, size: 0x8, addend: 0x0, symName: __ZNSt3__19allocatorIN8nlohmann16json_abi_v3_11_227byte_container_with_subtypeINS_6vectorIhNS0_IhEEEEEEE8allocateB8ne180100Em, symObjAddr: 0x13AD8, symBinAddr: 0x100016A64, symSize: 0x5C }
  - { offset: 0x40381, size: 0x8, addend: 0x0, symName: __ZNSt3__116allocator_traitsINS_9allocatorIN8nlohmann16json_abi_v3_11_227byte_container_with_subtypeINS_6vectorIhNS1_IhEEEEEEEEE8max_sizeB8ne180100IS9_vEEmRKS9_, symObjAddr: 0x13B34, symBinAddr: 0x100016AC0, symSize: 0x24 }
  - { offset: 0x403AF, size: 0x8, addend: 0x0, symName: __ZNKSt3__19allocatorIN8nlohmann16json_abi_v3_11_227byte_container_with_subtypeINS_6vectorIhNS0_IhEEEEEEE8max_sizeB8ne180100Ev, symObjAddr: 0x13B58, symBinAddr: 0x100016AE4, symSize: 0x18 }
  - { offset: 0x403D5, size: 0x8, addend: 0x0, symName: __ZNSt3__110unique_ptrIN8nlohmann16json_abi_v3_11_227byte_container_with_subtypeINS_6vectorIhNS_9allocatorIhEEEEEEZNS2_10basic_jsonINS_3mapES4_NS_12basic_stringIcNS_11char_traitsIcEENS5_IcEEEEbxydS5_NS2_14adl_serializerES7_E6createIS8_JEEEPT_DpOT0_EUlPS8_E_EC2B8ne180100ILb1EvEESO_NS_16__dependent_typeINS_27__unique_ptr_deleter_sfinaeISP_EEXT_EE15__lval_ref_typeE, symObjAddr: 0x13B70, symBinAddr: 0x100016AFC, symSize: 0x48 }
  - { offset: 0x40428, size: 0x8, addend: 0x0, symName: __ZNSt3__117__compressed_pairIPN8nlohmann16json_abi_v3_11_227byte_container_with_subtypeINS_6vectorIhNS_9allocatorIhEEEEEEZNS2_10basic_jsonINS_3mapES4_NS_12basic_stringIcNS_11char_traitsIcEENS5_IcEEEEbxydS5_NS2_14adl_serializerES7_E6createIS8_JEEEPT_DpOT0_EUlS9_E_EC1B8ne180100IRS9_RKSP_EEOSK_OT0_, symObjAddr: 0x13BB8, symBinAddr: 0x100016B44, symSize: 0x3C }
  - { offset: 0x40482, size: 0x8, addend: 0x0, symName: __ZNSt3__117__compressed_pairIPN8nlohmann16json_abi_v3_11_227byte_container_with_subtypeINS_6vectorIhNS_9allocatorIhEEEEEEZNS2_10basic_jsonINS_3mapES4_NS_12basic_stringIcNS_11char_traitsIcEENS5_IcEEEEbxydS5_NS2_14adl_serializerES7_E6createIS8_JEEEPT_DpOT0_EUlS9_E_EC2B8ne180100IRS9_RKSP_EEOSK_OT0_, symObjAddr: 0x13BF4, symBinAddr: 0x100016B80, symSize: 0x48 }
  - { offset: 0x404DC, size: 0x8, addend: 0x0, symName: __ZNSt3__122__compressed_pair_elemIPN8nlohmann16json_abi_v3_11_227byte_container_with_subtypeINS_6vectorIhNS_9allocatorIhEEEEEELi0ELb0EEC2B8ne180100IRS9_vEEOT_, symObjAddr: 0x13C3C, symBinAddr: 0x100016BC8, symSize: 0x24 }
  - { offset: 0x4051F, size: 0x8, addend: 0x0, symName: __ZNSt3__122__compressed_pair_elemIZN8nlohmann16json_abi_v3_11_210basic_jsonINS_3mapENS_6vectorENS_12basic_stringIcNS_11char_traitsIcEENS_9allocatorIcEEEEbxydS9_NS2_14adl_serializerENS5_IhNS9_IhEEEEE6createINS2_27byte_container_with_subtypeISE_EEJEEEPT_DpOT0_EUlPSI_E_Li1ELb0EEC2B8ne180100IRKSP_vEEOSJ_, symObjAddr: 0x13C60, symBinAddr: 0x100016BEC, symSize: 0x24 }
  - { offset: 0x40562, size: 0x8, addend: 0x0, symName: __ZNSt3__19allocatorIN8nlohmann16json_abi_v3_11_227byte_container_with_subtypeINS_6vectorIhNS0_IhEEEEEEE9constructB8ne180100IS7_JEEEvPT_DpOT0_, symObjAddr: 0x13C84, symBinAddr: 0x100016C10, symSize: 0x28 }
  - { offset: 0x405A5, size: 0x8, addend: 0x0, symName: __ZN8nlohmann16json_abi_v3_11_227byte_container_with_subtypeINSt3__16vectorIhNS2_9allocatorIhEEEEEC1Ev, symObjAddr: 0x13CAC, symBinAddr: 0x100016C38, symSize: 0x2C }
  - { offset: 0x405CF, size: 0x8, addend: 0x0, symName: __ZN8nlohmann16json_abi_v3_11_227byte_container_with_subtypeINSt3__16vectorIhNS2_9allocatorIhEEEEEC2Ev, symObjAddr: 0x13CD8, symBinAddr: 0x100016C64, symSize: 0x34 }
  - { offset: 0x405F9, size: 0x8, addend: 0x0, symName: __ZNSt3__16vectorIhNS_9allocatorIhEEEC2B8ne180100Ev, symObjAddr: 0x13D0C, symBinAddr: 0x100016C98, symSize: 0x4C }
  - { offset: 0x40623, size: 0x8, addend: 0x0, symName: __ZNSt3__117__compressed_pairIPhNS_9allocatorIhEEEC1B8ne180100IDnNS_18__default_init_tagEEEOT_OT0_, symObjAddr: 0x13D58, symBinAddr: 0x100016CE4, symSize: 0x3C }
  - { offset: 0x4067D, size: 0x8, addend: 0x0, symName: __ZNSt3__117__compressed_pairIPhNS_9allocatorIhEEEC2B8ne180100IDnNS_18__default_init_tagEEEOT_OT0_, symObjAddr: 0x13D94, symBinAddr: 0x100016D20, symSize: 0x40 }
  - { offset: 0x406D7, size: 0x8, addend: 0x0, symName: __ZNSt3__122__compressed_pair_elemIPhLi0ELb0EEC2B8ne180100IDnvEEOT_, symObjAddr: 0x13DD4, symBinAddr: 0x100016D60, symSize: 0x1C }
  - { offset: 0x4071A, size: 0x8, addend: 0x0, symName: __ZNSt3__122__compressed_pair_elemINS_9allocatorIhEELi1ELb1EEC2B8ne180100ENS_18__default_init_tagE, symObjAddr: 0x13DF0, symBinAddr: 0x100016D7C, symSize: 0x2C }
  - { offset: 0x4074F, size: 0x8, addend: 0x0, symName: __ZNSt3__19allocatorIhEC2B8ne180100Ev, symObjAddr: 0x13E1C, symBinAddr: 0x100016DA8, symSize: 0x2C }
  - { offset: 0x40779, size: 0x8, addend: 0x0, symName: __ZNSt3__116__non_trivial_ifILb1ENS_9allocatorIhEEEC2B8ne180100Ev, symObjAddr: 0x13E48, symBinAddr: 0x100016DD4, symSize: 0x14 }
  - { offset: 0x407A3, size: 0x8, addend: 0x0, symName: __ZNKSt3__117__compressed_pairIPN8nlohmann16json_abi_v3_11_227byte_container_with_subtypeINS_6vectorIhNS_9allocatorIhEEEEEEZNS2_10basic_jsonINS_3mapES4_NS_12basic_stringIcNS_11char_traitsIcEENS5_IcEEEEbxydS5_NS2_14adl_serializerES7_E6createIS8_JEEEPT_DpOT0_EUlS9_E_E5firstB8ne180100Ev, symObjAddr: 0x13E5C, symBinAddr: 0x100016DE8, symSize: 0x24 }
  - { offset: 0x407C9, size: 0x8, addend: 0x0, symName: __ZNKSt3__122__compressed_pair_elemIPN8nlohmann16json_abi_v3_11_227byte_container_with_subtypeINS_6vectorIhNS_9allocatorIhEEEEEELi0ELb0EE5__getB8ne180100Ev, symObjAddr: 0x13E80, symBinAddr: 0x100016E0C, symSize: 0x14 }
  - { offset: 0x407EF, size: 0x8, addend: 0x0, symName: __ZNKSt3__110unique_ptrIN8nlohmann16json_abi_v3_11_227byte_container_with_subtypeINS_6vectorIhNS_9allocatorIhEEEEEEZNS2_10basic_jsonINS_3mapES4_NS_12basic_stringIcNS_11char_traitsIcEENS5_IcEEEEbxydS5_NS2_14adl_serializerES7_E6createIS8_JEEEPT_DpOT0_EUlPS8_E_EcvbB8ne180100Ev, symObjAddr: 0x13E94, symBinAddr: 0x100016E20, symSize: 0x34 }
  - { offset: 0x40815, size: 0x8, addend: 0x0, symName: __ZNSt3__117__compressed_pairIPN8nlohmann16json_abi_v3_11_227byte_container_with_subtypeINS_6vectorIhNS_9allocatorIhEEEEEEZNS2_10basic_jsonINS_3mapES4_NS_12basic_stringIcNS_11char_traitsIcEENS5_IcEEEEbxydS5_NS2_14adl_serializerES7_E6createIS8_JEEEPT_DpOT0_EUlS9_E_E5firstB8ne180100Ev, symObjAddr: 0x13EC8, symBinAddr: 0x100016E54, symSize: 0x24 }
  - { offset: 0x4083B, size: 0x8, addend: 0x0, symName: __ZNSt3__122__compressed_pair_elemIPN8nlohmann16json_abi_v3_11_227byte_container_with_subtypeINS_6vectorIhNS_9allocatorIhEEEEEELi0ELb0EE5__getB8ne180100Ev, symObjAddr: 0x13EEC, symBinAddr: 0x100016E78, symSize: 0x14 }
  - { offset: 0x40861, size: 0x8, addend: 0x0, symName: __ZNSt3__110unique_ptrIN8nlohmann16json_abi_v3_11_227byte_container_with_subtypeINS_6vectorIhNS_9allocatorIhEEEEEEZNS2_10basic_jsonINS_3mapES4_NS_12basic_stringIcNS_11char_traitsIcEENS5_IcEEEEbxydS5_NS2_14adl_serializerES7_E6createIS8_JEEEPT_DpOT0_EUlPS8_E_ED2B8ne180100Ev, symObjAddr: 0x13F00, symBinAddr: 0x100016E8C, symSize: 0x30 }
  - { offset: 0x4088B, size: 0x8, addend: 0x0, symName: __ZNSt3__110unique_ptrIN8nlohmann16json_abi_v3_11_227byte_container_with_subtypeINS_6vectorIhNS_9allocatorIhEEEEEEZNS2_10basic_jsonINS_3mapES4_NS_12basic_stringIcNS_11char_traitsIcEENS5_IcEEEEbxydS5_NS2_14adl_serializerES7_E6createIS8_JEEEPT_DpOT0_EUlPS8_E_E5resetB8ne180100ESO_, symObjAddr: 0x13F30, symBinAddr: 0x100016EBC, symSize: 0x80 }
  - { offset: 0x408CF, size: 0x8, addend: 0x0, symName: __ZNSt3__117__compressed_pairIPN8nlohmann16json_abi_v3_11_227byte_container_with_subtypeINS_6vectorIhNS_9allocatorIhEEEEEEZNS2_10basic_jsonINS_3mapES4_NS_12basic_stringIcNS_11char_traitsIcEENS5_IcEEEEbxydS5_NS2_14adl_serializerES7_E6createIS8_JEEEPT_DpOT0_EUlS9_E_E6secondB8ne180100Ev, symObjAddr: 0x13FB0, symBinAddr: 0x100016F3C, symSize: 0x28 }
  - { offset: 0x408FB, size: 0x8, addend: 0x0, symName: __ZZN8nlohmann16json_abi_v3_11_210basic_jsonINSt3__13mapENS2_6vectorENS2_12basic_stringIcNS2_11char_traitsIcEENS2_9allocatorIcEEEEbxydS8_NS0_14adl_serializerENS4_IhNS8_IhEEEEE6createINS0_27byte_container_with_subtypeISD_EEJEEEPT_DpOT0_ENKUlPSH_E_clESN_, symObjAddr: 0x13FD8, symBinAddr: 0x100016F64, symSize: 0x34 }
  - { offset: 0x40934, size: 0x8, addend: 0x0, symName: __ZNSt3__122__compressed_pair_elemIZN8nlohmann16json_abi_v3_11_210basic_jsonINS_3mapENS_6vectorENS_12basic_stringIcNS_11char_traitsIcEENS_9allocatorIcEEEEbxydS9_NS2_14adl_serializerENS5_IhNS9_IhEEEEE6createINS2_27byte_container_with_subtypeISE_EEJEEEPT_DpOT0_EUlPSI_E_Li1ELb0EE5__getB8ne180100Ev, symObjAddr: 0x1400C, symBinAddr: 0x100016F98, symSize: 0x14 }
  - { offset: 0x4095A, size: 0x8, addend: 0x0, symName: __ZN8nlohmann16json_abi_v3_11_26detail9exception11diagnosticsEDn, symObjAddr: 0x14020, symBinAddr: 0x100016FAC, symSize: 0x3C }
  - { offset: 0x4097A, size: 0x8, addend: 0x0, symName: __ZN8nlohmann16json_abi_v3_11_26detail11other_errorC1EiPKc, symObjAddr: 0x1405C, symBinAddr: 0x100016FE8, symSize: 0x3C }
  - { offset: 0x409C2, size: 0x8, addend: 0x0, symName: __ZN8nlohmann16json_abi_v3_11_26detail11other_errorC2EiPKc, symObjAddr: 0x14098, symBinAddr: 0x100017024, symSize: 0x4C }
  - { offset: 0x40A0A, size: 0x8, addend: 0x0, symName: __ZN8nlohmann16json_abi_v3_11_26detail11other_errorD0Ev, symObjAddr: 0x140E4, symBinAddr: 0x100017070, symSize: 0x30 }
  - { offset: 0x40A37, size: 0x8, addend: 0x0, symName: __ZN8nlohmann16json_abi_v3_11_26detail11other_errorD2Ev, symObjAddr: 0x14114, symBinAddr: 0x1000170A0, symSize: 0x2C }
  - { offset: 0x40A74, size: 0x8, addend: 0x0, symName: __ZN8nlohmann16json_abi_v3_11_210basic_jsonINSt3__13mapENS2_6vectorENS2_12basic_stringIcNS2_11char_traitsIcEENS2_9allocatorIcEEEEbxydS8_NS0_14adl_serializerENS4_IhNS8_IhEEEEE6parserINS0_6detail20input_stream_adapterEEENSG_6parserISE_T_EESJ_NS2_8functionIFbiNSG_13parse_event_tERSE_EEEbb, symObjAddr: 0x14140, symBinAddr: 0x1000170CC, symSize: 0xD0 }
  - { offset: 0x40AD0, size: 0x8, addend: 0x0, symName: __ZNSt3__18functionIFbiN8nlohmann16json_abi_v3_11_26detail13parse_event_tERNS2_10basic_jsonINS_3mapENS_6vectorENS_12basic_stringIcNS_11char_traitsIcEENS_9allocatorIcEEEEbxydSB_NS2_14adl_serializerENS7_IhNSB_IhEEEEEEEEC1B8ne180100EDn, symObjAddr: 0x14248, symBinAddr: 0x1000171D4, symSize: 0x34 }
  - { offset: 0x40B05, size: 0x8, addend: 0x0, symName: __ZN8nlohmann16json_abi_v3_11_26detail6parserINS0_10basic_jsonINSt3__13mapENS4_6vectorENS4_12basic_stringIcNS4_11char_traitsIcEENS4_9allocatorIcEEEEbxydSA_NS0_14adl_serializerENS6_IhNSA_IhEEEEEENS1_20input_stream_adapterEE5parseEbRSG_, symObjAddr: 0x1427C, symBinAddr: 0x100017208, symSize: 0x578 }
  - { offset: 0x40B82, size: 0x8, addend: 0x0, symName: __ZN8nlohmann16json_abi_v3_11_26detail6parserINS0_10basic_jsonINSt3__13mapENS4_6vectorENS4_12basic_stringIcNS4_11char_traitsIcEENS4_9allocatorIcEEEEbxydSA_NS0_14adl_serializerENS6_IhNSA_IhEEEEEENS1_20input_stream_adapterEED1Ev, symObjAddr: 0x147F4, symBinAddr: 0x100017780, symSize: 0x2C }
  - { offset: 0x40BAF, size: 0x8, addend: 0x0, symName: __ZNSt3__18functionIFbiN8nlohmann16json_abi_v3_11_26detail13parse_event_tERNS2_10basic_jsonINS_3mapENS_6vectorENS_12basic_stringIcNS_11char_traitsIcEENS_9allocatorIcEEEEbxydSB_NS2_14adl_serializerENS7_IhNSB_IhEEEEEEEED1Ev, symObjAddr: 0x14820, symBinAddr: 0x1000177AC, symSize: 0x2C }
  - { offset: 0x40BDB, size: 0x8, addend: 0x0, symName: __ZN8nlohmann16json_abi_v3_11_26detail20input_stream_adapterD1Ev, symObjAddr: 0x1484C, symBinAddr: 0x1000177D8, symSize: 0x2C }
  - { offset: 0x40C05, size: 0x8, addend: 0x0, symName: __ZNSt3__18functionIFbiN8nlohmann16json_abi_v3_11_26detail13parse_event_tERNS2_10basic_jsonINS_3mapENS_6vectorENS_12basic_stringIcNS_11char_traitsIcEENS_9allocatorIcEEEEbxydSB_NS2_14adl_serializerENS7_IhNSB_IhEEEEEEEEC1EOSK_, symObjAddr: 0x14878, symBinAddr: 0x100017804, symSize: 0x34 }
  - { offset: 0x40C40, size: 0x8, addend: 0x0, symName: __ZN8nlohmann16json_abi_v3_11_26detail6parserINS0_10basic_jsonINSt3__13mapENS4_6vectorENS4_12basic_stringIcNS4_11char_traitsIcEENS4_9allocatorIcEEEEbxydSA_NS0_14adl_serializerENS6_IhNSA_IhEEEEEENS1_20input_stream_adapterEEC1EOSH_NS4_8functionIFbiNS1_13parse_event_tERSG_EEEbb, symObjAddr: 0x148AC, symBinAddr: 0x100017838, symSize: 0x60 }
  - { offset: 0x40CA7, size: 0x8, addend: 0x0, symName: __ZNSt3__18functionIFbiN8nlohmann16json_abi_v3_11_26detail13parse_event_tERNS2_10basic_jsonINS_3mapENS_6vectorENS_12basic_stringIcNS_11char_traitsIcEENS_9allocatorIcEEEEbxydSB_NS2_14adl_serializerENS7_IhNSB_IhEEEEEEEEC2EOSK_, symObjAddr: 0x1490C, symBinAddr: 0x100017898, symSize: 0x34 }
  - { offset: 0x40CE2, size: 0x8, addend: 0x0, symName: __ZNSt3__110__function12__value_funcIFbiN8nlohmann16json_abi_v3_11_26detail13parse_event_tERNS3_10basic_jsonINS_3mapENS_6vectorENS_12basic_stringIcNS_11char_traitsIcEENS_9allocatorIcEEEEbxydSC_NS3_14adl_serializerENS8_IhNSC_IhEEEEEEEEC1B8ne180100EOSL_, symObjAddr: 0x14940, symBinAddr: 0x1000178CC, symSize: 0x34 }
  - { offset: 0x40D1B, size: 0x8, addend: 0x0, symName: __ZNSt3__110__function12__value_funcIFbiN8nlohmann16json_abi_v3_11_26detail13parse_event_tERNS3_10basic_jsonINS_3mapENS_6vectorENS_12basic_stringIcNS_11char_traitsIcEENS_9allocatorIcEEEEbxydSC_NS3_14adl_serializerENS8_IhNSC_IhEEEEEEEEC2B8ne180100EOSL_, symObjAddr: 0x14974, symBinAddr: 0x100017900, symSize: 0xD0 }
  - { offset: 0x40D54, size: 0x8, addend: 0x0, symName: __ZNSt3__110__function12__value_funcIFbiN8nlohmann16json_abi_v3_11_26detail13parse_event_tERNS3_10basic_jsonINS_3mapENS_6vectorENS_12basic_stringIcNS_11char_traitsIcEENS_9allocatorIcEEEEbxydSC_NS3_14adl_serializerENS8_IhNSC_IhEEEEEEEE9__as_baseB8ne180100EPv, symObjAddr: 0x14A44, symBinAddr: 0x1000179D0, symSize: 0x14 }
  - { offset: 0x40D78, size: 0x8, addend: 0x0, symName: __ZN8nlohmann16json_abi_v3_11_26detail6parserINS0_10basic_jsonINSt3__13mapENS4_6vectorENS4_12basic_stringIcNS4_11char_traitsIcEENS4_9allocatorIcEEEEbxydSA_NS0_14adl_serializerENS6_IhNSA_IhEEEEEENS1_20input_stream_adapterEEC2EOSH_NS4_8functionIFbiNS1_13parse_event_tERSG_EEEbb, symObjAddr: 0x14A58, symBinAddr: 0x1000179E4, symSize: 0xBC }
  - { offset: 0x40DDF, size: 0x8, addend: 0x0, symName: __ZNSt3__18functionIFbiN8nlohmann16json_abi_v3_11_26detail13parse_event_tERNS2_10basic_jsonINS_3mapENS_6vectorENS_12basic_stringIcNS_11char_traitsIcEENS_9allocatorIcEEEEbxydSB_NS2_14adl_serializerENS7_IhNSB_IhEEEEEEEEC1ERKSK_, symObjAddr: 0x14B14, symBinAddr: 0x100017AA0, symSize: 0x34 }
  - { offset: 0x40E1A, size: 0x8, addend: 0x0, symName: __ZN8nlohmann16json_abi_v3_11_26detail5lexerINS0_10basic_jsonINSt3__13mapENS4_6vectorENS4_12basic_stringIcNS4_11char_traitsIcEENS4_9allocatorIcEEEEbxydSA_NS0_14adl_serializerENS6_IhNSA_IhEEEEEENS1_20input_stream_adapterEEC1EOSH_b, symObjAddr: 0x14B48, symBinAddr: 0x100017AD4, symSize: 0x48 }
  - { offset: 0x40E62, size: 0x8, addend: 0x0, symName: __ZN8nlohmann16json_abi_v3_11_26detail6parserINS0_10basic_jsonINSt3__13mapENS4_6vectorENS4_12basic_stringIcNS4_11char_traitsIcEENS4_9allocatorIcEEEEbxydSA_NS0_14adl_serializerENS6_IhNSA_IhEEEEEENS1_20input_stream_adapterEE9get_tokenEv, symObjAddr: 0x14B90, symBinAddr: 0x100017B1C, symSize: 0x34 }
  - { offset: 0x40E88, size: 0x8, addend: 0x0, symName: __ZN8nlohmann16json_abi_v3_11_26detail5lexerINS0_10basic_jsonINSt3__13mapENS4_6vectorENS4_12basic_stringIcNS4_11char_traitsIcEENS4_9allocatorIcEEEEbxydSA_NS0_14adl_serializerENS6_IhNSA_IhEEEEEENS1_20input_stream_adapterEED1Ev, symObjAddr: 0x14BC4, symBinAddr: 0x100017B50, symSize: 0x2C }
  - { offset: 0x40EB2, size: 0x8, addend: 0x0, symName: __ZNSt3__18functionIFbiN8nlohmann16json_abi_v3_11_26detail13parse_event_tERNS2_10basic_jsonINS_3mapENS_6vectorENS_12basic_stringIcNS_11char_traitsIcEENS_9allocatorIcEEEEbxydSB_NS2_14adl_serializerENS7_IhNSB_IhEEEEEEEEC2ERKSK_, symObjAddr: 0x14BF0, symBinAddr: 0x100017B7C, symSize: 0x34 }
  - { offset: 0x40EED, size: 0x8, addend: 0x0, symName: __ZNSt3__110__function12__value_funcIFbiN8nlohmann16json_abi_v3_11_26detail13parse_event_tERNS3_10basic_jsonINS_3mapENS_6vectorENS_12basic_stringIcNS_11char_traitsIcEENS_9allocatorIcEEEEbxydSC_NS3_14adl_serializerENS8_IhNSC_IhEEEEEEEEC1B8ne180100ERKSL_, symObjAddr: 0x14C24, symBinAddr: 0x100017BB0, symSize: 0x34 }
  - { offset: 0x40F26, size: 0x8, addend: 0x0, symName: __ZNSt3__110__function12__value_funcIFbiN8nlohmann16json_abi_v3_11_26detail13parse_event_tERNS3_10basic_jsonINS_3mapENS_6vectorENS_12basic_stringIcNS_11char_traitsIcEENS_9allocatorIcEEEEbxydSC_NS3_14adl_serializerENS8_IhNSC_IhEEEEEEEEC2B8ne180100ERKSL_, symObjAddr: 0x14C58, symBinAddr: 0x100017BE4, symSize: 0xC0 }
  - { offset: 0x40F5F, size: 0x8, addend: 0x0, symName: __ZN8nlohmann16json_abi_v3_11_26detail5lexerINS0_10basic_jsonINSt3__13mapENS4_6vectorENS4_12basic_stringIcNS4_11char_traitsIcEENS4_9allocatorIcEEEEbxydSA_NS0_14adl_serializerENS6_IhNSA_IhEEEEEENS1_20input_stream_adapterEEC2EOSH_b, symObjAddr: 0x14D18, symBinAddr: 0x100017CA4, symSize: 0xB0 }
  - { offset: 0x40FA7, size: 0x8, addend: 0x0, symName: __ZN8nlohmann16json_abi_v3_11_26detail20input_stream_adapterC1EOS2_, symObjAddr: 0x14DC8, symBinAddr: 0x100017D54, symSize: 0x34 }
  - { offset: 0x40FE0, size: 0x8, addend: 0x0, symName: __ZNSt3__16vectorIcNS_9allocatorIcEEEC1B8ne180100Ev, symObjAddr: 0x14DFC, symBinAddr: 0x100017D88, symSize: 0x2C }
  - { offset: 0x4100A, size: 0x8, addend: 0x0, symName: __ZN8nlohmann16json_abi_v3_11_26detail5lexerINS0_10basic_jsonINSt3__13mapENS4_6vectorENS4_12basic_stringIcNS4_11char_traitsIcEENS4_9allocatorIcEEEEbxydSA_NS0_14adl_serializerENS6_IhNSA_IhEEEEEENS1_20input_stream_adapterEE17get_decimal_pointEv, symObjAddr: 0x14E28, symBinAddr: 0x100017DB4, symSize: 0xB0 }
  - { offset: 0x4102E, size: 0x8, addend: 0x0, symName: __ZN8nlohmann16json_abi_v3_11_26detail20input_stream_adapterC2EOS2_, symObjAddr: 0x14ED8, symBinAddr: 0x100017E64, symSize: 0x40 }
  - { offset: 0x41067, size: 0x8, addend: 0x0, symName: __ZNSt3__16vectorIcNS_9allocatorIcEEEC2B8ne180100Ev, symObjAddr: 0x14F18, symBinAddr: 0x100017EA4, symSize: 0x4C }
  - { offset: 0x41091, size: 0x8, addend: 0x0, symName: __ZNSt3__117__compressed_pairIPcNS_9allocatorIcEEEC1B8ne180100IDnNS_18__default_init_tagEEEOT_OT0_, symObjAddr: 0x14F64, symBinAddr: 0x100017EF0, symSize: 0x3C }
  - { offset: 0x410EB, size: 0x8, addend: 0x0, symName: __ZNSt3__117__compressed_pairIPcNS_9allocatorIcEEEC2B8ne180100IDnNS_18__default_init_tagEEEOT_OT0_, symObjAddr: 0x14FA0, symBinAddr: 0x100017F2C, symSize: 0x40 }
  - { offset: 0x41145, size: 0x8, addend: 0x0, symName: __ZNSt3__122__compressed_pair_elemIPcLi0ELb0EEC2B8ne180100IDnvEEOT_, symObjAddr: 0x14FE0, symBinAddr: 0x100017F6C, symSize: 0x1C }
  - { offset: 0x41188, size: 0x8, addend: 0x0, symName: __ZN8nlohmann16json_abi_v3_11_26detail5lexerINS0_10basic_jsonINSt3__13mapENS4_6vectorENS4_12basic_stringIcNS4_11char_traitsIcEENS4_9allocatorIcEEEEbxydSA_NS0_14adl_serializerENS6_IhNSA_IhEEEEEENS1_20input_stream_adapterEE4scanEv, symObjAddr: 0x14FFC, symBinAddr: 0x100017F88, symSize: 0x284 }
  - { offset: 0x41208, size: 0x8, addend: 0x0, symName: __ZN8nlohmann16json_abi_v3_11_26detail5lexerINS0_10basic_jsonINSt3__13mapENS4_6vectorENS4_12basic_stringIcNS4_11char_traitsIcEENS4_9allocatorIcEEEEbxydSA_NS0_14adl_serializerENS6_IhNSA_IhEEEEEENS1_20input_stream_adapterEE8skip_bomEv, symObjAddr: 0x1547C, symBinAddr: 0x100018408, symSize: 0xA8 }
  - { offset: 0x4122E, size: 0x8, addend: 0x0, symName: __ZN8nlohmann16json_abi_v3_11_26detail5lexerINS0_10basic_jsonINSt3__13mapENS4_6vectorENS4_12basic_stringIcNS4_11char_traitsIcEENS4_9allocatorIcEEEEbxydSA_NS0_14adl_serializerENS6_IhNSA_IhEEEEEENS1_20input_stream_adapterEE15skip_whitespaceEv, symObjAddr: 0x15524, symBinAddr: 0x1000184B0, symSize: 0xB8 }
  - { offset: 0x41254, size: 0x8, addend: 0x0, symName: __ZN8nlohmann16json_abi_v3_11_26detail5lexerINS0_10basic_jsonINSt3__13mapENS4_6vectorENS4_12basic_stringIcNS4_11char_traitsIcEENS4_9allocatorIcEEEEbxydSA_NS0_14adl_serializerENS6_IhNSA_IhEEEEEENS1_20input_stream_adapterEE12scan_commentEv, symObjAddr: 0x155DC, symBinAddr: 0x100018568, symSize: 0x17C }
  - { offset: 0x4127A, size: 0x8, addend: 0x0, symName: __ZN8nlohmann16json_abi_v3_11_26detail5lexerINS0_10basic_jsonINSt3__13mapENS4_6vectorENS4_12basic_stringIcNS4_11char_traitsIcEENS4_9allocatorIcEEEEbxydSA_NS0_14adl_serializerENS6_IhNSA_IhEEEEEENS1_20input_stream_adapterEE12scan_literalEPKcmNS1_10lexer_baseISG_E10token_typeE, symObjAddr: 0x15758, symBinAddr: 0x1000186E4, symSize: 0x100 }
  - { offset: 0x41338, size: 0x8, addend: 0x0, symName: __ZNSt3__15arrayIcLm4EE4dataB8ne180100Ev, symObjAddr: 0x15858, symBinAddr: 0x1000187E4, symSize: 0x14 }
  - { offset: 0x4135E, size: 0x8, addend: 0x0, symName: __ZNKSt3__15arrayIcLm4EE4sizeB8ne180100Ev, symObjAddr: 0x1586C, symBinAddr: 0x1000187F8, symSize: 0x14 }
  - { offset: 0x413C6, size: 0x8, addend: 0x0, symName: __ZNSt3__15arrayIcLm5EE4dataB8ne180100Ev, symObjAddr: 0x15880, symBinAddr: 0x10001880C, symSize: 0x14 }
  - { offset: 0x413EC, size: 0x8, addend: 0x0, symName: __ZNKSt3__15arrayIcLm5EE4sizeB8ne180100Ev, symObjAddr: 0x15894, symBinAddr: 0x100018820, symSize: 0x14 }
  - { offset: 0x41412, size: 0x8, addend: 0x0, symName: __ZN8nlohmann16json_abi_v3_11_26detail5lexerINS0_10basic_jsonINSt3__13mapENS4_6vectorENS4_12basic_stringIcNS4_11char_traitsIcEENS4_9allocatorIcEEEEbxydSA_NS0_14adl_serializerENS6_IhNSA_IhEEEEEENS1_20input_stream_adapterEE11scan_stringEv, symObjAddr: 0x158A8, symBinAddr: 0x100018834, symSize: 0xB6C }
  - { offset: 0x41487, size: 0x8, addend: 0x0, symName: __ZN8nlohmann16json_abi_v3_11_26detail5lexerINS0_10basic_jsonINSt3__13mapENS4_6vectorENS4_12basic_stringIcNS4_11char_traitsIcEENS4_9allocatorIcEEEEbxydSA_NS0_14adl_serializerENS6_IhNSA_IhEEEEEENS1_20input_stream_adapterEE11scan_numberEv, symObjAddr: 0x1693C, symBinAddr: 0x1000198C8, symSize: 0x65C }
  - { offset: 0x415A0, size: 0x8, addend: 0x0, symName: __ZN8nlohmann16json_abi_v3_11_26detail5lexerINS0_10basic_jsonINSt3__13mapENS4_6vectorENS4_12basic_stringIcNS4_11char_traitsIcEENS4_9allocatorIcEEEEbxydSA_NS0_14adl_serializerENS6_IhNSA_IhEEEEEENS1_20input_stream_adapterEE3getEv, symObjAddr: 0x17078, symBinAddr: 0x10001A004, symSize: 0xF0 }
  - { offset: 0x415C6, size: 0x8, addend: 0x0, symName: __ZN8nlohmann16json_abi_v3_11_26detail5lexerINS0_10basic_jsonINSt3__13mapENS4_6vectorENS4_12basic_stringIcNS4_11char_traitsIcEENS4_9allocatorIcEEEEbxydSA_NS0_14adl_serializerENS6_IhNSA_IhEEEEEENS1_20input_stream_adapterEE5ungetEv, symObjAddr: 0x17168, symBinAddr: 0x10001A0F4, symSize: 0xFC }
  - { offset: 0x415EC, size: 0x8, addend: 0x0, symName: __ZN8nlohmann16json_abi_v3_11_26detail20input_stream_adapter13get_characterEv, symObjAddr: 0x17264, symBinAddr: 0x10001A1F0, symSize: 0x94 }
  - { offset: 0x41621, size: 0x8, addend: 0x0, symName: __ZNSt3__16vectorIcNS_9allocatorIcEEE9push_backB8ne180100EOc, symObjAddr: 0x172F8, symBinAddr: 0x10001A284, symSize: 0x90 }
  - { offset: 0x41667, size: 0x8, addend: 0x0, symName: __ZNSt3__111char_traitsIcE12to_char_typeB8ne180100Ei, symObjAddr: 0x17388, symBinAddr: 0x10001A314, symSize: 0x18 }
  - { offset: 0x4168B, size: 0x8, addend: 0x0, symName: __ZNSt3__115basic_streambufIcNS_11char_traitsIcEEE6sbumpcB8ne180100Ev, symObjAddr: 0x173A0, symBinAddr: 0x10001A32C, symSize: 0x78 }
  - { offset: 0x416B1, size: 0x8, addend: 0x0, symName: __ZNSt3__19basic_iosIcNS_11char_traitsIcEEE5clearB8ne180100Ej, symObjAddr: 0x17418, symBinAddr: 0x10001A3A4, symSize: 0x2C }
  - { offset: 0x416E6, size: 0x8, addend: 0x0, symName: __ZNKSt3__19basic_iosIcNS_11char_traitsIcEEE7rdstateB8ne180100Ev, symObjAddr: 0x17444, symBinAddr: 0x10001A3D0, symSize: 0x24 }
  - { offset: 0x4170C, size: 0x8, addend: 0x0, symName: __ZNSt3__111char_traitsIcE11to_int_typeB8ne180100Ec, symObjAddr: 0x17468, symBinAddr: 0x10001A3F4, symSize: 0x14 }
  - { offset: 0x41730, size: 0x8, addend: 0x0, symName: __ZNKSt3__18ios_base7rdstateB8ne180100Ev, symObjAddr: 0x1747C, symBinAddr: 0x10001A408, symSize: 0x18 }
  - { offset: 0x41758, size: 0x8, addend: 0x0, symName: __ZNSt3__16vectorIcNS_9allocatorIcEEE9__end_capB8ne180100Ev, symObjAddr: 0x17494, symBinAddr: 0x10001A420, symSize: 0x28 }
  - { offset: 0x41784, size: 0x8, addend: 0x0, symName: __ZNSt3__16vectorIcNS_9allocatorIcEEE22__construct_one_at_endB8ne180100IJcEEEvDpOT_, symObjAddr: 0x174BC, symBinAddr: 0x10001A448, symSize: 0x90 }
  - { offset: 0x417D3, size: 0x8, addend: 0x0, symName: __ZNSt3__16vectorIcNS_9allocatorIcEEE21__push_back_slow_pathIcEEPcOT_, symObjAddr: 0x1754C, symBinAddr: 0x10001A4D8, symSize: 0xE8 }
  - { offset: 0x41831, size: 0x8, addend: 0x0, symName: __ZNSt3__117__compressed_pairIPcNS_9allocatorIcEEE5firstB8ne180100Ev, symObjAddr: 0x17634, symBinAddr: 0x10001A5C0, symSize: 0x24 }
  - { offset: 0x41857, size: 0x8, addend: 0x0, symName: __ZNSt3__122__compressed_pair_elemIPcLi0ELb0EE5__getB8ne180100Ev, symObjAddr: 0x17658, symBinAddr: 0x10001A5E4, symSize: 0x14 }
  - { offset: 0x41899, size: 0x8, addend: 0x0, symName: __ZNSt3__16vectorIcNS_9allocatorIcEEE21_ConstructTransactionC1B8ne180100ERS3_m, symObjAddr: 0x1766C, symBinAddr: 0x10001A5F8, symSize: 0x3C }
  - { offset: 0x418E1, size: 0x8, addend: 0x0, symName: __ZNSt3__116allocator_traitsINS_9allocatorIcEEE9constructB8ne180100IcJcEvEEvRS2_PT_DpOT0_, symObjAddr: 0x176A8, symBinAddr: 0x10001A634, symSize: 0x34 }
  - { offset: 0x41938, size: 0x8, addend: 0x0, symName: __ZNSt3__16vectorIcNS_9allocatorIcEEE7__allocB8ne180100Ev, symObjAddr: 0x176DC, symBinAddr: 0x10001A668, symSize: 0x28 }
  - { offset: 0x4195E, size: 0x8, addend: 0x0, symName: __ZNSt3__16vectorIcNS_9allocatorIcEEE21_ConstructTransactionD1B8ne180100Ev, symObjAddr: 0x17704, symBinAddr: 0x10001A690, symSize: 0x2C }
  - { offset: 0x41988, size: 0x8, addend: 0x0, symName: __ZNSt3__16vectorIcNS_9allocatorIcEEE21_ConstructTransactionC2B8ne180100ERS3_m, symObjAddr: 0x17730, symBinAddr: 0x10001A6BC, symSize: 0x44 }
  - { offset: 0x419D0, size: 0x8, addend: 0x0, symName: __ZNSt3__19allocatorIcE9constructB8ne180100IcJcEEEvPT_DpOT0_, symObjAddr: 0x17774, symBinAddr: 0x10001A700, symSize: 0x28 }
  - { offset: 0x41A28, size: 0x8, addend: 0x0, symName: __ZNSt3__117__compressed_pairIPcNS_9allocatorIcEEE6secondB8ne180100Ev, symObjAddr: 0x1779C, symBinAddr: 0x10001A728, symSize: 0x24 }
  - { offset: 0x41A4E, size: 0x8, addend: 0x0, symName: __ZNSt3__16vectorIcNS_9allocatorIcEEE21_ConstructTransactionD2B8ne180100Ev, symObjAddr: 0x177C0, symBinAddr: 0x10001A74C, symSize: 0x20 }
  - { offset: 0x41A78, size: 0x8, addend: 0x0, symName: __ZNKSt3__16vectorIcNS_9allocatorIcEEE11__recommendB8ne180100Em, symObjAddr: 0x177E0, symBinAddr: 0x10001A76C, symSize: 0xB4 }
  - { offset: 0x41ACD, size: 0x8, addend: 0x0, symName: __ZNKSt3__16vectorIcNS_9allocatorIcEEE4sizeB8ne180100Ev, symObjAddr: 0x17894, symBinAddr: 0x10001A820, symSize: 0x20 }
  - { offset: 0x41AF3, size: 0x8, addend: 0x0, symName: __ZNSt3__114__split_bufferIcRNS_9allocatorIcEEEC1EmmS3_, symObjAddr: 0x178B4, symBinAddr: 0x10001A840, symSize: 0x44 }
  - { offset: 0x41B4C, size: 0x8, addend: 0x0, symName: __ZNSt3__114__split_bufferIcRNS_9allocatorIcEEED1Ev, symObjAddr: 0x17A08, symBinAddr: 0x10001A994, symSize: 0x2C }
  - { offset: 0x41B78, size: 0x8, addend: 0x0, symName: __ZNKSt3__16vectorIcNS_9allocatorIcEEE8max_sizeEv, symObjAddr: 0x17A34, symBinAddr: 0x10001A9C0, symSize: 0x60 }
  - { offset: 0x41BA0, size: 0x8, addend: 0x0, symName: __ZNKSt3__16vectorIcNS_9allocatorIcEEE20__throw_length_errorB8ne180100Ev, symObjAddr: 0x17A94, symBinAddr: 0x10001AA20, symSize: 0x1C }
  - { offset: 0x41BC6, size: 0x8, addend: 0x0, symName: __ZNKSt3__16vectorIcNS_9allocatorIcEEE8capacityB8ne180100Ev, symObjAddr: 0x17AB0, symBinAddr: 0x10001AA3C, symSize: 0x38 }
  - { offset: 0x41BF7, size: 0x8, addend: 0x0, symName: __ZNSt3__116allocator_traitsINS_9allocatorIcEEE8max_sizeB8ne180100IS2_vEEmRKS2_, symObjAddr: 0x17AE8, symBinAddr: 0x10001AA74, symSize: 0x24 }
  - { offset: 0x41C25, size: 0x8, addend: 0x0, symName: __ZNKSt3__16vectorIcNS_9allocatorIcEEE7__allocB8ne180100Ev, symObjAddr: 0x17B0C, symBinAddr: 0x10001AA98, symSize: 0x28 }
  - { offset: 0x41C4B, size: 0x8, addend: 0x0, symName: __ZNKSt3__19allocatorIcE8max_sizeB8ne180100Ev, symObjAddr: 0x17B34, symBinAddr: 0x10001AAC0, symSize: 0x14 }
  - { offset: 0x41C71, size: 0x8, addend: 0x0, symName: __ZNKSt3__117__compressed_pairIPcNS_9allocatorIcEEE6secondB8ne180100Ev, symObjAddr: 0x17B48, symBinAddr: 0x10001AAD4, symSize: 0x24 }
  - { offset: 0x41C97, size: 0x8, addend: 0x0, symName: __ZNKSt3__122__compressed_pair_elemINS_9allocatorIcEELi1ELb1EE5__getB8ne180100Ev, symObjAddr: 0x17B6C, symBinAddr: 0x10001AAF8, symSize: 0x14 }
  - { offset: 0x41CBD, size: 0x8, addend: 0x0, symName: __ZNKSt3__16vectorIcNS_9allocatorIcEEE9__end_capB8ne180100Ev, symObjAddr: 0x17B80, symBinAddr: 0x10001AB0C, symSize: 0x28 }
  - { offset: 0x41CE3, size: 0x8, addend: 0x0, symName: __ZNKSt3__117__compressed_pairIPcNS_9allocatorIcEEE5firstB8ne180100Ev, symObjAddr: 0x17BA8, symBinAddr: 0x10001AB34, symSize: 0x24 }
  - { offset: 0x41D09, size: 0x8, addend: 0x0, symName: __ZNKSt3__122__compressed_pair_elemIPcLi0ELb0EE5__getB8ne180100Ev, symObjAddr: 0x17BCC, symBinAddr: 0x10001AB58, symSize: 0x14 }
  - { offset: 0x41D2F, size: 0x8, addend: 0x0, symName: __ZNSt3__114__split_bufferIcRNS_9allocatorIcEEEC2EmmS3_, symObjAddr: 0x17BE0, symBinAddr: 0x10001AB6C, symSize: 0xD4 }
  - { offset: 0x41DA6, size: 0x8, addend: 0x0, symName: __ZNSt3__117__compressed_pairIPcRNS_9allocatorIcEEEC1B8ne180100IDnS4_EEOT_OT0_, symObjAddr: 0x17CB4, symBinAddr: 0x10001AC40, symSize: 0x3C }
  - { offset: 0x41E00, size: 0x8, addend: 0x0, symName: __ZNSt3__114__split_bufferIcRNS_9allocatorIcEEE7__allocB8ne180100Ev, symObjAddr: 0x17D30, symBinAddr: 0x10001ACBC, symSize: 0x28 }
  - { offset: 0x41E26, size: 0x8, addend: 0x0, symName: __ZNSt3__114__split_bufferIcRNS_9allocatorIcEEE9__end_capB8ne180100Ev, symObjAddr: 0x17D58, symBinAddr: 0x10001ACE4, symSize: 0x28 }
  - { offset: 0x41E4C, size: 0x8, addend: 0x0, symName: __ZNSt3__117__compressed_pairIPcRNS_9allocatorIcEEEC2B8ne180100IDnS4_EEOT_OT0_, symObjAddr: 0x17D80, symBinAddr: 0x10001AD0C, symSize: 0x48 }
  - { offset: 0x41EA6, size: 0x8, addend: 0x0, symName: __ZNSt3__122__compressed_pair_elemIRNS_9allocatorIcEELi1ELb0EEC2B8ne180100IS3_vEEOT_, symObjAddr: 0x17DC8, symBinAddr: 0x10001AD54, symSize: 0x20 }
  - { offset: 0x41EE9, size: 0x8, addend: 0x0, symName: __ZNSt3__19allocatorIcE8allocateB8ne180100Em, symObjAddr: 0x17DE8, symBinAddr: 0x10001AD74, symSize: 0x58 }
  - { offset: 0x41F1E, size: 0x8, addend: 0x0, symName: __ZNSt3__117__compressed_pairIPcRNS_9allocatorIcEEE6secondB8ne180100Ev, symObjAddr: 0x17E40, symBinAddr: 0x10001ADCC, symSize: 0x28 }
  - { offset: 0x41F44, size: 0x8, addend: 0x0, symName: __ZNSt3__122__compressed_pair_elemIRNS_9allocatorIcEELi1ELb0EE5__getB8ne180100Ev, symObjAddr: 0x17E68, symBinAddr: 0x10001ADF4, symSize: 0x18 }
  - { offset: 0x41F6A, size: 0x8, addend: 0x0, symName: __ZNSt3__117__compressed_pairIPcRNS_9allocatorIcEEE5firstB8ne180100Ev, symObjAddr: 0x17E80, symBinAddr: 0x10001AE0C, symSize: 0x24 }
  - { offset: 0x41F90, size: 0x8, addend: 0x0, symName: __ZNKSt3__16vectorIcNS_9allocatorIcEEE17__annotate_deleteB8ne180100Ev, symObjAddr: 0x17EA4, symBinAddr: 0x10001AE30, symSize: 0x10 }
  - { offset: 0x41FB6, size: 0x8, addend: 0x0, symName: __ZNSt3__116reverse_iteratorIPcEC1B8ne180100ES1_, symObjAddr: 0x17F2C, symBinAddr: 0x10001AEB8, symSize: 0x34 }
  - { offset: 0x41FEF, size: 0x8, addend: 0x0, symName: __ZNKSt3__116reverse_iteratorIPcE4baseB8ne180100Ev, symObjAddr: 0x17F60, symBinAddr: 0x10001AEEC, symSize: 0x18 }
  - { offset: 0x42015, size: 0x8, addend: 0x0, symName: __ZNKSt3__16vectorIcNS_9allocatorIcEEE14__annotate_newB8ne180100Em, symObjAddr: 0x17FB4, symBinAddr: 0x10001AF40, symSize: 0x14 }
  - { offset: 0x42067, size: 0x8, addend: 0x0, symName: __ZNKSt3__111__move_loopINS_17_ClassicAlgPolicyEEclB8ne180100INS_16reverse_iteratorIPcEES6_S6_EENS_4pairIT_T1_EES8_T0_S9_, symObjAddr: 0x182B8, symBinAddr: 0x10001B244, symSize: 0xA0 }
  - { offset: 0x420DB, size: 0x8, addend: 0x0, symName: __ZNSt3__18_IterOpsINS_17_ClassicAlgPolicyEE11__iter_moveB8ne180100IRNS_16reverse_iteratorIPcEELi0EEEDTclsr3stdE4movedeclsr3stdE7declvalIRT_EEEEOS8_, symObjAddr: 0x184EC, symBinAddr: 0x10001B478, symSize: 0x28 }
  - { offset: 0x4210E, size: 0x8, addend: 0x0, symName: __ZNKSt3__116reverse_iteratorIPcEdeB8ne180100Ev, symObjAddr: 0x18514, symBinAddr: 0x10001B4A0, symSize: 0x28 }
  - { offset: 0x42143, size: 0x8, addend: 0x0, symName: __ZNSt3__116reverse_iteratorIPcEppB8ne180100Ev, symObjAddr: 0x1853C, symBinAddr: 0x10001B4C8, symSize: 0x20 }
  - { offset: 0x42169, size: 0x8, addend: 0x0, symName: __ZNSt3__18_IterOpsINS_17_ClassicAlgPolicyEE25__validate_iter_referenceB8ne180100IRNS_16reverse_iteratorIPcEEEEvv, symObjAddr: 0x1855C, symBinAddr: 0x10001B4E8, symSize: 0x4 }
  - { offset: 0x42187, size: 0x8, addend: 0x0, symName: __ZNSt3__118__unwrap_iter_implINS_16reverse_iteratorIPcEELb0EE8__unwrapB8ne180100ES3_, symObjAddr: 0x18560, symBinAddr: 0x10001B4EC, symSize: 0x24 }
  - { offset: 0x421B1, size: 0x8, addend: 0x0, symName: __ZNSt3__14pairINS_16reverse_iteratorIPcEES3_EC1B8ne180100IS3_S3_Li0EEEOT_OT0_, symObjAddr: 0x18584, symBinAddr: 0x10001B510, symSize: 0x3C }
  - { offset: 0x42211, size: 0x8, addend: 0x0, symName: __ZNSt3__14pairINS_16reverse_iteratorIPcEES3_EC2B8ne180100IS3_S3_Li0EEEOT_OT0_, symObjAddr: 0x185C0, symBinAddr: 0x10001B54C, symSize: 0x34 }
  - { offset: 0x42271, size: 0x8, addend: 0x0, symName: __ZNSt3__118__unwrap_iter_implINS_16reverse_iteratorIPcEELb0EE8__rewrapB8ne180100ES3_S3_, symObjAddr: 0x185F4, symBinAddr: 0x10001B580, symSize: 0x2C }
  - { offset: 0x422A0, size: 0x8, addend: 0x0, symName: __ZNSt3__116reverse_iteratorIPcEC2B8ne180100ES1_, symObjAddr: 0x18620, symBinAddr: 0x10001B5AC, symSize: 0x28 }
  - { offset: 0x422D9, size: 0x8, addend: 0x0, symName: __ZNSt3__114__split_bufferIcRNS_9allocatorIcEEED2Ev, symObjAddr: 0x18648, symBinAddr: 0x10001B5D4, symSize: 0x8C }
  - { offset: 0x42305, size: 0x8, addend: 0x0, symName: __ZNSt3__114__split_bufferIcRNS_9allocatorIcEEE5clearB8ne180100Ev, symObjAddr: 0x186D4, symBinAddr: 0x10001B660, symSize: 0x28 }
  - { offset: 0x4232B, size: 0x8, addend: 0x0, symName: __ZNKSt3__114__split_bufferIcRNS_9allocatorIcEEE8capacityB8ne180100Ev, symObjAddr: 0x186FC, symBinAddr: 0x10001B688, symSize: 0x38 }
  - { offset: 0x42351, size: 0x8, addend: 0x0, symName: __ZNSt3__114__split_bufferIcRNS_9allocatorIcEEE17__destruct_at_endB8ne180100EPc, symObjAddr: 0x18734, symBinAddr: 0x10001B6C0, symSize: 0x2C }
  - { offset: 0x42386, size: 0x8, addend: 0x0, symName: __ZNSt3__114__split_bufferIcRNS_9allocatorIcEEE17__destruct_at_endB8ne180100EPcNS_17integral_constantIbLb0EEE, symObjAddr: 0x18760, symBinAddr: 0x10001B6EC, symSize: 0x80 }
  - { offset: 0x423C8, size: 0x8, addend: 0x0, symName: __ZNSt3__116allocator_traitsINS_9allocatorIcEEE7destroyB8ne180100IcvEEvRS2_PT_, symObjAddr: 0x187E0, symBinAddr: 0x10001B76C, symSize: 0x2C }
  - { offset: 0x42405, size: 0x8, addend: 0x0, symName: __ZNSt3__19allocatorIcE7destroyB8ne180100EPc, symObjAddr: 0x1880C, symBinAddr: 0x10001B798, symSize: 0x14 }
  - { offset: 0x4243A, size: 0x8, addend: 0x0, symName: __ZNKSt3__114__split_bufferIcRNS_9allocatorIcEEE9__end_capB8ne180100Ev, symObjAddr: 0x18820, symBinAddr: 0x10001B7AC, symSize: 0x28 }
  - { offset: 0x42460, size: 0x8, addend: 0x0, symName: __ZNKSt3__117__compressed_pairIPcRNS_9allocatorIcEEE5firstB8ne180100Ev, symObjAddr: 0x18848, symBinAddr: 0x10001B7D4, symSize: 0x24 }
  - { offset: 0x42486, size: 0x8, addend: 0x0, symName: __ZNKSt3__16vectorIcNS_9allocatorIcEEE5emptyB8ne180100Ev, symObjAddr: 0x1886C, symBinAddr: 0x10001B7F8, symSize: 0x28 }
  - { offset: 0x424AC, size: 0x8, addend: 0x0, symName: __ZNSt3__16vectorIcNS_9allocatorIcEEE8pop_backEv, symObjAddr: 0x18894, symBinAddr: 0x10001B820, symSize: 0x2C }
  - { offset: 0x424D4, size: 0x8, addend: 0x0, symName: __ZNSt3__16vectorIcNS_9allocatorIcEEE17__destruct_at_endB8ne180100EPc, symObjAddr: 0x188C0, symBinAddr: 0x10001B84C, symSize: 0x4C }
  - { offset: 0x42518, size: 0x8, addend: 0x0, symName: __ZNSt3__16vectorIcNS_9allocatorIcEEE22__base_destruct_at_endB8ne180100EPc, symObjAddr: 0x1890C, symBinAddr: 0x10001B898, symSize: 0x8C }
  - { offset: 0x4255C, size: 0x8, addend: 0x0, symName: __ZNKSt3__16vectorIcNS_9allocatorIcEEE17__annotate_shrinkB8ne180100Em, symObjAddr: 0x18998, symBinAddr: 0x10001B924, symSize: 0x14 }
  - { offset: 0x42591, size: 0x8, addend: 0x0, symName: __ZN8nlohmann16json_abi_v3_11_26detail5lexerINS0_10basic_jsonINSt3__13mapENS4_6vectorENS4_12basic_stringIcNS4_11char_traitsIcEENS4_9allocatorIcEEEEbxydSA_NS0_14adl_serializerENS6_IhNSA_IhEEEEEENS1_20input_stream_adapterEE5resetEv, symObjAddr: 0x189AC, symBinAddr: 0x10001B938, symSize: 0x60 }
  - { offset: 0x425B7, size: 0x8, addend: 0x0, symName: __ZN8nlohmann16json_abi_v3_11_26detail5lexerINS0_10basic_jsonINSt3__13mapENS4_6vectorENS4_12basic_stringIcNS4_11char_traitsIcEENS4_9allocatorIcEEEEbxydSA_NS0_14adl_serializerENS6_IhNSA_IhEEEEEENS1_20input_stream_adapterEE3addEi, symObjAddr: 0x18A0C, symBinAddr: 0x10001B998, symSize: 0x34 }
  - { offset: 0x425EC, size: 0x8, addend: 0x0, symName: __ZN8nlohmann16json_abi_v3_11_26detail5lexerINS0_10basic_jsonINSt3__13mapENS4_6vectorENS4_12basic_stringIcNS4_11char_traitsIcEENS4_9allocatorIcEEEEbxydSA_NS0_14adl_serializerENS6_IhNSA_IhEEEEEENS1_20input_stream_adapterEE13get_codepointEv, symObjAddr: 0x18A40, symBinAddr: 0x10001B9CC, symSize: 0x2B0 }
  - { offset: 0x42684, size: 0x8, addend: 0x0, symName: __ZN8nlohmann16json_abi_v3_11_26detail5lexerINS0_10basic_jsonINSt3__13mapENS4_6vectorENS4_12basic_stringIcNS4_11char_traitsIcEENS4_9allocatorIcEEEEbxydSA_NS0_14adl_serializerENS6_IhNSA_IhEEEEEENS1_20input_stream_adapterEE18next_byte_in_rangeESt16initializer_listIiE, symObjAddr: 0x18CF0, symBinAddr: 0x10001BC7C, symSize: 0x1C0 }
  - { offset: 0x426D7, size: 0x8, addend: 0x0, symName: __ZNSt3__112basic_stringIcNS_11char_traitsIcEENS_9allocatorIcEEE5clearB8ne180100Ev, symObjAddr: 0x18EB0, symBinAddr: 0x10001BE3C, symSize: 0x94 }
  - { offset: 0x4270E, size: 0x8, addend: 0x0, symName: __ZNSt3__16vectorIcNS_9allocatorIcEEE5clearB8ne180100Ev, symObjAddr: 0x18F44, symBinAddr: 0x10001BED0, symSize: 0x44 }
  - { offset: 0x42743, size: 0x8, addend: 0x0, symName: __ZNSt3__112basic_stringIcNS_11char_traitsIcEENS_9allocatorIcEEE15__set_long_sizeB8ne180100Em, symObjAddr: 0x18F88, symBinAddr: 0x10001BF14, symSize: 0x38 }
  - { offset: 0x42778, size: 0x8, addend: 0x0, symName: __ZNSt3__16vectorIcNS_9allocatorIcEEE7__clearB8ne180100Ev, symObjAddr: 0x18FC0, symBinAddr: 0x10001BF4C, symSize: 0x28 }
  - { offset: 0x427B5, size: 0x8, addend: 0x0, symName: __ZNKSt16initializer_listIjE5beginB8ne180100Ev, symObjAddr: 0x18FE8, symBinAddr: 0x10001BF74, symSize: 0x18 }
  - { offset: 0x427DB, size: 0x8, addend: 0x0, symName: __ZNKSt16initializer_listIjE3endB8ne180100Ev, symObjAddr: 0x19000, symBinAddr: 0x10001BF8C, symSize: 0x20 }
  - { offset: 0x42801, size: 0x8, addend: 0x0, symName: __ZNKSt16initializer_listIiE4sizeB8ne180100Ev, symObjAddr: 0x19020, symBinAddr: 0x10001BFAC, symSize: 0x18 }
  - { offset: 0x42827, size: 0x8, addend: 0x0, symName: __ZNKSt16initializer_listIiE5beginB8ne180100Ev, symObjAddr: 0x19038, symBinAddr: 0x10001BFC4, symSize: 0x18 }
  - { offset: 0x4284D, size: 0x8, addend: 0x0, symName: __ZNKSt16initializer_listIiE3endB8ne180100Ev, symObjAddr: 0x19050, symBinAddr: 0x10001BFDC, symSize: 0x20 }
  - { offset: 0x42873, size: 0x8, addend: 0x0, symName: __ZN8nlohmann16json_abi_v3_11_26detail5lexerINS0_10basic_jsonINSt3__13mapENS4_6vectorENS4_12basic_stringIcNS4_11char_traitsIcEENS4_9allocatorIcEEEEbxydSA_NS0_14adl_serializerENS6_IhNSA_IhEEEEEENS1_20input_stream_adapterEE6strtofERdPKcPPc, symObjAddr: 0x19070, symBinAddr: 0x10001BFFC, symSize: 0x48 }
  - { offset: 0x428B5, size: 0x8, addend: 0x0, symName: __ZN8nlohmann16json_abi_v3_11_26detail5lexerINS0_10basic_jsonINSt3__13mapENS4_6vectorENS4_12basic_stringIcNS4_11char_traitsIcEENS4_9allocatorIcEEEEbxydSA_NS0_14adl_serializerENS6_IhNSA_IhEEEEEENS1_20input_stream_adapterEED2Ev, symObjAddr: 0x190B8, symBinAddr: 0x10001C044, symSize: 0x44 }
  - { offset: 0x428DF, size: 0x8, addend: 0x0, symName: __ZNSt3__16vectorIcNS_9allocatorIcEEED1B8ne180100Ev, symObjAddr: 0x190FC, symBinAddr: 0x10001C088, symSize: 0x2C }
  - { offset: 0x42909, size: 0x8, addend: 0x0, symName: __ZNSt3__16vectorIcNS_9allocatorIcEEED2B8ne180100Ev, symObjAddr: 0x19128, symBinAddr: 0x10001C0B4, symSize: 0x44 }
  - { offset: 0x42933, size: 0x8, addend: 0x0, symName: __ZNSt3__16vectorIcNS_9allocatorIcEEE16__destroy_vectorC1B8ne180100ERS3_, symObjAddr: 0x1916C, symBinAddr: 0x10001C0F8, symSize: 0x34 }
  - { offset: 0x4296C, size: 0x8, addend: 0x0, symName: __ZNSt3__16vectorIcNS_9allocatorIcEEE16__destroy_vectorclB8ne180100Ev, symObjAddr: 0x191A0, symBinAddr: 0x10001C12C, symSize: 0x90 }
  - { offset: 0x42992, size: 0x8, addend: 0x0, symName: __ZNSt3__16vectorIcNS_9allocatorIcEEE16__destroy_vectorC2B8ne180100ERS3_, symObjAddr: 0x19230, symBinAddr: 0x10001C1BC, symSize: 0x20 }
  - { offset: 0x429CB, size: 0x8, addend: 0x0, symName: __ZN8nlohmann16json_abi_v3_11_26detail20input_stream_adapterC1ERNSt3__113basic_istreamIcNS3_11char_traitsIcEEEE, symObjAddr: 0x19250, symBinAddr: 0x10001C1DC, symSize: 0x34 }
  - { offset: 0x42A04, size: 0x8, addend: 0x0, symName: __ZN8nlohmann16json_abi_v3_11_26detail20input_stream_adapterC2ERNSt3__113basic_istreamIcNS3_11char_traitsIcEEEE, symObjAddr: 0x19284, symBinAddr: 0x10001C210, symSize: 0x50 }
  - { offset: 0x42A3D, size: 0x8, addend: 0x0, symName: __ZNSt3__18functionIFbiN8nlohmann16json_abi_v3_11_26detail13parse_event_tERNS2_10basic_jsonINS_3mapENS_6vectorENS_12basic_stringIcNS_11char_traitsIcEENS_9allocatorIcEEEEbxydSB_NS2_14adl_serializerENS7_IhNSB_IhEEEEEEEEC2B8ne180100EDn, symObjAddr: 0x192D4, symBinAddr: 0x10001C260, symSize: 0x30 }
  - { offset: 0x42A72, size: 0x8, addend: 0x0, symName: __ZNSt3__110__function12__value_funcIFbiN8nlohmann16json_abi_v3_11_26detail13parse_event_tERNS3_10basic_jsonINS_3mapENS_6vectorENS_12basic_stringIcNS_11char_traitsIcEENS_9allocatorIcEEEEbxydSC_NS3_14adl_serializerENS8_IhNSC_IhEEEEEEEEC1B8ne180100Ev, symObjAddr: 0x19304, symBinAddr: 0x10001C290, symSize: 0x2C }
  - { offset: 0x42A9C, size: 0x8, addend: 0x0, symName: __ZNSt3__110__function12__value_funcIFbiN8nlohmann16json_abi_v3_11_26detail13parse_event_tERNS3_10basic_jsonINS_3mapENS_6vectorENS_12basic_stringIcNS_11char_traitsIcEENS_9allocatorIcEEEEbxydSC_NS3_14adl_serializerENS8_IhNSC_IhEEEEEEEEC2B8ne180100Ev, symObjAddr: 0x19330, symBinAddr: 0x10001C2BC, symSize: 0x18 }
  - { offset: 0x42AC6, size: 0x8, addend: 0x0, symName: __ZNKSt3__18functionIFbiN8nlohmann16json_abi_v3_11_26detail13parse_event_tERNS2_10basic_jsonINS_3mapENS_6vectorENS_12basic_stringIcNS_11char_traitsIcEENS_9allocatorIcEEEEbxydSB_NS2_14adl_serializerENS7_IhNSB_IhEEEEEEEEcvbB8ne180100Ev, symObjAddr: 0x19348, symBinAddr: 0x10001C2D4, symSize: 0x28 }
  - { offset: 0x42B2B, size: 0x8, addend: 0x0, symName: __ZN8nlohmann16json_abi_v3_11_26detail28json_sax_dom_callback_parserINS0_10basic_jsonINSt3__13mapENS4_6vectorENS4_12basic_stringIcNS4_11char_traitsIcEENS4_9allocatorIcEEEEbxydSA_NS0_14adl_serializerENS6_IhNSA_IhEEEEEEEC1ERSG_NS4_8functionIFbiNS1_13parse_event_tESI_EEEb, symObjAddr: 0x19370, symBinAddr: 0x10001C2FC, symSize: 0x50 }
  - { offset: 0x42B89, size: 0x8, addend: 0x0, symName: __ZN8nlohmann16json_abi_v3_11_26detail6parserINS0_10basic_jsonINSt3__13mapENS4_6vectorENS4_12basic_stringIcNS4_11char_traitsIcEENS4_9allocatorIcEEEEbxydSA_NS0_14adl_serializerENS6_IhNSA_IhEEEEEENS1_20input_stream_adapterEE18sax_parse_internalINS1_28json_sax_dom_callback_parserISG_EEEEbPT_, symObjAddr: 0x193C0, symBinAddr: 0x10001C34C, symSize: 0x1444 }
  - { offset: 0x42C1C, size: 0x8, addend: 0x0, symName: __ZN8nlohmann16json_abi_v3_11_26detail28json_sax_dom_callback_parserINS0_10basic_jsonINSt3__13mapENS4_6vectorENS4_12basic_stringIcNS4_11char_traitsIcEENS4_9allocatorIcEEEEbxydSA_NS0_14adl_serializerENS6_IhNSA_IhEEEEEEE11parse_errorINS1_11parse_errorEEEbmRKSC_RKT_, symObjAddr: 0x1A848, symBinAddr: 0x10001D7D4, symSize: 0x74 }
  - { offset: 0x42C70, size: 0x8, addend: 0x0, symName: __ZNK8nlohmann16json_abi_v3_11_26detail5lexerINS0_10basic_jsonINSt3__13mapENS4_6vectorENS4_12basic_stringIcNS4_11char_traitsIcEENS4_9allocatorIcEEEEbxydSA_NS0_14adl_serializerENS6_IhNSA_IhEEEEEENS1_20input_stream_adapterEE12get_positionEv, symObjAddr: 0x1A8BC, symBinAddr: 0x10001D848, symSize: 0x28 }
  - { offset: 0x42C96, size: 0x8, addend: 0x0, symName: __ZNK8nlohmann16json_abi_v3_11_26detail10position_tcvmEv, symObjAddr: 0x1A8E4, symBinAddr: 0x10001D870, symSize: 0x18 }
  - { offset: 0x42CBC, size: 0x8, addend: 0x0, symName: __ZNK8nlohmann16json_abi_v3_11_26detail5lexerINS0_10basic_jsonINSt3__13mapENS4_6vectorENS4_12basic_stringIcNS4_11char_traitsIcEENS4_9allocatorIcEEEEbxydSA_NS0_14adl_serializerENS6_IhNSA_IhEEEEEENS1_20input_stream_adapterEE16get_token_stringEv, symObjAddr: 0x1A8FC, symBinAddr: 0x10001D888, symSize: 0x1B8 }
  - { offset: 0x42D56, size: 0x8, addend: 0x0, symName: __ZN8nlohmann16json_abi_v3_11_26detail11parse_error6createIDnLi0EEES2_iRKNS1_10position_tERKNSt3__112basic_stringIcNS7_11char_traitsIcEENS7_9allocatorIcEEEET_, symObjAddr: 0x1AAB4, symBinAddr: 0x10001DA40, symSize: 0x18C }
  - { offset: 0x42DC5, size: 0x8, addend: 0x0, symName: __ZN8nlohmann16json_abi_v3_11_26detail6parserINS0_10basic_jsonINSt3__13mapENS4_6vectorENS4_12basic_stringIcNS4_11char_traitsIcEENS4_9allocatorIcEEEEbxydSA_NS0_14adl_serializerENS6_IhNSA_IhEEEEEENS1_20input_stream_adapterEE17exception_messageENS1_10lexer_baseISG_E10token_typeERKSC_, symObjAddr: 0x1AC40, symBinAddr: 0x10001DBCC, symSize: 0x2B0 }
  - { offset: 0x42E19, size: 0x8, addend: 0x0, symName: __ZN8nlohmann16json_abi_v3_11_26detail11parse_errorD1Ev, symObjAddr: 0x1AEF0, symBinAddr: 0x10001DE7C, symSize: 0x2C }
  - { offset: 0x42E46, size: 0x8, addend: 0x0, symName: __ZNK8nlohmann16json_abi_v3_11_26detail28json_sax_dom_callback_parserINS0_10basic_jsonINSt3__13mapENS4_6vectorENS4_12basic_stringIcNS4_11char_traitsIcEENS4_9allocatorIcEEEEbxydSA_NS0_14adl_serializerENS6_IhNSA_IhEEEEEEE10is_erroredEv, symObjAddr: 0x1AF1C, symBinAddr: 0x10001DEA8, symSize: 0x1C }
  - { offset: 0x42E6C, size: 0x8, addend: 0x0, symName: __ZN8nlohmann16json_abi_v3_11_210basic_jsonINSt3__13mapENS2_6vectorENS2_12basic_stringIcNS2_11char_traitsIcEENS2_9allocatorIcEEEEbxydS8_NS0_14adl_serializerENS4_IhNS8_IhEEEEEaSESE_, symObjAddr: 0x1AF38, symBinAddr: 0x10001DEC4, symSize: 0x80 }
  - { offset: 0x42EA2, size: 0x8, addend: 0x0, symName: __ZNK8nlohmann16json_abi_v3_11_210basic_jsonINSt3__13mapENS2_6vectorENS2_12basic_stringIcNS2_11char_traitsIcEENS2_9allocatorIcEEEEbxydS8_NS0_14adl_serializerENS4_IhNS8_IhEEEEE12is_discardedEv, symObjAddr: 0x1AFB8, symBinAddr: 0x10001DF44, symSize: 0x24 }
  - { offset: 0x42EC8, size: 0x8, addend: 0x0, symName: __ZN8nlohmann16json_abi_v3_11_26detail28json_sax_dom_callback_parserINS0_10basic_jsonINSt3__13mapENS4_6vectorENS4_12basic_stringIcNS4_11char_traitsIcEENS4_9allocatorIcEEEEbxydSA_NS0_14adl_serializerENS6_IhNSA_IhEEEEEEED1Ev, symObjAddr: 0x1AFDC, symBinAddr: 0x10001DF68, symSize: 0x2C }
  - { offset: 0x42F2C, size: 0x8, addend: 0x0, symName: __ZN8nlohmann16json_abi_v3_11_26detail19json_sax_dom_parserINS0_10basic_jsonINSt3__13mapENS4_6vectorENS4_12basic_stringIcNS4_11char_traitsIcEENS4_9allocatorIcEEEEbxydSA_NS0_14adl_serializerENS6_IhNSA_IhEEEEEEEC1ERSG_b, symObjAddr: 0x1B008, symBinAddr: 0x10001DF94, symSize: 0x48 }
  - { offset: 0x42F7A, size: 0x8, addend: 0x0, symName: __ZN8nlohmann16json_abi_v3_11_26detail6parserINS0_10basic_jsonINSt3__13mapENS4_6vectorENS4_12basic_stringIcNS4_11char_traitsIcEENS4_9allocatorIcEEEEbxydSA_NS0_14adl_serializerENS6_IhNSA_IhEEEEEENS1_20input_stream_adapterEE18sax_parse_internalINS1_19json_sax_dom_parserISG_EEEEbPT_, symObjAddr: 0x1B050, symBinAddr: 0x10001DFDC, symSize: 0x13F8 }
  - { offset: 0x42FF6, size: 0x8, addend: 0x0, symName: __ZN8nlohmann16json_abi_v3_11_26detail19json_sax_dom_parserINS0_10basic_jsonINSt3__13mapENS4_6vectorENS4_12basic_stringIcNS4_11char_traitsIcEENS4_9allocatorIcEEEEbxydSA_NS0_14adl_serializerENS6_IhNSA_IhEEEEEEE11parse_errorINS1_11parse_errorEEEbmRKSC_RKT_, symObjAddr: 0x1C48C, symBinAddr: 0x10001F418, symSize: 0x74 }
  - { offset: 0x4304A, size: 0x8, addend: 0x0, symName: __ZNK8nlohmann16json_abi_v3_11_26detail19json_sax_dom_parserINS0_10basic_jsonINSt3__13mapENS4_6vectorENS4_12basic_stringIcNS4_11char_traitsIcEENS4_9allocatorIcEEEEbxydSA_NS0_14adl_serializerENS6_IhNSA_IhEEEEEEE10is_erroredEv, symObjAddr: 0x1C500, symBinAddr: 0x10001F48C, symSize: 0x1C }
  - { offset: 0x43070, size: 0x8, addend: 0x0, symName: __ZN8nlohmann16json_abi_v3_11_26detail19json_sax_dom_parserINS0_10basic_jsonINSt3__13mapENS4_6vectorENS4_12basic_stringIcNS4_11char_traitsIcEENS4_9allocatorIcEEEEbxydSA_NS0_14adl_serializerENS6_IhNSA_IhEEEEEEED1Ev, symObjAddr: 0x1C51C, symBinAddr: 0x10001F4A8, symSize: 0x2C }
  - { offset: 0x4309A, size: 0x8, addend: 0x0, symName: __ZNKSt3__110__function12__value_funcIFbiN8nlohmann16json_abi_v3_11_26detail13parse_event_tERNS3_10basic_jsonINS_3mapENS_6vectorENS_12basic_stringIcNS_11char_traitsIcEENS_9allocatorIcEEEEbxydSC_NS3_14adl_serializerENS8_IhNSC_IhEEEEEEEEcvbB8ne180100Ev, symObjAddr: 0x1C548, symBinAddr: 0x10001F4D4, symSize: 0x24 }
  - { offset: 0x430C0, size: 0x8, addend: 0x0, symName: __ZN8nlohmann16json_abi_v3_11_26detail28json_sax_dom_callback_parserINS0_10basic_jsonINSt3__13mapENS4_6vectorENS4_12basic_stringIcNS4_11char_traitsIcEENS4_9allocatorIcEEEEbxydSA_NS0_14adl_serializerENS6_IhNSA_IhEEEEEEEC2ERSG_NS4_8functionIFbiNS1_13parse_event_tESI_EEEb, symObjAddr: 0x1C56C, symBinAddr: 0x10001F4F8, symSize: 0x13C }
  - { offset: 0x43118, size: 0x8, addend: 0x0, symName: __ZNSt3__16vectorIPN8nlohmann16json_abi_v3_11_210basic_jsonINS_3mapES0_NS_12basic_stringIcNS_11char_traitsIcEENS_9allocatorIcEEEEbxydS8_NS2_14adl_serializerENS0_IhNS8_IhEEEEEENS8_ISF_EEEC1B8ne180100Ev, symObjAddr: 0x1C6A8, symBinAddr: 0x10001F634, symSize: 0x2C }
  - { offset: 0x43142, size: 0x8, addend: 0x0, symName: __ZNSt3__16vectorIbNS_9allocatorIbEEEC1B8ne180100Ev, symObjAddr: 0x1C6D4, symBinAddr: 0x10001F660, symSize: 0x2C }
  - { offset: 0x4316E, size: 0x8, addend: 0x0, symName: __ZNSt3__16vectorIbNS_9allocatorIbEEE9push_backERKb, symObjAddr: 0x1C700, symBinAddr: 0x10001F68C, symSize: 0xA4 }
  - { offset: 0x431A5, size: 0x8, addend: 0x0, symName: __ZNSt3__16vectorIbNS_9allocatorIbEEED1B8ne180100Ev, symObjAddr: 0x1C7A4, symBinAddr: 0x10001F730, symSize: 0x2C }
  - { offset: 0x431CF, size: 0x8, addend: 0x0, symName: __ZNSt3__16vectorIPN8nlohmann16json_abi_v3_11_210basic_jsonINS_3mapES0_NS_12basic_stringIcNS_11char_traitsIcEENS_9allocatorIcEEEEbxydS8_NS2_14adl_serializerENS0_IhNS8_IhEEEEEENS8_ISF_EEED1B8ne180100Ev, symObjAddr: 0x1C7D0, symBinAddr: 0x10001F75C, symSize: 0x2C }
  - { offset: 0x431F9, size: 0x8, addend: 0x0, symName: __ZNSt3__16vectorIPN8nlohmann16json_abi_v3_11_210basic_jsonINS_3mapES0_NS_12basic_stringIcNS_11char_traitsIcEENS_9allocatorIcEEEEbxydS8_NS2_14adl_serializerENS0_IhNS8_IhEEEEEENS8_ISF_EEEC2B8ne180100Ev, symObjAddr: 0x1C7FC, symBinAddr: 0x10001F788, symSize: 0x4C }
  - { offset: 0x43223, size: 0x8, addend: 0x0, symName: __ZNSt3__117__compressed_pairIPPN8nlohmann16json_abi_v3_11_210basic_jsonINS_3mapENS_6vectorENS_12basic_stringIcNS_11char_traitsIcEENS_9allocatorIcEEEEbxydS9_NS2_14adl_serializerENS5_IhNS9_IhEEEEEENS9_ISG_EEEC1B8ne180100IDnNS_18__default_init_tagEEEOT_OT0_, symObjAddr: 0x1C848, symBinAddr: 0x10001F7D4, symSize: 0x3C }
  - { offset: 0x4327D, size: 0x8, addend: 0x0, symName: __ZNSt3__117__compressed_pairIPPN8nlohmann16json_abi_v3_11_210basic_jsonINS_3mapENS_6vectorENS_12basic_stringIcNS_11char_traitsIcEENS_9allocatorIcEEEEbxydS9_NS2_14adl_serializerENS5_IhNS9_IhEEEEEENS9_ISG_EEEC2B8ne180100IDnNS_18__default_init_tagEEEOT_OT0_, symObjAddr: 0x1C884, symBinAddr: 0x10001F810, symSize: 0x40 }
  - { offset: 0x432D7, size: 0x8, addend: 0x0, symName: __ZNSt3__122__compressed_pair_elemIPPN8nlohmann16json_abi_v3_11_210basic_jsonINS_3mapENS_6vectorENS_12basic_stringIcNS_11char_traitsIcEENS_9allocatorIcEEEEbxydS9_NS2_14adl_serializerENS5_IhNS9_IhEEEEEELi0ELb0EEC2B8ne180100IDnvEEOT_, symObjAddr: 0x1C8C4, symBinAddr: 0x10001F850, symSize: 0x1C }
  - { offset: 0x4331A, size: 0x8, addend: 0x0, symName: __ZNSt3__122__compressed_pair_elemINS_9allocatorIPN8nlohmann16json_abi_v3_11_210basic_jsonINS_3mapENS_6vectorENS_12basic_stringIcNS_11char_traitsIcEENS1_IcEEEEbxydS1_NS3_14adl_serializerENS6_IhNS1_IhEEEEEEEELi1ELb1EEC2B8ne180100ENS_18__default_init_tagE, symObjAddr: 0x1C8E0, symBinAddr: 0x10001F86C, symSize: 0x2C }
  - { offset: 0x4334F, size: 0x8, addend: 0x0, symName: __ZNSt3__19allocatorIPN8nlohmann16json_abi_v3_11_210basic_jsonINS_3mapENS_6vectorENS_12basic_stringIcNS_11char_traitsIcEENS0_IcEEEEbxydS0_NS2_14adl_serializerENS5_IhNS0_IhEEEEEEEC2B8ne180100Ev, symObjAddr: 0x1C90C, symBinAddr: 0x10001F898, symSize: 0x2C }
  - { offset: 0x43379, size: 0x8, addend: 0x0, symName: __ZNSt3__116__non_trivial_ifILb1ENS_9allocatorIPN8nlohmann16json_abi_v3_11_210basic_jsonINS_3mapENS_6vectorENS_12basic_stringIcNS_11char_traitsIcEENS1_IcEEEEbxydS1_NS3_14adl_serializerENS6_IhNS1_IhEEEEEEEEEC2B8ne180100Ev, symObjAddr: 0x1C938, symBinAddr: 0x10001F8C4, symSize: 0x14 }
  - { offset: 0x433A3, size: 0x8, addend: 0x0, symName: __ZNSt3__16vectorIbNS_9allocatorIbEEEC2B8ne180100Ev, symObjAddr: 0x1C94C, symBinAddr: 0x10001F8D8, symSize: 0x4C }
  - { offset: 0x433CF, size: 0x8, addend: 0x0, symName: __ZNSt3__117__compressed_pairImNS_9allocatorImEEEC1B8ne180100IiNS_18__default_init_tagEEEOT_OT0_, symObjAddr: 0x1C998, symBinAddr: 0x10001F924, symSize: 0x3C }
  - { offset: 0x43429, size: 0x8, addend: 0x0, symName: __ZNSt3__117__compressed_pairImNS_9allocatorImEEEC2B8ne180100IiNS_18__default_init_tagEEEOT_OT0_, symObjAddr: 0x1C9D4, symBinAddr: 0x10001F960, symSize: 0x40 }
  - { offset: 0x43483, size: 0x8, addend: 0x0, symName: __ZNSt3__122__compressed_pair_elemINS_9allocatorImEELi1ELb1EEC2B8ne180100ENS_18__default_init_tagE, symObjAddr: 0x1CA14, symBinAddr: 0x10001F9A0, symSize: 0x2C }
  - { offset: 0x434B8, size: 0x8, addend: 0x0, symName: __ZNSt3__19allocatorImEC2B8ne180100Ev, symObjAddr: 0x1CA40, symBinAddr: 0x10001F9CC, symSize: 0x2C }
  - { offset: 0x434E2, size: 0x8, addend: 0x0, symName: __ZNSt3__116__non_trivial_ifILb1ENS_9allocatorImEEEC2B8ne180100Ev, symObjAddr: 0x1CA6C, symBinAddr: 0x10001F9F8, symSize: 0x14 }
  - { offset: 0x4350C, size: 0x8, addend: 0x0, symName: __ZNKSt3__16vectorIbNS_9allocatorIbEEE8capacityB8ne180100Ev, symObjAddr: 0x1CA80, symBinAddr: 0x10001FA0C, symSize: 0x2C }
  - { offset: 0x43532, size: 0x8, addend: 0x0, symName: __ZNSt3__16vectorIbNS_9allocatorIbEEE7reserveEm, symObjAddr: 0x1CAAC, symBinAddr: 0x10001FA38, symSize: 0x118 }
  - { offset: 0x4357F, size: 0x8, addend: 0x0, symName: __ZNKSt3__16vectorIbNS_9allocatorIbEEE11__recommendB8ne180100Em, symObjAddr: 0x1CBC4, symBinAddr: 0x10001FB50, symSize: 0xCC }
  - { offset: 0x435D4, size: 0x8, addend: 0x0, symName: __ZNSt3__16vectorIbNS_9allocatorIbEEE4backB8ne180100Ev, symObjAddr: 0x1CC90, symBinAddr: 0x10001FC1C, symSize: 0x3C }
  - { offset: 0x435FA, size: 0x8, addend: 0x0, symName: __ZNSt3__115__bit_referenceINS_6vectorIbNS_9allocatorIbEEEELb1EEaSB8ne180100Eb, symObjAddr: 0x1CCCC, symBinAddr: 0x10001FC58, symSize: 0x6C }
  - { offset: 0x4362F, size: 0x8, addend: 0x0, symName: __ZNSt3__16vectorIbNS_9allocatorIbEEE26__internal_cap_to_externalB8ne180100Em, symObjAddr: 0x1CD38, symBinAddr: 0x10001FCC4, symSize: 0x18 }
  - { offset: 0x43653, size: 0x8, addend: 0x0, symName: __ZNKSt3__16vectorIbNS_9allocatorIbEEE5__capB8ne180100Ev, symObjAddr: 0x1CD50, symBinAddr: 0x10001FCDC, symSize: 0x28 }
  - { offset: 0x43679, size: 0x8, addend: 0x0, symName: __ZNKSt3__117__compressed_pairImNS_9allocatorImEEE5firstB8ne180100Ev, symObjAddr: 0x1CD78, symBinAddr: 0x10001FD04, symSize: 0x24 }
  - { offset: 0x4369F, size: 0x8, addend: 0x0, symName: __ZNKSt3__16vectorIbNS_9allocatorIbEEE8max_sizeEv, symObjAddr: 0x1CD9C, symBinAddr: 0x10001FD28, symSize: 0x7C }
  - { offset: 0x436E5, size: 0x8, addend: 0x0, symName: __ZNKSt3__16vectorIbNS_9allocatorIbEEE20__throw_length_errorB8ne180100Ev, symObjAddr: 0x1CE18, symBinAddr: 0x10001FDA4, symSize: 0x1C }
  - { offset: 0x4370B, size: 0x8, addend: 0x0, symName: __ZNKSt3__16vectorIbNS_9allocatorIbEEE13get_allocatorB8ne180100Ev, symObjAddr: 0x1CE34, symBinAddr: 0x10001FDC0, symSize: 0x30 }
  - { offset: 0x43731, size: 0x8, addend: 0x0, symName: __ZNSt3__16vectorIbNS_9allocatorIbEEEC1B8ne180100ERKS2_, symObjAddr: 0x1CE64, symBinAddr: 0x10001FDF0, symSize: 0x34 }
  - { offset: 0x4376C, size: 0x8, addend: 0x0, symName: __ZNSt3__16vectorIbNS_9allocatorIbEEE11__vallocateB8ne180100Em, symObjAddr: 0x1CE98, symBinAddr: 0x10001FE24, symSize: 0xA0 }
  - { offset: 0x437B0, size: 0x8, addend: 0x0, symName: __ZNSt3__16vectorIbNS_9allocatorIbEEE18__construct_at_endINS_14__bit_iteratorIS3_Lb0ELm0EEES6_EEvT_T0_m, symObjAddr: 0x1CF38, symBinAddr: 0x10001FEC4, symSize: 0x12C }
  - { offset: 0x43828, size: 0x8, addend: 0x0, symName: __ZNSt3__16vectorIbNS_9allocatorIbEEE5beginB8ne180100Ev, symObjAddr: 0x1D064, symBinAddr: 0x10001FFF0, symSize: 0x30 }
  - { offset: 0x4384E, size: 0x8, addend: 0x0, symName: __ZNSt3__16vectorIbNS_9allocatorIbEEE3endB8ne180100Ev, symObjAddr: 0x1D094, symBinAddr: 0x100020020, symSize: 0x30 }
  - { offset: 0x43874, size: 0x8, addend: 0x0, symName: __ZNKSt3__16vectorIbNS_9allocatorIbEEE4sizeB8ne180100Ev, symObjAddr: 0x1D0C4, symBinAddr: 0x100020050, symSize: 0x18 }
  - { offset: 0x4389A, size: 0x8, addend: 0x0, symName: __ZNSt3__16vectorIbNS_9allocatorIbEEE4swapERS3_, symObjAddr: 0x1D0DC, symBinAddr: 0x100020068, symSize: 0x84 }
  - { offset: 0x438DC, size: 0x8, addend: 0x0, symName: __ZNSt3__116allocator_traitsINS_9allocatorImEEE8max_sizeB8ne180100IS2_vEEmRKS2_, symObjAddr: 0x1D160, symBinAddr: 0x1000200EC, symSize: 0x24 }
  - { offset: 0x4390A, size: 0x8, addend: 0x0, symName: __ZNKSt3__16vectorIbNS_9allocatorIbEEE7__allocB8ne180100Ev, symObjAddr: 0x1D184, symBinAddr: 0x100020110, symSize: 0x28 }
  - { offset: 0x43930, size: 0x8, addend: 0x0, symName: __ZNSt3__114numeric_limitsImE3maxB8ne180100Ev, symObjAddr: 0x1D1AC, symBinAddr: 0x100020138, symSize: 0x14 }
  - { offset: 0x43944, size: 0x8, addend: 0x0, symName: __ZNKSt3__19allocatorImE8max_sizeB8ne180100Ev, symObjAddr: 0x1D1C0, symBinAddr: 0x10002014C, symSize: 0x14 }
  - { offset: 0x4396A, size: 0x8, addend: 0x0, symName: __ZNKSt3__117__compressed_pairImNS_9allocatorImEEE6secondB8ne180100Ev, symObjAddr: 0x1D1D4, symBinAddr: 0x100020160, symSize: 0x24 }
  - { offset: 0x43990, size: 0x8, addend: 0x0, symName: __ZNKSt3__122__compressed_pair_elemINS_9allocatorImEELi1ELb1EE5__getB8ne180100Ev, symObjAddr: 0x1D1F8, symBinAddr: 0x100020184, symSize: 0x14 }
  - { offset: 0x439B6, size: 0x8, addend: 0x0, symName: __ZNSt3__123__libcpp_numeric_limitsImLb1EE3maxB8ne180100Ev, symObjAddr: 0x1D20C, symBinAddr: 0x100020198, symSize: 0x8 }
  - { offset: 0x439CA, size: 0x8, addend: 0x0, symName: __ZNSt3__19allocatorIbEC1B8ne180100ImEERKNS0_IT_EE, symObjAddr: 0x1D214, symBinAddr: 0x1000201A0, symSize: 0x34 }
  - { offset: 0x43A08, size: 0x8, addend: 0x0, symName: __ZNSt3__19allocatorIbEC2B8ne180100ImEERKNS0_IT_EE, symObjAddr: 0x1D248, symBinAddr: 0x1000201D4, symSize: 0x30 }
  - { offset: 0x43A46, size: 0x8, addend: 0x0, symName: __ZNSt3__116__non_trivial_ifILb1ENS_9allocatorIbEEEC2B8ne180100Ev, symObjAddr: 0x1D278, symBinAddr: 0x100020204, symSize: 0x14 }
  - { offset: 0x43A70, size: 0x8, addend: 0x0, symName: __ZNSt3__16vectorIbNS_9allocatorIbEEEC2B8ne180100ERKS2_, symObjAddr: 0x1D28C, symBinAddr: 0x100020218, symSize: 0x6C }
  - { offset: 0x43AB1, size: 0x8, addend: 0x0, symName: __ZNSt3__19allocatorImEC1B8ne180100IbEERKNS0_IT_EE, symObjAddr: 0x1D2F8, symBinAddr: 0x100020284, symSize: 0x34 }
  - { offset: 0x43AF5, size: 0x8, addend: 0x0, symName: __ZNSt3__117__compressed_pairImNS_9allocatorImEEEC1B8ne180100IiS2_EEOT_OT0_, symObjAddr: 0x1D32C, symBinAddr: 0x1000202B8, symSize: 0x3C }
  - { offset: 0x43B4F, size: 0x8, addend: 0x0, symName: __ZNSt3__19allocatorImEC2B8ne180100IbEERKNS0_IT_EE, symObjAddr: 0x1D368, symBinAddr: 0x1000202F4, symSize: 0x30 }
  - { offset: 0x43B8D, size: 0x8, addend: 0x0, symName: __ZNSt3__117__compressed_pairImNS_9allocatorImEEEC2B8ne180100IiS2_EEOT_OT0_, symObjAddr: 0x1D398, symBinAddr: 0x100020324, symSize: 0x44 }
  - { offset: 0x43BE7, size: 0x8, addend: 0x0, symName: __ZNSt3__122__compressed_pair_elemINS_9allocatorImEELi1ELb1EEC2B8ne180100IS2_vEEOT_, symObjAddr: 0x1D3DC, symBinAddr: 0x100020368, symSize: 0x18 }
  - { offset: 0x43C2A, size: 0x8, addend: 0x0, symName: __ZNSt3__16vectorIbNS_9allocatorIbEEE7__allocB8ne180100Ev, symObjAddr: 0x1D434, symBinAddr: 0x1000203C0, symSize: 0x28 }
  - { offset: 0x43C50, size: 0x8, addend: 0x0, symName: __ZNSt3__16vectorIbNS_9allocatorIbEEE26__external_cap_to_internalB8ne180100Em, symObjAddr: 0x1D45C, symBinAddr: 0x1000203E8, symSize: 0x24 }
  - { offset: 0x43C74, size: 0x8, addend: 0x0, symName: __ZNSt3__16vectorIbNS_9allocatorIbEEE5__capB8ne180100Ev, symObjAddr: 0x1D480, symBinAddr: 0x10002040C, symSize: 0x28 }
  - { offset: 0x43C9A, size: 0x8, addend: 0x0, symName: __ZNSt3__19allocatorImE8allocateB8ne180100Em, symObjAddr: 0x1D4A8, symBinAddr: 0x100020434, symSize: 0x58 }
  - { offset: 0x43CCF, size: 0x8, addend: 0x0, symName: __ZNSt3__117__compressed_pairImNS_9allocatorImEEE6secondB8ne180100Ev, symObjAddr: 0x1D500, symBinAddr: 0x10002048C, symSize: 0x24 }
  - { offset: 0x43CF5, size: 0x8, addend: 0x0, symName: __ZNSt3__122__compressed_pair_elemINS_9allocatorImEELi1ELb1EE5__getB8ne180100Ev, symObjAddr: 0x1D524, symBinAddr: 0x1000204B0, symSize: 0x14 }
  - { offset: 0x43D1B, size: 0x8, addend: 0x0, symName: __ZNSt3__117__compressed_pairImNS_9allocatorImEEE5firstB8ne180100Ev, symObjAddr: 0x1D538, symBinAddr: 0x1000204C4, symSize: 0x24 }
  - { offset: 0x43D41, size: 0x8, addend: 0x0, symName: __ZNSt3__114__bit_iteratorINS_6vectorIbNS_9allocatorIbEEEELb0ELm0EEC1B8ne180100ERKS5_, symObjAddr: 0x1D5E4, symBinAddr: 0x100020570, symSize: 0x34 }
  - { offset: 0x43D7A, size: 0x8, addend: 0x0, symName: __ZNSt3__16vectorIbNS_9allocatorIbEEE11__make_iterB8ne180100Em, symObjAddr: 0x1D618, symBinAddr: 0x1000205A4, symSize: 0x64 }
  - { offset: 0x43DD7, size: 0x8, addend: 0x0, symName: __ZNKSt3__111__copy_loopINS_17_ClassicAlgPolicyEEclB8ne180100INS_14__bit_iteratorINS_6vectorIbNS_9allocatorIbEEEELb0ELm0EEES9_S9_EENS_4pairIT_T1_EESB_T0_SC_, symObjAddr: 0x1D8EC, symBinAddr: 0x100020878, symSize: 0xB8 }
  - { offset: 0x43E48, size: 0x8, addend: 0x0, symName: __ZNKSt3__114__bit_iteratorINS_6vectorIbNS_9allocatorIbEEEELb0ELm0EEdeB8ne180100Ev, symObjAddr: 0x1DB3C, symBinAddr: 0x100020AC8, symSize: 0x44 }
  - { offset: 0x43E6E, size: 0x8, addend: 0x0, symName: __ZNSt3__115__bit_referenceINS_6vectorIbNS_9allocatorIbEEEELb1EEaSB8ne180100ERKS5_, symObjAddr: 0x1DB80, symBinAddr: 0x100020B0C, symSize: 0x40 }
  - { offset: 0x43EA3, size: 0x8, addend: 0x0, symName: __ZNSt3__114__bit_iteratorINS_6vectorIbNS_9allocatorIbEEEELb0ELm0EEppB8ne180100Ev, symObjAddr: 0x1DBC0, symBinAddr: 0x100020B4C, symSize: 0x5C }
  - { offset: 0x43EC9, size: 0x8, addend: 0x0, symName: __ZNSt3__115__bit_referenceINS_6vectorIbNS_9allocatorIbEEEELb1EEC1B8ne180100EPmm, symObjAddr: 0x1DC80, symBinAddr: 0x100020C0C, symSize: 0x3C }
  - { offset: 0x43F11, size: 0x8, addend: 0x0, symName: __ZNSt3__115__bit_referenceINS_6vectorIbNS_9allocatorIbEEEELb1EEC2B8ne180100EPmm, symObjAddr: 0x1DCBC, symBinAddr: 0x100020C48, symSize: 0x2C }
  - { offset: 0x43F59, size: 0x8, addend: 0x0, symName: __ZNKSt3__115__bit_referenceINS_6vectorIbNS_9allocatorIbEEEELb1EEcvbB8ne180100Ev, symObjAddr: 0x1DCE8, symBinAddr: 0x100020C74, symSize: 0x2C }
  - { offset: 0x43F7F, size: 0x8, addend: 0x0, symName: __ZNSt3__118__unwrap_iter_implINS_14__bit_iteratorINS_6vectorIbNS_9allocatorIbEEEELb0ELm0EEELb0EE8__unwrapB8ne180100ES6_, symObjAddr: 0x1DD14, symBinAddr: 0x100020CA0, symSize: 0x38 }
  - { offset: 0x43FAA, size: 0x8, addend: 0x0, symName: __ZNSt3__14pairINS_14__bit_iteratorINS_6vectorIbNS_9allocatorIbEEEELb0ELm0EEES6_EC1B8ne180100IS6_S6_Li0EEEOT_OT0_, symObjAddr: 0x1DD4C, symBinAddr: 0x100020CD8, symSize: 0x3C }
  - { offset: 0x4400A, size: 0x8, addend: 0x0, symName: __ZNSt3__14pairINS_14__bit_iteratorINS_6vectorIbNS_9allocatorIbEEEELb0ELm0EEES6_EC2B8ne180100IS6_S6_Li0EEEOT_OT0_, symObjAddr: 0x1DD88, symBinAddr: 0x100020D14, symSize: 0x48 }
  - { offset: 0x4406A, size: 0x8, addend: 0x0, symName: __ZNSt3__118__unwrap_iter_implINS_14__bit_iteratorINS_6vectorIbNS_9allocatorIbEEEELb0ELm0EEELb0EE8__rewrapB8ne180100ES6_S6_, symObjAddr: 0x1DDD0, symBinAddr: 0x100020D5C, symSize: 0x3C }
  - { offset: 0x4409B, size: 0x8, addend: 0x0, symName: __ZNSt3__114__bit_iteratorINS_6vectorIbNS_9allocatorIbEEEELb0ELm0EEC2B8ne180100ERKS5_, symObjAddr: 0x1DE0C, symBinAddr: 0x100020D98, symSize: 0x30 }
  - { offset: 0x440D4, size: 0x8, addend: 0x0, symName: __ZNSt3__114__bit_iteratorINS_6vectorIbNS_9allocatorIbEEEELb0ELm0EEC1B8ne180100EPmj, symObjAddr: 0x1DE3C, symBinAddr: 0x100020DC8, symSize: 0x3C }
  - { offset: 0x4411C, size: 0x8, addend: 0x0, symName: __ZNSt3__114__bit_iteratorINS_6vectorIbNS_9allocatorIbEEEELb0ELm0EEC2B8ne180100EPmj, symObjAddr: 0x1DE78, symBinAddr: 0x100020E04, symSize: 0x2C }
  - { offset: 0x44164, size: 0x8, addend: 0x0, symName: __ZNSt3__16vectorIbNS_9allocatorIbEEE10__align_itB8ne180100Em, symObjAddr: 0x1DEF4, symBinAddr: 0x100020E80, symSize: 0x1C }
  - { offset: 0x44188, size: 0x8, addend: 0x0, symName: __ZNSt3__16vectorIbNS_9allocatorIbEEE10__make_refB8ne180100Em, symObjAddr: 0x1DF10, symBinAddr: 0x100020E9C, symSize: 0x60 }
  - { offset: 0x441BD, size: 0x8, addend: 0x0, symName: __ZNSt3__16vectorIbNS_9allocatorIbEEED2B8ne180100Ev, symObjAddr: 0x1DF70, symBinAddr: 0x100020EFC, symSize: 0x44 }
  - { offset: 0x441E7, size: 0x8, addend: 0x0, symName: __ZNSt3__16vectorIbNS_9allocatorIbEEE16__destroy_vectorC1B8ne180100ERS3_, symObjAddr: 0x1DFB4, symBinAddr: 0x100020F40, symSize: 0x34 }
  - { offset: 0x44220, size: 0x8, addend: 0x0, symName: __ZNSt3__16vectorIbNS_9allocatorIbEEE16__destroy_vectorclB8ne180100Ev, symObjAddr: 0x1DFE8, symBinAddr: 0x100020F74, symSize: 0x7C }
  - { offset: 0x44246, size: 0x8, addend: 0x0, symName: __ZNSt3__16vectorIbNS_9allocatorIbEEE16__destroy_vectorC2B8ne180100ERS3_, symObjAddr: 0x1E064, symBinAddr: 0x100020FF0, symSize: 0x20 }
  - { offset: 0x4427F, size: 0x8, addend: 0x0, symName: __ZNSt3__116allocator_traitsINS_9allocatorImEEE10deallocateB8ne180100ERS2_Pmm, symObjAddr: 0x1E084, symBinAddr: 0x100021010, symSize: 0x34 }
  - { offset: 0x442C1, size: 0x8, addend: 0x0, symName: __ZNSt3__19allocatorImE10deallocateB8ne180100EPmm, symObjAddr: 0x1E0B8, symBinAddr: 0x100021044, symSize: 0x40 }
  - { offset: 0x44305, size: 0x8, addend: 0x0, symName: __ZNSt3__16vectorIPN8nlohmann16json_abi_v3_11_210basic_jsonINS_3mapES0_NS_12basic_stringIcNS_11char_traitsIcEENS_9allocatorIcEEEEbxydS8_NS2_14adl_serializerENS0_IhNS8_IhEEEEEENS8_ISF_EEED2B8ne180100Ev, symObjAddr: 0x1E0F8, symBinAddr: 0x100021084, symSize: 0x44 }
  - { offset: 0x4432F, size: 0x8, addend: 0x0, symName: __ZNSt3__16vectorIPN8nlohmann16json_abi_v3_11_210basic_jsonINS_3mapES0_NS_12basic_stringIcNS_11char_traitsIcEENS_9allocatorIcEEEEbxydS8_NS2_14adl_serializerENS0_IhNS8_IhEEEEEENS8_ISF_EEE16__destroy_vectorC1B8ne180100ERSH_, symObjAddr: 0x1E13C, symBinAddr: 0x1000210C8, symSize: 0x34 }
  - { offset: 0x44368, size: 0x8, addend: 0x0, symName: __ZNSt3__16vectorIPN8nlohmann16json_abi_v3_11_210basic_jsonINS_3mapES0_NS_12basic_stringIcNS_11char_traitsIcEENS_9allocatorIcEEEEbxydS8_NS2_14adl_serializerENS0_IhNS8_IhEEEEEENS8_ISF_EEE16__destroy_vectorclB8ne180100Ev, symObjAddr: 0x1E170, symBinAddr: 0x1000210FC, symSize: 0x90 }
  - { offset: 0x4438E, size: 0x8, addend: 0x0, symName: __ZNSt3__16vectorIPN8nlohmann16json_abi_v3_11_210basic_jsonINS_3mapES0_NS_12basic_stringIcNS_11char_traitsIcEENS_9allocatorIcEEEEbxydS8_NS2_14adl_serializerENS0_IhNS8_IhEEEEEENS8_ISF_EEE16__destroy_vectorC2B8ne180100ERSH_, symObjAddr: 0x1E200, symBinAddr: 0x10002118C, symSize: 0x20 }
  - { offset: 0x443C7, size: 0x8, addend: 0x0, symName: __ZNSt3__16vectorIPN8nlohmann16json_abi_v3_11_210basic_jsonINS_3mapES0_NS_12basic_stringIcNS_11char_traitsIcEENS_9allocatorIcEEEEbxydS8_NS2_14adl_serializerENS0_IhNS8_IhEEEEEENS8_ISF_EEE7__clearB8ne180100Ev, symObjAddr: 0x1E220, symBinAddr: 0x1000211AC, symSize: 0x28 }
  - { offset: 0x443ED, size: 0x8, addend: 0x0, symName: __ZNKSt3__16vectorIPN8nlohmann16json_abi_v3_11_210basic_jsonINS_3mapES0_NS_12basic_stringIcNS_11char_traitsIcEENS_9allocatorIcEEEEbxydS8_NS2_14adl_serializerENS0_IhNS8_IhEEEEEENS8_ISF_EEE17__annotate_deleteB8ne180100Ev, symObjAddr: 0x1E248, symBinAddr: 0x1000211D4, symSize: 0x10 }
  - { offset: 0x44413, size: 0x8, addend: 0x0, symName: __ZNSt3__116allocator_traitsINS_9allocatorIPN8nlohmann16json_abi_v3_11_210basic_jsonINS_3mapENS_6vectorENS_12basic_stringIcNS_11char_traitsIcEENS1_IcEEEEbxydS1_NS3_14adl_serializerENS6_IhNS1_IhEEEEEEEEE10deallocateB8ne180100ERSH_PSG_m, symObjAddr: 0x1E258, symBinAddr: 0x1000211E4, symSize: 0x34 }
  - { offset: 0x44455, size: 0x8, addend: 0x0, symName: __ZNSt3__16vectorIPN8nlohmann16json_abi_v3_11_210basic_jsonINS_3mapES0_NS_12basic_stringIcNS_11char_traitsIcEENS_9allocatorIcEEEEbxydS8_NS2_14adl_serializerENS0_IhNS8_IhEEEEEENS8_ISF_EEE7__allocB8ne180100Ev, symObjAddr: 0x1E28C, symBinAddr: 0x100021218, symSize: 0x28 }
  - { offset: 0x4447B, size: 0x8, addend: 0x0, symName: __ZNKSt3__16vectorIPN8nlohmann16json_abi_v3_11_210basic_jsonINS_3mapES0_NS_12basic_stringIcNS_11char_traitsIcEENS_9allocatorIcEEEEbxydS8_NS2_14adl_serializerENS0_IhNS8_IhEEEEEENS8_ISF_EEE8capacityB8ne180100Ev, symObjAddr: 0x1E2B4, symBinAddr: 0x100021240, symSize: 0x40 }
  - { offset: 0x444A1, size: 0x8, addend: 0x0, symName: __ZNSt3__16vectorIPN8nlohmann16json_abi_v3_11_210basic_jsonINS_3mapES0_NS_12basic_stringIcNS_11char_traitsIcEENS_9allocatorIcEEEEbxydS8_NS2_14adl_serializerENS0_IhNS8_IhEEEEEENS8_ISF_EEE22__base_destruct_at_endB8ne180100EPSF_, symObjAddr: 0x1E2F4, symBinAddr: 0x100021280, symSize: 0x8C }
  - { offset: 0x444E5, size: 0x8, addend: 0x0, symName: __ZNSt3__116allocator_traitsINS_9allocatorIPN8nlohmann16json_abi_v3_11_210basic_jsonINS_3mapENS_6vectorENS_12basic_stringIcNS_11char_traitsIcEENS1_IcEEEEbxydS1_NS3_14adl_serializerENS6_IhNS1_IhEEEEEEEEE7destroyB8ne180100ISG_vEEvRSH_PT_, symObjAddr: 0x1E380, symBinAddr: 0x10002130C, symSize: 0x2C }
  - { offset: 0x44522, size: 0x8, addend: 0x0, symName: __ZNSt3__19allocatorIPN8nlohmann16json_abi_v3_11_210basic_jsonINS_3mapENS_6vectorENS_12basic_stringIcNS_11char_traitsIcEENS0_IcEEEEbxydS0_NS2_14adl_serializerENS5_IhNS0_IhEEEEEEE7destroyB8ne180100EPSF_, symObjAddr: 0x1E3C0, symBinAddr: 0x10002134C, symSize: 0x14 }
  - { offset: 0x44557, size: 0x8, addend: 0x0, symName: __ZNSt3__19allocatorIPN8nlohmann16json_abi_v3_11_210basic_jsonINS_3mapENS_6vectorENS_12basic_stringIcNS_11char_traitsIcEENS0_IcEEEEbxydS0_NS2_14adl_serializerENS5_IhNS0_IhEEEEEEE10deallocateB8ne180100EPSF_m, symObjAddr: 0x1E3D4, symBinAddr: 0x100021360, symSize: 0x40 }
  - { offset: 0x4459B, size: 0x8, addend: 0x0, symName: __ZNSt3__117__compressed_pairIPPN8nlohmann16json_abi_v3_11_210basic_jsonINS_3mapENS_6vectorENS_12basic_stringIcNS_11char_traitsIcEENS_9allocatorIcEEEEbxydS9_NS2_14adl_serializerENS5_IhNS9_IhEEEEEENS9_ISG_EEE6secondB8ne180100Ev, symObjAddr: 0x1E414, symBinAddr: 0x1000213A0, symSize: 0x24 }
  - { offset: 0x445C1, size: 0x8, addend: 0x0, symName: __ZNSt3__122__compressed_pair_elemINS_9allocatorIPN8nlohmann16json_abi_v3_11_210basic_jsonINS_3mapENS_6vectorENS_12basic_stringIcNS_11char_traitsIcEENS1_IcEEEEbxydS1_NS3_14adl_serializerENS6_IhNS1_IhEEEEEEEELi1ELb1EE5__getB8ne180100Ev, symObjAddr: 0x1E438, symBinAddr: 0x1000213C4, symSize: 0x14 }
  - { offset: 0x445E7, size: 0x8, addend: 0x0, symName: __ZNKSt3__16vectorIPN8nlohmann16json_abi_v3_11_210basic_jsonINS_3mapES0_NS_12basic_stringIcNS_11char_traitsIcEENS_9allocatorIcEEEEbxydS8_NS2_14adl_serializerENS0_IhNS8_IhEEEEEENS8_ISF_EEE9__end_capB8ne180100Ev, symObjAddr: 0x1E44C, symBinAddr: 0x1000213D8, symSize: 0x28 }
  - { offset: 0x4460D, size: 0x8, addend: 0x0, symName: __ZNKSt3__117__compressed_pairIPPN8nlohmann16json_abi_v3_11_210basic_jsonINS_3mapENS_6vectorENS_12basic_stringIcNS_11char_traitsIcEENS_9allocatorIcEEEEbxydS9_NS2_14adl_serializerENS5_IhNS9_IhEEEEEENS9_ISG_EEE5firstB8ne180100Ev, symObjAddr: 0x1E474, symBinAddr: 0x100021400, symSize: 0x24 }
  - { offset: 0x44633, size: 0x8, addend: 0x0, symName: __ZNKSt3__122__compressed_pair_elemIPPN8nlohmann16json_abi_v3_11_210basic_jsonINS_3mapENS_6vectorENS_12basic_stringIcNS_11char_traitsIcEENS_9allocatorIcEEEEbxydS9_NS2_14adl_serializerENS5_IhNS9_IhEEEEEELi0ELb0EE5__getB8ne180100Ev, symObjAddr: 0x1E498, symBinAddr: 0x100021424, symSize: 0x14 }
  - { offset: 0x44659, size: 0x8, addend: 0x0, symName: __ZN8nlohmann16json_abi_v3_11_26detail28json_sax_dom_callback_parserINS0_10basic_jsonINSt3__13mapENS4_6vectorENS4_12basic_stringIcNS4_11char_traitsIcEENS4_9allocatorIcEEEEbxydSA_NS0_14adl_serializerENS6_IhNSA_IhEEEEEEE12start_objectEm, symObjAddr: 0x1E4AC, symBinAddr: 0x100021438, symSize: 0x22C }
  - { offset: 0x446AC, size: 0x8, addend: 0x0, symName: __ZN8nlohmann16json_abi_v3_11_26detail28json_sax_dom_callback_parserINS0_10basic_jsonINSt3__13mapENS4_6vectorENS4_12basic_stringIcNS4_11char_traitsIcEENS4_9allocatorIcEEEEbxydSA_NS0_14adl_serializerENS6_IhNSA_IhEEEEEEE10end_objectEv, symObjAddr: 0x1E6D8, symBinAddr: 0x100021664, symSize: 0x278 }
  - { offset: 0x446F0, size: 0x8, addend: 0x0, symName: __ZN8nlohmann16json_abi_v3_11_26detail28json_sax_dom_callback_parserINS0_10basic_jsonINSt3__13mapENS4_6vectorENS4_12basic_stringIcNS4_11char_traitsIcEENS4_9allocatorIcEEEEbxydSA_NS0_14adl_serializerENS6_IhNSA_IhEEEEEEE3keyERSC_, symObjAddr: 0x1E950, symBinAddr: 0x1000218DC, symSize: 0x15C }
  - { offset: 0x44743, size: 0x8, addend: 0x0, symName: __ZN8nlohmann16json_abi_v3_11_26detail5lexerINS0_10basic_jsonINSt3__13mapENS4_6vectorENS4_12basic_stringIcNS4_11char_traitsIcEENS4_9allocatorIcEEEEbxydSA_NS0_14adl_serializerENS6_IhNSA_IhEEEEEENS1_20input_stream_adapterEE10get_stringEv, symObjAddr: 0x1EAAC, symBinAddr: 0x100021A38, symSize: 0x18 }
  - { offset: 0x44769, size: 0x8, addend: 0x0, symName: __ZN8nlohmann16json_abi_v3_11_26detail28json_sax_dom_callback_parserINS0_10basic_jsonINSt3__13mapENS4_6vectorENS4_12basic_stringIcNS4_11char_traitsIcEENS4_9allocatorIcEEEEbxydSA_NS0_14adl_serializerENS6_IhNSA_IhEEEEEEE11start_arrayEm, symObjAddr: 0x1EAC4, symBinAddr: 0x100021A50, symSize: 0x22C }
  - { offset: 0x447BC, size: 0x8, addend: 0x0, symName: __ZN8nlohmann16json_abi_v3_11_26detail28json_sax_dom_callback_parserINS0_10basic_jsonINSt3__13mapENS4_6vectorENS4_12basic_stringIcNS4_11char_traitsIcEENS4_9allocatorIcEEEEbxydSA_NS0_14adl_serializerENS6_IhNSA_IhEEEEEEE9end_arrayEv, symObjAddr: 0x1ECF0, symBinAddr: 0x100021C7C, symSize: 0x1EC }
  - { offset: 0x447F1, size: 0x8, addend: 0x0, symName: __ZNK8nlohmann16json_abi_v3_11_26detail5lexerINS0_10basic_jsonINSt3__13mapENS4_6vectorENS4_12basic_stringIcNS4_11char_traitsIcEENS4_9allocatorIcEEEEbxydSA_NS0_14adl_serializerENS6_IhNSA_IhEEEEEENS1_20input_stream_adapterEE16get_number_floatEv, symObjAddr: 0x1EEDC, symBinAddr: 0x100021E68, symSize: 0x18 }
  - { offset: 0x44828, size: 0x8, addend: 0x0, symName: __ZN8nlohmann16json_abi_v3_11_26detail28json_sax_dom_callback_parserINS0_10basic_jsonINSt3__13mapENS4_6vectorENS4_12basic_stringIcNS4_11char_traitsIcEENS4_9allocatorIcEEEEbxydSA_NS0_14adl_serializerENS6_IhNSA_IhEEEEEEE11parse_errorINS1_12out_of_rangeEEEbmRKSC_RKT_, symObjAddr: 0x1EF18, symBinAddr: 0x100021EA4, symSize: 0x74 }
  - { offset: 0x4487C, size: 0x8, addend: 0x0, symName: __ZN8nlohmann16json_abi_v3_11_26detail12out_of_range6createIDnLi0EEES2_iRKNSt3__112basic_stringIcNS4_11char_traitsIcEENS4_9allocatorIcEEEET_, symObjAddr: 0x1EF8C, symBinAddr: 0x100021F18, symSize: 0x130 }
  - { offset: 0x448DC, size: 0x8, addend: 0x0, symName: __ZN8nlohmann16json_abi_v3_11_26detail12out_of_rangeD1Ev, symObjAddr: 0x1F194, symBinAddr: 0x100022120, symSize: 0x2C }
  - { offset: 0x44909, size: 0x8, addend: 0x0, symName: __ZN8nlohmann16json_abi_v3_11_26detail28json_sax_dom_callback_parserINS0_10basic_jsonINSt3__13mapENS4_6vectorENS4_12basic_stringIcNS4_11char_traitsIcEENS4_9allocatorIcEEEEbxydSA_NS0_14adl_serializerENS6_IhNSA_IhEEEEEEE12number_floatEdRKSC_, symObjAddr: 0x1F1C0, symBinAddr: 0x10002214C, symSize: 0x54 }
  - { offset: 0x44949, size: 0x8, addend: 0x0, symName: __ZN8nlohmann16json_abi_v3_11_26detail28json_sax_dom_callback_parserINS0_10basic_jsonINSt3__13mapENS4_6vectorENS4_12basic_stringIcNS4_11char_traitsIcEENS4_9allocatorIcEEEEbxydSA_NS0_14adl_serializerENS6_IhNSA_IhEEEEEEE7booleanEb, symObjAddr: 0x1F214, symBinAddr: 0x1000221A0, symSize: 0x50 }
  - { offset: 0x4497E, size: 0x8, addend: 0x0, symName: __ZN8nlohmann16json_abi_v3_11_26detail28json_sax_dom_callback_parserINS0_10basic_jsonINSt3__13mapENS4_6vectorENS4_12basic_stringIcNS4_11char_traitsIcEENS4_9allocatorIcEEEEbxydSA_NS0_14adl_serializerENS6_IhNSA_IhEEEEEEE4nullEv, symObjAddr: 0x1F264, symBinAddr: 0x1000221F0, symSize: 0x4C }
  - { offset: 0x449A4, size: 0x8, addend: 0x0, symName: __ZN8nlohmann16json_abi_v3_11_26detail28json_sax_dom_callback_parserINS0_10basic_jsonINSt3__13mapENS4_6vectorENS4_12basic_stringIcNS4_11char_traitsIcEENS4_9allocatorIcEEEEbxydSA_NS0_14adl_serializerENS6_IhNSA_IhEEEEEEE14number_integerEx, symObjAddr: 0x1F2B0, symBinAddr: 0x10002223C, symSize: 0x50 }
  - { offset: 0x449D9, size: 0x8, addend: 0x0, symName: __ZNK8nlohmann16json_abi_v3_11_26detail5lexerINS0_10basic_jsonINSt3__13mapENS4_6vectorENS4_12basic_stringIcNS4_11char_traitsIcEENS4_9allocatorIcEEEEbxydSA_NS0_14adl_serializerENS6_IhNSA_IhEEEEEENS1_20input_stream_adapterEE18get_number_integerEv, symObjAddr: 0x1F300, symBinAddr: 0x10002228C, symSize: 0x18 }
  - { offset: 0x449FF, size: 0x8, addend: 0x0, symName: __ZN8nlohmann16json_abi_v3_11_26detail28json_sax_dom_callback_parserINS0_10basic_jsonINSt3__13mapENS4_6vectorENS4_12basic_stringIcNS4_11char_traitsIcEENS4_9allocatorIcEEEEbxydSA_NS0_14adl_serializerENS6_IhNSA_IhEEEEEEE6stringERSC_, symObjAddr: 0x1F318, symBinAddr: 0x1000222A4, symSize: 0x4C }
  - { offset: 0x44A34, size: 0x8, addend: 0x0, symName: __ZN8nlohmann16json_abi_v3_11_26detail28json_sax_dom_callback_parserINS0_10basic_jsonINSt3__13mapENS4_6vectorENS4_12basic_stringIcNS4_11char_traitsIcEENS4_9allocatorIcEEEEbxydSA_NS0_14adl_serializerENS6_IhNSA_IhEEEEEEE15number_unsignedEy, symObjAddr: 0x1F364, symBinAddr: 0x1000222F0, symSize: 0x50 }
  - { offset: 0x44A69, size: 0x8, addend: 0x0, symName: __ZNK8nlohmann16json_abi_v3_11_26detail5lexerINS0_10basic_jsonINSt3__13mapENS4_6vectorENS4_12basic_stringIcNS4_11char_traitsIcEENS4_9allocatorIcEEEEbxydSA_NS0_14adl_serializerENS6_IhNSA_IhEEEEEENS1_20input_stream_adapterEE19get_number_unsignedEv, symObjAddr: 0x1F3B4, symBinAddr: 0x100022340, symSize: 0x18 }
  - { offset: 0x44A8F, size: 0x8, addend: 0x0, symName: __ZNKSt3__16vectorIbNS_9allocatorIbEEE5emptyB8ne180100Ev, symObjAddr: 0x1F3CC, symBinAddr: 0x100022358, symSize: 0x24 }
  - { offset: 0x44AB5, size: 0x8, addend: 0x0, symName: __ZNSt3__16vectorIbNS_9allocatorIbEEE8pop_backB8ne180100Ev, symObjAddr: 0x1F3F0, symBinAddr: 0x10002237C, symSize: 0x20 }
  - { offset: 0x44ADB, size: 0x8, addend: 0x0, symName: __ZNKSt3__18functionIFbiN8nlohmann16json_abi_v3_11_26detail13parse_event_tERNS2_10basic_jsonINS_3mapENS_6vectorENS_12basic_stringIcNS_11char_traitsIcEENS_9allocatorIcEEEEbxydSB_NS2_14adl_serializerENS7_IhNSB_IhEEEEEEEEclEiS4_SI_, symObjAddr: 0x1F410, symBinAddr: 0x10002239C, symSize: 0x48 }
  - { offset: 0x44B30, size: 0x8, addend: 0x0, symName: __ZNKSt3__16vectorIPN8nlohmann16json_abi_v3_11_210basic_jsonINS_3mapES0_NS_12basic_stringIcNS_11char_traitsIcEENS_9allocatorIcEEEEbxydS8_NS2_14adl_serializerENS0_IhNS8_IhEEEEEENS8_ISF_EEE4sizeB8ne180100Ev, symObjAddr: 0x1F458, symBinAddr: 0x1000223E4, symSize: 0x28 }
  - { offset: 0x44B79, size: 0x8, addend: 0x0, symName: __ZN8nlohmann16json_abi_v3_11_26detail28json_sax_dom_callback_parserINS0_10basic_jsonINSt3__13mapENS4_6vectorENS4_12basic_stringIcNS4_11char_traitsIcEENS4_9allocatorIcEEEEbxydSA_NS0_14adl_serializerENS6_IhNSA_IhEEEEEEE12handle_valueINS1_7value_tEEENS4_4pairIbPSG_EEOT_b, symObjAddr: 0x1F480, symBinAddr: 0x10002240C, symSize: 0x4E0 }
  - { offset: 0x44BF6, size: 0x8, addend: 0x0, symName: __ZNSt3__16vectorIPN8nlohmann16json_abi_v3_11_210basic_jsonINS_3mapES0_NS_12basic_stringIcNS_11char_traitsIcEENS_9allocatorIcEEEEbxydS8_NS2_14adl_serializerENS0_IhNS8_IhEEEEEENS8_ISF_EEE9push_backB8ne180100ERKSF_, symObjAddr: 0x1F960, symBinAddr: 0x1000228EC, symSize: 0x90 }
  - { offset: 0x44C3C, size: 0x8, addend: 0x0, symName: __ZNSt3__16vectorIPN8nlohmann16json_abi_v3_11_210basic_jsonINS_3mapES0_NS_12basic_stringIcNS_11char_traitsIcEENS_9allocatorIcEEEEbxydS8_NS2_14adl_serializerENS0_IhNS8_IhEEEEEENS8_ISF_EEE4backB8ne180100Ev, symObjAddr: 0x1F9F0, symBinAddr: 0x10002297C, symSize: 0x1C }
  - { offset: 0x44C62, size: 0x8, addend: 0x0, symName: __ZNK8nlohmann16json_abi_v3_11_210basic_jsonINSt3__13mapENS2_6vectorENS2_12basic_stringIcNS2_11char_traitsIcEENS2_9allocatorIcEEEEbxydS8_NS0_14adl_serializerENS4_IhNS8_IhEEEEE8max_sizeEv, symObjAddr: 0x1FA0C, symBinAddr: 0x100022998, symSize: 0xA0 }
  - { offset: 0x44C88, size: 0x8, addend: 0x0, symName: __ZN8nlohmann16json_abi_v3_11_26detail12out_of_range6createIPNS0_10basic_jsonINSt3__13mapENS5_6vectorENS5_12basic_stringIcNS5_11char_traitsIcEENS5_9allocatorIcEEEEbxydSB_NS0_14adl_serializerENS7_IhNSB_IhEEEEEELi0EEES2_iRKSD_T_, symObjAddr: 0x1FAD4, symBinAddr: 0x100022A60, symSize: 0x130 }
  - { offset: 0x44CE8, size: 0x8, addend: 0x0, symName: __ZNKSt3__110__function12__value_funcIFbiN8nlohmann16json_abi_v3_11_26detail13parse_event_tERNS3_10basic_jsonINS_3mapENS_6vectorENS_12basic_stringIcNS_11char_traitsIcEENS_9allocatorIcEEEEbxydSC_NS3_14adl_serializerENS8_IhNSC_IhEEEEEEEEclB8ne180100EOiOS5_SJ_, symObjAddr: 0x1FCD0, symBinAddr: 0x100022C5C, symSize: 0x6C }
  - { offset: 0x44D52, size: 0x8, addend: 0x0, symName: __ZNSt3__117bad_function_callC1B8ne180100Ev, symObjAddr: 0x1FD74, symBinAddr: 0x100022D00, symSize: 0x2C }
  - { offset: 0x44D7C, size: 0x8, addend: 0x0, symName: __ZNSt3__117bad_function_callD1Ev, symObjAddr: 0x1FDA0, symBinAddr: 0x100022D2C, symSize: 0x2C }
  - { offset: 0x44DA6, size: 0x8, addend: 0x0, symName: __ZNSt3__117bad_function_callC2B8ne180100Ev, symObjAddr: 0x1FDCC, symBinAddr: 0x100022D58, symSize: 0x3C }
  - { offset: 0x44DD0, size: 0x8, addend: 0x0, symName: __ZNSt3__117bad_function_callD0Ev, symObjAddr: 0x1FE08, symBinAddr: 0x100022D94, symSize: 0x30 }
  - { offset: 0x44DFA, size: 0x8, addend: 0x0, symName: __ZNSt3__117bad_function_callD2Ev, symObjAddr: 0x1FE38, symBinAddr: 0x100022DC4, symSize: 0x2C }
  - { offset: 0x44E2A, size: 0x8, addend: 0x0, symName: __ZNSt3__14pairIbPN8nlohmann16json_abi_v3_11_210basic_jsonINS_3mapENS_6vectorENS_12basic_stringIcNS_11char_traitsIcEENS_9allocatorIcEEEEbxydS9_NS2_14adl_serializerENS5_IhNS9_IhEEEEEEEC1B8ne180100IbDnLi0EEEOT_OT0_, symObjAddr: 0x1FE64, symBinAddr: 0x100022DF0, symSize: 0x3C }
  - { offset: 0x44E8A, size: 0x8, addend: 0x0, symName: __ZNKSt3__16vectorIPN8nlohmann16json_abi_v3_11_210basic_jsonINS_3mapES0_NS_12basic_stringIcNS_11char_traitsIcEENS_9allocatorIcEEEEbxydS8_NS2_14adl_serializerENS0_IhNS8_IhEEEEEENS8_ISF_EEE5emptyB8ne180100Ev, symObjAddr: 0x1FEA0, symBinAddr: 0x100022E2C, symSize: 0x28 }
  - { offset: 0x44EB0, size: 0x8, addend: 0x0, symName: __ZNSt3__14pairIbPN8nlohmann16json_abi_v3_11_210basic_jsonINS_3mapENS_6vectorENS_12basic_stringIcNS_11char_traitsIcEENS_9allocatorIcEEEEbxydS9_NS2_14adl_serializerENS5_IhNS9_IhEEEEEEEC1B8ne180100IbSG_Li0EEEOT_OT0_, symObjAddr: 0x1FEC8, symBinAddr: 0x100022E54, symSize: 0x3C }
  - { offset: 0x44F10, size: 0x8, addend: 0x0, symName: __ZNSt3__16vectorIN8nlohmann16json_abi_v3_11_210basic_jsonINS_3mapES0_NS_12basic_stringIcNS_11char_traitsIcEENS_9allocatorIcEEEEbxydS8_NS2_14adl_serializerENS0_IhNS8_IhEEEEEENS8_ISE_EEE12emplace_backIJSE_EEERSE_DpOT_, symObjAddr: 0x1FF04, symBinAddr: 0x100022E90, symSize: 0x98 }
  - { offset: 0x44F61, size: 0x8, addend: 0x0, symName: __ZNSt3__14pairIbPN8nlohmann16json_abi_v3_11_210basic_jsonINS_3mapENS_6vectorENS_12basic_stringIcNS_11char_traitsIcEENS_9allocatorIcEEEEbxydS9_NS2_14adl_serializerENS5_IhNS9_IhEEEEEEEC1B8ne180100IbRSG_Li0EEEOT_OT0_, symObjAddr: 0x1FF9C, symBinAddr: 0x100022F28, symSize: 0x3C }
  - { offset: 0x44FC1, size: 0x8, addend: 0x0, symName: __ZNSt3__14pairIbPN8nlohmann16json_abi_v3_11_210basic_jsonINS_3mapENS_6vectorENS_12basic_stringIcNS_11char_traitsIcEENS_9allocatorIcEEEEbxydS9_NS2_14adl_serializerENS5_IhNS9_IhEEEEEEEC2B8ne180100IbDnLi0EEEOT_OT0_, symObjAddr: 0x1FFD8, symBinAddr: 0x100022F64, symSize: 0x30 }
  - { offset: 0x45021, size: 0x8, addend: 0x0, symName: __ZNSt3__14pairIbPN8nlohmann16json_abi_v3_11_210basic_jsonINS_3mapENS_6vectorENS_12basic_stringIcNS_11char_traitsIcEENS_9allocatorIcEEEEbxydS9_NS2_14adl_serializerENS5_IhNS9_IhEEEEEEEC2B8ne180100IbSG_Li0EEEOT_OT0_, symObjAddr: 0x20008, symBinAddr: 0x100022F94, symSize: 0x38 }
  - { offset: 0x45081, size: 0x8, addend: 0x0, symName: __ZNSt3__16vectorIN8nlohmann16json_abi_v3_11_210basic_jsonINS_3mapES0_NS_12basic_stringIcNS_11char_traitsIcEENS_9allocatorIcEEEEbxydS8_NS2_14adl_serializerENS0_IhNS8_IhEEEEEENS8_ISE_EEE24__emplace_back_slow_pathIJSE_EEEPSE_DpOT_, symObjAddr: 0x20040, symBinAddr: 0x100022FCC, symSize: 0xE8 }
  - { offset: 0x450E1, size: 0x8, addend: 0x0, symName: __ZNSt3__14pairIbPN8nlohmann16json_abi_v3_11_210basic_jsonINS_3mapENS_6vectorENS_12basic_stringIcNS_11char_traitsIcEENS_9allocatorIcEEEEbxydS9_NS2_14adl_serializerENS5_IhNS9_IhEEEEEEEC2B8ne180100IbRSG_Li0EEEOT_OT0_, symObjAddr: 0x20128, symBinAddr: 0x1000230B4, symSize: 0x38 }
  - { offset: 0x45141, size: 0x8, addend: 0x0, symName: __ZNSt3__16vectorIPN8nlohmann16json_abi_v3_11_210basic_jsonINS_3mapES0_NS_12basic_stringIcNS_11char_traitsIcEENS_9allocatorIcEEEEbxydS8_NS2_14adl_serializerENS0_IhNS8_IhEEEEEENS8_ISF_EEE9__end_capB8ne180100Ev, symObjAddr: 0x20160, symBinAddr: 0x1000230EC, symSize: 0x28 }
  - { offset: 0x45167, size: 0x8, addend: 0x0, symName: __ZNSt3__16vectorIPN8nlohmann16json_abi_v3_11_210basic_jsonINS_3mapES0_NS_12basic_stringIcNS_11char_traitsIcEENS_9allocatorIcEEEEbxydS8_NS2_14adl_serializerENS0_IhNS8_IhEEEEEENS8_ISF_EEE22__construct_one_at_endB8ne180100IJRKSF_EEEvDpOT_, symObjAddr: 0x20188, symBinAddr: 0x100023114, symSize: 0x90 }
  - { offset: 0x451B6, size: 0x8, addend: 0x0, symName: __ZNSt3__16vectorIPN8nlohmann16json_abi_v3_11_210basic_jsonINS_3mapES0_NS_12basic_stringIcNS_11char_traitsIcEENS_9allocatorIcEEEEbxydS8_NS2_14adl_serializerENS0_IhNS8_IhEEEEEENS8_ISF_EEE21__push_back_slow_pathIRKSF_EEPSF_OT_, symObjAddr: 0x20218, symBinAddr: 0x1000231A4, symSize: 0xE8 }
  - { offset: 0x45214, size: 0x8, addend: 0x0, symName: __ZNSt3__117__compressed_pairIPPN8nlohmann16json_abi_v3_11_210basic_jsonINS_3mapENS_6vectorENS_12basic_stringIcNS_11char_traitsIcEENS_9allocatorIcEEEEbxydS9_NS2_14adl_serializerENS5_IhNS9_IhEEEEEENS9_ISG_EEE5firstB8ne180100Ev, symObjAddr: 0x20300, symBinAddr: 0x10002328C, symSize: 0x24 }
  - { offset: 0x4523A, size: 0x8, addend: 0x0, symName: __ZNSt3__122__compressed_pair_elemIPPN8nlohmann16json_abi_v3_11_210basic_jsonINS_3mapENS_6vectorENS_12basic_stringIcNS_11char_traitsIcEENS_9allocatorIcEEEEbxydS9_NS2_14adl_serializerENS5_IhNS9_IhEEEEEELi0ELb0EE5__getB8ne180100Ev, symObjAddr: 0x20324, symBinAddr: 0x1000232B0, symSize: 0x14 }
  - { offset: 0x4527C, size: 0x8, addend: 0x0, symName: __ZNSt3__16vectorIPN8nlohmann16json_abi_v3_11_210basic_jsonINS_3mapES0_NS_12basic_stringIcNS_11char_traitsIcEENS_9allocatorIcEEEEbxydS8_NS2_14adl_serializerENS0_IhNS8_IhEEEEEENS8_ISF_EEE21_ConstructTransactionC1B8ne180100ERSH_m, symObjAddr: 0x20338, symBinAddr: 0x1000232C4, symSize: 0x3C }
  - { offset: 0x452C4, size: 0x8, addend: 0x0, symName: __ZNSt3__116allocator_traitsINS_9allocatorIPN8nlohmann16json_abi_v3_11_210basic_jsonINS_3mapENS_6vectorENS_12basic_stringIcNS_11char_traitsIcEENS1_IcEEEEbxydS1_NS3_14adl_serializerENS6_IhNS1_IhEEEEEEEEE9constructB8ne180100ISG_JRKSG_EvEEvRSH_PT_DpOT0_, symObjAddr: 0x20374, symBinAddr: 0x100023300, symSize: 0x34 }
  - { offset: 0x4531B, size: 0x8, addend: 0x0, symName: __ZNSt3__16vectorIPN8nlohmann16json_abi_v3_11_210basic_jsonINS_3mapES0_NS_12basic_stringIcNS_11char_traitsIcEENS_9allocatorIcEEEEbxydS8_NS2_14adl_serializerENS0_IhNS8_IhEEEEEENS8_ISF_EEE21_ConstructTransactionD1B8ne180100Ev, symObjAddr: 0x203A8, symBinAddr: 0x100023334, symSize: 0x2C }
  - { offset: 0x45345, size: 0x8, addend: 0x0, symName: __ZNSt3__16vectorIPN8nlohmann16json_abi_v3_11_210basic_jsonINS_3mapES0_NS_12basic_stringIcNS_11char_traitsIcEENS_9allocatorIcEEEEbxydS8_NS2_14adl_serializerENS0_IhNS8_IhEEEEEENS8_ISF_EEE21_ConstructTransactionC2B8ne180100ERSH_m, symObjAddr: 0x203D4, symBinAddr: 0x100023360, symSize: 0x44 }
  - { offset: 0x4538D, size: 0x8, addend: 0x0, symName: __ZNSt3__19allocatorIPN8nlohmann16json_abi_v3_11_210basic_jsonINS_3mapENS_6vectorENS_12basic_stringIcNS_11char_traitsIcEENS0_IcEEEEbxydS0_NS2_14adl_serializerENS5_IhNS0_IhEEEEEEE9constructB8ne180100ISF_JRKSF_EEEvPT_DpOT0_, symObjAddr: 0x20418, symBinAddr: 0x1000233A4, symSize: 0x28 }
  - { offset: 0x453E5, size: 0x8, addend: 0x0, symName: __ZNSt3__16vectorIPN8nlohmann16json_abi_v3_11_210basic_jsonINS_3mapES0_NS_12basic_stringIcNS_11char_traitsIcEENS_9allocatorIcEEEEbxydS8_NS2_14adl_serializerENS0_IhNS8_IhEEEEEENS8_ISF_EEE21_ConstructTransactionD2B8ne180100Ev, symObjAddr: 0x20440, symBinAddr: 0x1000233CC, symSize: 0x20 }
  - { offset: 0x4540F, size: 0x8, addend: 0x0, symName: __ZNKSt3__16vectorIPN8nlohmann16json_abi_v3_11_210basic_jsonINS_3mapES0_NS_12basic_stringIcNS_11char_traitsIcEENS_9allocatorIcEEEEbxydS8_NS2_14adl_serializerENS0_IhNS8_IhEEEEEENS8_ISF_EEE11__recommendB8ne180100Em, symObjAddr: 0x20460, symBinAddr: 0x1000233EC, symSize: 0xB4 }
  - { offset: 0x45464, size: 0x8, addend: 0x0, symName: __ZNSt3__114__split_bufferIPN8nlohmann16json_abi_v3_11_210basic_jsonINS_3mapENS_6vectorENS_12basic_stringIcNS_11char_traitsIcEENS_9allocatorIcEEEEbxydS9_NS2_14adl_serializerENS5_IhNS9_IhEEEEEERNS9_ISG_EEEC1EmmSI_, symObjAddr: 0x20514, symBinAddr: 0x1000234A0, symSize: 0x44 }
  - { offset: 0x454BD, size: 0x8, addend: 0x0, symName: __ZNSt3__114__split_bufferIPN8nlohmann16json_abi_v3_11_210basic_jsonINS_3mapENS_6vectorENS_12basic_stringIcNS_11char_traitsIcEENS_9allocatorIcEEEEbxydS9_NS2_14adl_serializerENS5_IhNS9_IhEEEEEERNS9_ISG_EEED1Ev, symObjAddr: 0x20668, symBinAddr: 0x1000235F4, symSize: 0x2C }
  - { offset: 0x454E9, size: 0x8, addend: 0x0, symName: __ZNKSt3__16vectorIPN8nlohmann16json_abi_v3_11_210basic_jsonINS_3mapES0_NS_12basic_stringIcNS_11char_traitsIcEENS_9allocatorIcEEEEbxydS8_NS2_14adl_serializerENS0_IhNS8_IhEEEEEENS8_ISF_EEE8max_sizeEv, symObjAddr: 0x20694, symBinAddr: 0x100023620, symSize: 0x60 }
  - { offset: 0x45511, size: 0x8, addend: 0x0, symName: __ZNKSt3__16vectorIPN8nlohmann16json_abi_v3_11_210basic_jsonINS_3mapES0_NS_12basic_stringIcNS_11char_traitsIcEENS_9allocatorIcEEEEbxydS8_NS2_14adl_serializerENS0_IhNS8_IhEEEEEENS8_ISF_EEE20__throw_length_errorB8ne180100Ev, symObjAddr: 0x206F4, symBinAddr: 0x100023680, symSize: 0x1C }
  - { offset: 0x45542, size: 0x8, addend: 0x0, symName: __ZNSt3__116allocator_traitsINS_9allocatorIPN8nlohmann16json_abi_v3_11_210basic_jsonINS_3mapENS_6vectorENS_12basic_stringIcNS_11char_traitsIcEENS1_IcEEEEbxydS1_NS3_14adl_serializerENS6_IhNS1_IhEEEEEEEEE8max_sizeB8ne180100ISH_vEEmRKSH_, symObjAddr: 0x20710, symBinAddr: 0x10002369C, symSize: 0x24 }
  - { offset: 0x45570, size: 0x8, addend: 0x0, symName: __ZNKSt3__16vectorIPN8nlohmann16json_abi_v3_11_210basic_jsonINS_3mapES0_NS_12basic_stringIcNS_11char_traitsIcEENS_9allocatorIcEEEEbxydS8_NS2_14adl_serializerENS0_IhNS8_IhEEEEEENS8_ISF_EEE7__allocB8ne180100Ev, symObjAddr: 0x20734, symBinAddr: 0x1000236C0, symSize: 0x28 }
  - { offset: 0x45596, size: 0x8, addend: 0x0, symName: __ZNKSt3__19allocatorIPN8nlohmann16json_abi_v3_11_210basic_jsonINS_3mapENS_6vectorENS_12basic_stringIcNS_11char_traitsIcEENS0_IcEEEEbxydS0_NS2_14adl_serializerENS5_IhNS0_IhEEEEEEE8max_sizeB8ne180100Ev, symObjAddr: 0x2075C, symBinAddr: 0x1000236E8, symSize: 0x14 }
  - { offset: 0x455BC, size: 0x8, addend: 0x0, symName: __ZNKSt3__117__compressed_pairIPPN8nlohmann16json_abi_v3_11_210basic_jsonINS_3mapENS_6vectorENS_12basic_stringIcNS_11char_traitsIcEENS_9allocatorIcEEEEbxydS9_NS2_14adl_serializerENS5_IhNS9_IhEEEEEENS9_ISG_EEE6secondB8ne180100Ev, symObjAddr: 0x20770, symBinAddr: 0x1000236FC, symSize: 0x24 }
  - { offset: 0x455E2, size: 0x8, addend: 0x0, symName: __ZNKSt3__122__compressed_pair_elemINS_9allocatorIPN8nlohmann16json_abi_v3_11_210basic_jsonINS_3mapENS_6vectorENS_12basic_stringIcNS_11char_traitsIcEENS1_IcEEEEbxydS1_NS3_14adl_serializerENS6_IhNS1_IhEEEEEEEELi1ELb1EE5__getB8ne180100Ev, symObjAddr: 0x20794, symBinAddr: 0x100023720, symSize: 0x14 }
  - { offset: 0x45608, size: 0x8, addend: 0x0, symName: __ZNSt3__114__split_bufferIPN8nlohmann16json_abi_v3_11_210basic_jsonINS_3mapENS_6vectorENS_12basic_stringIcNS_11char_traitsIcEENS_9allocatorIcEEEEbxydS9_NS2_14adl_serializerENS5_IhNS9_IhEEEEEERNS9_ISG_EEEC2EmmSI_, symObjAddr: 0x207A8, symBinAddr: 0x100023734, symSize: 0xD4 }
  - { offset: 0x4567F, size: 0x8, addend: 0x0, symName: __ZNSt3__117__compressed_pairIPPN8nlohmann16json_abi_v3_11_210basic_jsonINS_3mapENS_6vectorENS_12basic_stringIcNS_11char_traitsIcEENS_9allocatorIcEEEEbxydS9_NS2_14adl_serializerENS5_IhNS9_IhEEEEEERNS9_ISG_EEEC1B8ne180100IDnSJ_EEOT_OT0_, symObjAddr: 0x2087C, symBinAddr: 0x100023808, symSize: 0x3C }
  - { offset: 0x456D9, size: 0x8, addend: 0x0, symName: __ZNSt3__114__split_bufferIPN8nlohmann16json_abi_v3_11_210basic_jsonINS_3mapENS_6vectorENS_12basic_stringIcNS_11char_traitsIcEENS_9allocatorIcEEEEbxydS9_NS2_14adl_serializerENS5_IhNS9_IhEEEEEERNS9_ISG_EEE7__allocB8ne180100Ev, symObjAddr: 0x208F8, symBinAddr: 0x100023884, symSize: 0x28 }
  - { offset: 0x456FF, size: 0x8, addend: 0x0, symName: __ZNSt3__114__split_bufferIPN8nlohmann16json_abi_v3_11_210basic_jsonINS_3mapENS_6vectorENS_12basic_stringIcNS_11char_traitsIcEENS_9allocatorIcEEEEbxydS9_NS2_14adl_serializerENS5_IhNS9_IhEEEEEERNS9_ISG_EEE9__end_capB8ne180100Ev, symObjAddr: 0x20920, symBinAddr: 0x1000238AC, symSize: 0x28 }
  - { offset: 0x45725, size: 0x8, addend: 0x0, symName: __ZNSt3__117__compressed_pairIPPN8nlohmann16json_abi_v3_11_210basic_jsonINS_3mapENS_6vectorENS_12basic_stringIcNS_11char_traitsIcEENS_9allocatorIcEEEEbxydS9_NS2_14adl_serializerENS5_IhNS9_IhEEEEEERNS9_ISG_EEEC2B8ne180100IDnSJ_EEOT_OT0_, symObjAddr: 0x20948, symBinAddr: 0x1000238D4, symSize: 0x48 }
  - { offset: 0x4577F, size: 0x8, addend: 0x0, symName: __ZNSt3__122__compressed_pair_elemIRNS_9allocatorIPN8nlohmann16json_abi_v3_11_210basic_jsonINS_3mapENS_6vectorENS_12basic_stringIcNS_11char_traitsIcEENS1_IcEEEEbxydS1_NS3_14adl_serializerENS6_IhNS1_IhEEEEEEEELi1ELb0EEC2B8ne180100ISI_vEEOT_, symObjAddr: 0x20990, symBinAddr: 0x10002391C, symSize: 0x20 }
  - { offset: 0x457C2, size: 0x8, addend: 0x0, symName: __ZNSt3__19allocatorIPN8nlohmann16json_abi_v3_11_210basic_jsonINS_3mapENS_6vectorENS_12basic_stringIcNS_11char_traitsIcEENS0_IcEEEEbxydS0_NS2_14adl_serializerENS5_IhNS0_IhEEEEEEE8allocateB8ne180100Em, symObjAddr: 0x209B0, symBinAddr: 0x10002393C, symSize: 0x58 }
  - { offset: 0x457F7, size: 0x8, addend: 0x0, symName: __ZNSt3__117__compressed_pairIPPN8nlohmann16json_abi_v3_11_210basic_jsonINS_3mapENS_6vectorENS_12basic_stringIcNS_11char_traitsIcEENS_9allocatorIcEEEEbxydS9_NS2_14adl_serializerENS5_IhNS9_IhEEEEEERNS9_ISG_EEE6secondB8ne180100Ev, symObjAddr: 0x20A08, symBinAddr: 0x100023994, symSize: 0x28 }
  - { offset: 0x4581D, size: 0x8, addend: 0x0, symName: __ZNSt3__122__compressed_pair_elemIRNS_9allocatorIPN8nlohmann16json_abi_v3_11_210basic_jsonINS_3mapENS_6vectorENS_12basic_stringIcNS_11char_traitsIcEENS1_IcEEEEbxydS1_NS3_14adl_serializerENS6_IhNS1_IhEEEEEEEELi1ELb0EE5__getB8ne180100Ev, symObjAddr: 0x20A30, symBinAddr: 0x1000239BC, symSize: 0x18 }
  - { offset: 0x45843, size: 0x8, addend: 0x0, symName: __ZNSt3__117__compressed_pairIPPN8nlohmann16json_abi_v3_11_210basic_jsonINS_3mapENS_6vectorENS_12basic_stringIcNS_11char_traitsIcEENS_9allocatorIcEEEEbxydS9_NS2_14adl_serializerENS5_IhNS9_IhEEEEEERNS9_ISG_EEE5firstB8ne180100Ev, symObjAddr: 0x20A48, symBinAddr: 0x1000239D4, symSize: 0x24 }
  - { offset: 0x45869, size: 0x8, addend: 0x0, symName: __ZNSt3__116reverse_iteratorIPPN8nlohmann16json_abi_v3_11_210basic_jsonINS_3mapENS_6vectorENS_12basic_stringIcNS_11char_traitsIcEENS_9allocatorIcEEEEbxydS9_NS2_14adl_serializerENS5_IhNS9_IhEEEEEEEC1B8ne180100ESH_, symObjAddr: 0x20AE4, symBinAddr: 0x100023A70, symSize: 0x34 }
  - { offset: 0x458A2, size: 0x8, addend: 0x0, symName: __ZNKSt3__116reverse_iteratorIPPN8nlohmann16json_abi_v3_11_210basic_jsonINS_3mapENS_6vectorENS_12basic_stringIcNS_11char_traitsIcEENS_9allocatorIcEEEEbxydS9_NS2_14adl_serializerENS5_IhNS9_IhEEEEEEE4baseB8ne180100Ev, symObjAddr: 0x20B18, symBinAddr: 0x100023AA4, symSize: 0x18 }
  - { offset: 0x458C8, size: 0x8, addend: 0x0, symName: __ZNKSt3__16vectorIPN8nlohmann16json_abi_v3_11_210basic_jsonINS_3mapES0_NS_12basic_stringIcNS_11char_traitsIcEENS_9allocatorIcEEEEbxydS8_NS2_14adl_serializerENS0_IhNS8_IhEEEEEENS8_ISF_EEE14__annotate_newB8ne180100Em, symObjAddr: 0x20B6C, symBinAddr: 0x100023AF8, symSize: 0x14 }
  - { offset: 0x4591A, size: 0x8, addend: 0x0, symName: __ZNKSt3__111__move_loopINS_17_ClassicAlgPolicyEEclB8ne180100INS_16reverse_iteratorIPPN8nlohmann16json_abi_v3_11_210basic_jsonINS_3mapENS_6vectorENS_12basic_stringIcNS_11char_traitsIcEENS_9allocatorIcEEEEbxydSD_NS6_14adl_serializerENS9_IhNSD_IhEEEEEEEESM_SM_EENS_4pairIT_T1_EESO_T0_SP_, symObjAddr: 0x20E70, symBinAddr: 0x100023DFC, symSize: 0xA0 }
  - { offset: 0x4598E, size: 0x8, addend: 0x0, symName: __ZNSt3__18_IterOpsINS_17_ClassicAlgPolicyEE11__iter_moveB8ne180100IRNS_16reverse_iteratorIPPN8nlohmann16json_abi_v3_11_210basic_jsonINS_3mapENS_6vectorENS_12basic_stringIcNS_11char_traitsIcEENS_9allocatorIcEEEEbxydSD_NS6_14adl_serializerENS9_IhNSD_IhEEEEEEEELi0EEEDTclsr3stdE4movedeclsr3stdE7declvalIRT_EEEEOSO_, symObjAddr: 0x210A4, symBinAddr: 0x100024030, symSize: 0x28 }
  - { offset: 0x459C1, size: 0x8, addend: 0x0, symName: __ZNKSt3__116reverse_iteratorIPPN8nlohmann16json_abi_v3_11_210basic_jsonINS_3mapENS_6vectorENS_12basic_stringIcNS_11char_traitsIcEENS_9allocatorIcEEEEbxydS9_NS2_14adl_serializerENS5_IhNS9_IhEEEEEEEdeB8ne180100Ev, symObjAddr: 0x210CC, symBinAddr: 0x100024058, symSize: 0x28 }
  - { offset: 0x459F6, size: 0x8, addend: 0x0, symName: __ZNSt3__116reverse_iteratorIPPN8nlohmann16json_abi_v3_11_210basic_jsonINS_3mapENS_6vectorENS_12basic_stringIcNS_11char_traitsIcEENS_9allocatorIcEEEEbxydS9_NS2_14adl_serializerENS5_IhNS9_IhEEEEEEEppB8ne180100Ev, symObjAddr: 0x210F4, symBinAddr: 0x100024080, symSize: 0x20 }
  - { offset: 0x45A1C, size: 0x8, addend: 0x0, symName: __ZNSt3__18_IterOpsINS_17_ClassicAlgPolicyEE25__validate_iter_referenceB8ne180100IRNS_16reverse_iteratorIPPN8nlohmann16json_abi_v3_11_210basic_jsonINS_3mapENS_6vectorENS_12basic_stringIcNS_11char_traitsIcEENS_9allocatorIcEEEEbxydSD_NS6_14adl_serializerENS9_IhNSD_IhEEEEEEEEEEvv, symObjAddr: 0x21114, symBinAddr: 0x1000240A0, symSize: 0x4 }
  - { offset: 0x45A3A, size: 0x8, addend: 0x0, symName: __ZNSt3__118__unwrap_iter_implINS_16reverse_iteratorIPPN8nlohmann16json_abi_v3_11_210basic_jsonINS_3mapENS_6vectorENS_12basic_stringIcNS_11char_traitsIcEENS_9allocatorIcEEEEbxydSA_NS3_14adl_serializerENS6_IhNSA_IhEEEEEEEELb0EE8__unwrapB8ne180100ESJ_, symObjAddr: 0x21118, symBinAddr: 0x1000240A4, symSize: 0x24 }
  - { offset: 0x45A64, size: 0x8, addend: 0x0, symName: __ZNSt3__14pairINS_16reverse_iteratorIPPN8nlohmann16json_abi_v3_11_210basic_jsonINS_3mapENS_6vectorENS_12basic_stringIcNS_11char_traitsIcEENS_9allocatorIcEEEEbxydSA_NS3_14adl_serializerENS6_IhNSA_IhEEEEEEEESJ_EC1B8ne180100ISJ_SJ_Li0EEEOT_OT0_, symObjAddr: 0x2113C, symBinAddr: 0x1000240C8, symSize: 0x3C }
  - { offset: 0x45AC4, size: 0x8, addend: 0x0, symName: __ZNSt3__14pairINS_16reverse_iteratorIPPN8nlohmann16json_abi_v3_11_210basic_jsonINS_3mapENS_6vectorENS_12basic_stringIcNS_11char_traitsIcEENS_9allocatorIcEEEEbxydSA_NS3_14adl_serializerENS6_IhNSA_IhEEEEEEEESJ_EC2B8ne180100ISJ_SJ_Li0EEEOT_OT0_, symObjAddr: 0x21178, symBinAddr: 0x100024104, symSize: 0x34 }
  - { offset: 0x45B24, size: 0x8, addend: 0x0, symName: __ZNSt3__118__unwrap_iter_implINS_16reverse_iteratorIPPN8nlohmann16json_abi_v3_11_210basic_jsonINS_3mapENS_6vectorENS_12basic_stringIcNS_11char_traitsIcEENS_9allocatorIcEEEEbxydSA_NS3_14adl_serializerENS6_IhNSA_IhEEEEEEEELb0EE8__rewrapB8ne180100ESJ_SJ_, symObjAddr: 0x211AC, symBinAddr: 0x100024138, symSize: 0x2C }
  - { offset: 0x45B53, size: 0x8, addend: 0x0, symName: __ZNSt3__116reverse_iteratorIPPN8nlohmann16json_abi_v3_11_210basic_jsonINS_3mapENS_6vectorENS_12basic_stringIcNS_11char_traitsIcEENS_9allocatorIcEEEEbxydS9_NS2_14adl_serializerENS5_IhNS9_IhEEEEEEEC2B8ne180100ESH_, symObjAddr: 0x211D8, symBinAddr: 0x100024164, symSize: 0x28 }
  - { offset: 0x45B8C, size: 0x8, addend: 0x0, symName: __ZNSt3__114__split_bufferIPN8nlohmann16json_abi_v3_11_210basic_jsonINS_3mapENS_6vectorENS_12basic_stringIcNS_11char_traitsIcEENS_9allocatorIcEEEEbxydS9_NS2_14adl_serializerENS5_IhNS9_IhEEEEEERNS9_ISG_EEED2Ev, symObjAddr: 0x21200, symBinAddr: 0x10002418C, symSize: 0x8C }
  - { offset: 0x45BB8, size: 0x8, addend: 0x0, symName: __ZNSt3__114__split_bufferIPN8nlohmann16json_abi_v3_11_210basic_jsonINS_3mapENS_6vectorENS_12basic_stringIcNS_11char_traitsIcEENS_9allocatorIcEEEEbxydS9_NS2_14adl_serializerENS5_IhNS9_IhEEEEEERNS9_ISG_EEE5clearB8ne180100Ev, symObjAddr: 0x2128C, symBinAddr: 0x100024218, symSize: 0x28 }
  - { offset: 0x45BDE, size: 0x8, addend: 0x0, symName: __ZNKSt3__114__split_bufferIPN8nlohmann16json_abi_v3_11_210basic_jsonINS_3mapENS_6vectorENS_12basic_stringIcNS_11char_traitsIcEENS_9allocatorIcEEEEbxydS9_NS2_14adl_serializerENS5_IhNS9_IhEEEEEERNS9_ISG_EEE8capacityB8ne180100Ev, symObjAddr: 0x212B4, symBinAddr: 0x100024240, symSize: 0x40 }
  - { offset: 0x45C04, size: 0x8, addend: 0x0, symName: __ZNSt3__114__split_bufferIPN8nlohmann16json_abi_v3_11_210basic_jsonINS_3mapENS_6vectorENS_12basic_stringIcNS_11char_traitsIcEENS_9allocatorIcEEEEbxydS9_NS2_14adl_serializerENS5_IhNS9_IhEEEEEERNS9_ISG_EEE17__destruct_at_endB8ne180100EPSG_, symObjAddr: 0x212F4, symBinAddr: 0x100024280, symSize: 0x2C }
  - { offset: 0x45C39, size: 0x8, addend: 0x0, symName: __ZNSt3__114__split_bufferIPN8nlohmann16json_abi_v3_11_210basic_jsonINS_3mapENS_6vectorENS_12basic_stringIcNS_11char_traitsIcEENS_9allocatorIcEEEEbxydS9_NS2_14adl_serializerENS5_IhNS9_IhEEEEEERNS9_ISG_EEE17__destruct_at_endB8ne180100EPSG_NS_17integral_constantIbLb0EEE, symObjAddr: 0x21320, symBinAddr: 0x1000242AC, symSize: 0x80 }
  - { offset: 0x45C7B, size: 0x8, addend: 0x0, symName: __ZNKSt3__114__split_bufferIPN8nlohmann16json_abi_v3_11_210basic_jsonINS_3mapENS_6vectorENS_12basic_stringIcNS_11char_traitsIcEENS_9allocatorIcEEEEbxydS9_NS2_14adl_serializerENS5_IhNS9_IhEEEEEERNS9_ISG_EEE9__end_capB8ne180100Ev, symObjAddr: 0x213A0, symBinAddr: 0x10002432C, symSize: 0x28 }
  - { offset: 0x45CA1, size: 0x8, addend: 0x0, symName: __ZNKSt3__117__compressed_pairIPPN8nlohmann16json_abi_v3_11_210basic_jsonINS_3mapENS_6vectorENS_12basic_stringIcNS_11char_traitsIcEENS_9allocatorIcEEEEbxydS9_NS2_14adl_serializerENS5_IhNS9_IhEEEEEERNS9_ISG_EEE5firstB8ne180100Ev, symObjAddr: 0x213C8, symBinAddr: 0x100024354, symSize: 0x24 }
  - { offset: 0x45CC7, size: 0x8, addend: 0x0, symName: __ZNKSt3__13mapINS_12basic_stringIcNS_11char_traitsIcEENS_9allocatorIcEEEEN8nlohmann16json_abi_v3_11_210basic_jsonIS0_NS_6vectorES6_bxydS4_NS8_14adl_serializerENSA_IhNS4_IhEEEEEENS_4lessIvEENS4_INS_4pairIKS6_SE_EEEEE8max_sizeB8ne180100Ev, symObjAddr: 0x213EC, symBinAddr: 0x100024378, symSize: 0x24 }
  - { offset: 0x45CED, size: 0x8, addend: 0x0, symName: __ZNKSt3__16__treeINS_12__value_typeINS_12basic_stringIcNS_11char_traitsIcEENS_9allocatorIcEEEEN8nlohmann16json_abi_v3_11_210basic_jsonINS_3mapENS_6vectorES7_bxydS5_NS9_14adl_serializerENSC_IhNS5_IhEEEEEEEENS_19__map_value_compareIS7_SH_NS_4lessIvEELb1EEENS5_ISH_EEE8max_sizeB8ne180100Ev, symObjAddr: 0x21410, symBinAddr: 0x10002439C, symSize: 0x60 }
  - { offset: 0x45D1E, size: 0x8, addend: 0x0, symName: __ZNSt3__116allocator_traitsINS_9allocatorINS_11__tree_nodeINS_12__value_typeINS_12basic_stringIcNS_11char_traitsIcEENS1_IcEEEEN8nlohmann16json_abi_v3_11_210basic_jsonINS_3mapENS_6vectorES8_bxydS1_NSA_14adl_serializerENSD_IhNS1_IhEEEEEEEEPvEEEEE8max_sizeB8ne180100ISL_vEEmRKSL_, symObjAddr: 0x21470, symBinAddr: 0x1000243FC, symSize: 0x24 }
  - { offset: 0x45D4C, size: 0x8, addend: 0x0, symName: __ZNKSt3__16__treeINS_12__value_typeINS_12basic_stringIcNS_11char_traitsIcEENS_9allocatorIcEEEEN8nlohmann16json_abi_v3_11_210basic_jsonINS_3mapENS_6vectorES7_bxydS5_NS9_14adl_serializerENSC_IhNS5_IhEEEEEEEENS_19__map_value_compareIS7_SH_NS_4lessIvEELb1EEENS5_ISH_EEE12__node_allocB8ne180100Ev, symObjAddr: 0x21494, symBinAddr: 0x100024420, symSize: 0x28 }
  - { offset: 0x45D72, size: 0x8, addend: 0x0, symName: __ZNKSt3__19allocatorINS_11__tree_nodeINS_12__value_typeINS_12basic_stringIcNS_11char_traitsIcEENS0_IcEEEEN8nlohmann16json_abi_v3_11_210basic_jsonINS_3mapENS_6vectorES7_bxydS0_NS9_14adl_serializerENSC_IhNS0_IhEEEEEEEEPvEEE8max_sizeB8ne180100Ev, symObjAddr: 0x214BC, symBinAddr: 0x100024448, symSize: 0x20 }
  - { offset: 0x45D98, size: 0x8, addend: 0x0, symName: __ZNKSt3__117__compressed_pairINS_15__tree_end_nodeIPNS_16__tree_node_baseIPvEEEENS_9allocatorINS_11__tree_nodeINS_12__value_typeINS_12basic_stringIcNS_11char_traitsIcEENS7_IcEEEEN8nlohmann16json_abi_v3_11_210basic_jsonINS_3mapENS_6vectorESE_bxydS7_NSG_14adl_serializerENSJ_IhNS7_IhEEEEEEEES3_EEEEE6secondB8ne180100Ev, symObjAddr: 0x214DC, symBinAddr: 0x100024468, symSize: 0x24 }
  - { offset: 0x45DBE, size: 0x8, addend: 0x0, symName: __ZNKSt3__122__compressed_pair_elemINS_9allocatorINS_11__tree_nodeINS_12__value_typeINS_12basic_stringIcNS_11char_traitsIcEENS1_IcEEEEN8nlohmann16json_abi_v3_11_210basic_jsonINS_3mapENS_6vectorES8_bxydS1_NSA_14adl_serializerENSD_IhNS1_IhEEEEEEEEPvEEEELi1ELb1EE5__getB8ne180100Ev, symObjAddr: 0x21500, symBinAddr: 0x10002448C, symSize: 0x14 }
  - { offset: 0x45DE4, size: 0x8, addend: 0x0, symName: __ZN8nlohmann16json_abi_v3_11_26detail12out_of_rangeC1EiPKc, symObjAddr: 0x21514, symBinAddr: 0x1000244A0, symSize: 0x3C }
  - { offset: 0x45E2C, size: 0x8, addend: 0x0, symName: __ZN8nlohmann16json_abi_v3_11_26detail12out_of_rangeC2EiPKc, symObjAddr: 0x21550, symBinAddr: 0x1000244DC, symSize: 0x4C }
  - { offset: 0x45E74, size: 0x8, addend: 0x0, symName: __ZN8nlohmann16json_abi_v3_11_26detail12out_of_rangeD0Ev, symObjAddr: 0x2159C, symBinAddr: 0x100024528, symSize: 0x30 }
  - { offset: 0x45EA1, size: 0x8, addend: 0x0, symName: __ZN8nlohmann16json_abi_v3_11_210basic_jsonINSt3__13mapENS2_6vectorENS2_12basic_stringIcNS2_11char_traitsIcEENS2_9allocatorIcEEEEbxydS8_NS0_14adl_serializerENS4_IhNS8_IhEEEEEC1ERKSE_, symObjAddr: 0x2167C, symBinAddr: 0x100024608, symSize: 0x34 }
  - { offset: 0x45EDA, size: 0x8, addend: 0x0, symName: __ZNSt3__16vectorIPN8nlohmann16json_abi_v3_11_210basic_jsonINS_3mapES0_NS_12basic_stringIcNS_11char_traitsIcEENS_9allocatorIcEEEEbxydS8_NS2_14adl_serializerENS0_IhNS8_IhEEEEEENS8_ISF_EEE8pop_backEv, symObjAddr: 0x216B0, symBinAddr: 0x10002463C, symSize: 0x2C }
  - { offset: 0x45F02, size: 0x8, addend: 0x0, symName: __ZNK8nlohmann16json_abi_v3_11_210basic_jsonINSt3__13mapENS2_6vectorENS2_12basic_stringIcNS2_11char_traitsIcEENS2_9allocatorIcEEEEbxydS8_NS0_14adl_serializerENS4_IhNS8_IhEEEEE13is_structuredEv, symObjAddr: 0x216DC, symBinAddr: 0x100024668, symSize: 0x50 }
  - { offset: 0x45F28, size: 0x8, addend: 0x0, symName: __ZN8nlohmann16json_abi_v3_11_210basic_jsonINSt3__13mapENS2_6vectorENS2_12basic_stringIcNS2_11char_traitsIcEENS2_9allocatorIcEEEEbxydS8_NS0_14adl_serializerENS4_IhNS8_IhEEEEE5beginEv, symObjAddr: 0x2172C, symBinAddr: 0x1000246B8, symSize: 0x40 }
  - { offset: 0x45F5E, size: 0x8, addend: 0x0, symName: __ZNK8nlohmann16json_abi_v3_11_26detail9iter_implINS0_10basic_jsonINSt3__13mapENS4_6vectorENS4_12basic_stringIcNS4_11char_traitsIcEENS4_9allocatorIcEEEEbxydSA_NS0_14adl_serializerENS6_IhNSA_IhEEEEEEEneISH_LDn0EEEbRKT_, symObjAddr: 0x2176C, symBinAddr: 0x1000246F8, symSize: 0x34 }
  - { offset: 0x45FA2, size: 0x8, addend: 0x0, symName: __ZN8nlohmann16json_abi_v3_11_210basic_jsonINSt3__13mapENS2_6vectorENS2_12basic_stringIcNS2_11char_traitsIcEENS2_9allocatorIcEEEEbxydS8_NS0_14adl_serializerENS4_IhNS8_IhEEEEE3endEv, symObjAddr: 0x217A0, symBinAddr: 0x10002472C, symSize: 0x40 }
  - { offset: 0x45FD8, size: 0x8, addend: 0x0, symName: __ZNK8nlohmann16json_abi_v3_11_26detail9iter_implINS0_10basic_jsonINSt3__13mapENS4_6vectorENS4_12basic_stringIcNS4_11char_traitsIcEENS4_9allocatorIcEEEEbxydSA_NS0_14adl_serializerENS6_IhNSA_IhEEEEEEEptEv, symObjAddr: 0x217E0, symBinAddr: 0x10002476C, symSize: 0x270 }
  - { offset: 0x45FFE, size: 0x8, addend: 0x0, symName: __ZN8nlohmann16json_abi_v3_11_210basic_jsonINSt3__13mapENS2_6vectorENS2_12basic_stringIcNS2_11char_traitsIcEENS2_9allocatorIcEEEEbxydS8_NS0_14adl_serializerENS4_IhNS8_IhEEEEE5eraseINS0_6detail9iter_implISE_EELi0EEET_SJ_, symObjAddr: 0x21A78, symBinAddr: 0x100024A04, symSize: 0x430 }
  - { offset: 0x46091, size: 0x8, addend: 0x0, symName: __ZN8nlohmann16json_abi_v3_11_26detail9iter_implINS0_10basic_jsonINSt3__13mapENS4_6vectorENS4_12basic_stringIcNS4_11char_traitsIcEENS4_9allocatorIcEEEEbxydSA_NS0_14adl_serializerENS6_IhNSA_IhEEEEEEEC1ERKSH_, symObjAddr: 0x21ED0, symBinAddr: 0x100024E5C, symSize: 0x34 }
  - { offset: 0x460CA, size: 0x8, addend: 0x0, symName: __ZN8nlohmann16json_abi_v3_11_26detail9iter_implINS0_10basic_jsonINSt3__13mapENS4_6vectorENS4_12basic_stringIcNS4_11char_traitsIcEENS4_9allocatorIcEEEEbxydSA_NS0_14adl_serializerENS6_IhNSA_IhEEEEEEEppEv, symObjAddr: 0x21F04, symBinAddr: 0x100024E90, symSize: 0xE0 }
  - { offset: 0x460F0, size: 0x8, addend: 0x0, symName: __ZN8nlohmann16json_abi_v3_11_210basic_jsonINSt3__13mapENS2_6vectorENS2_12basic_stringIcNS2_11char_traitsIcEENS2_9allocatorIcEEEEbxydS8_NS0_14adl_serializerENS4_IhNS8_IhEEEEEC2ERKSE_, symObjAddr: 0x2200C, symBinAddr: 0x100024F98, symSize: 0x1B8 }
  - { offset: 0x46129, size: 0x8, addend: 0x0, symName: __ZN8nlohmann16json_abi_v3_11_210basic_jsonINSt3__13mapENS2_6vectorENS2_12basic_stringIcNS2_11char_traitsIcEENS2_9allocatorIcEEEEbxydS8_NS0_14adl_serializerENS4_IhNS8_IhEEEEE10json_valueC1ERKNS3_ISA_SE_NS2_4lessIvEENS8_INS2_4pairIKSA_SE_EEEEEE, symObjAddr: 0x221EC, symBinAddr: 0x100025178, symSize: 0x34 }
  - { offset: 0x46162, size: 0x8, addend: 0x0, symName: __ZN8nlohmann16json_abi_v3_11_210basic_jsonINSt3__13mapENS2_6vectorENS2_12basic_stringIcNS2_11char_traitsIcEENS2_9allocatorIcEEEEbxydS8_NS0_14adl_serializerENS4_IhNS8_IhEEEEE10json_valueC1ERKNS4_ISE_NS8_ISE_EEEE, symObjAddr: 0x22220, symBinAddr: 0x1000251AC, symSize: 0x34 }
  - { offset: 0x4619B, size: 0x8, addend: 0x0, symName: __ZN8nlohmann16json_abi_v3_11_210basic_jsonINSt3__13mapENS2_6vectorENS2_12basic_stringIcNS2_11char_traitsIcEENS2_9allocatorIcEEEEbxydS8_NS0_14adl_serializerENS4_IhNS8_IhEEEEE10json_valueC1ERKSA_, symObjAddr: 0x22254, symBinAddr: 0x1000251E0, symSize: 0x34 }
  - { offset: 0x461D4, size: 0x8, addend: 0x0, symName: __ZN8nlohmann16json_abi_v3_11_210basic_jsonINSt3__13mapENS2_6vectorENS2_12basic_stringIcNS2_11char_traitsIcEENS2_9allocatorIcEEEEbxydS8_NS0_14adl_serializerENS4_IhNS8_IhEEEEE10json_valueC1Eb, symObjAddr: 0x22288, symBinAddr: 0x100025214, symSize: 0x40 }
  - { offset: 0x4620D, size: 0x8, addend: 0x0, symName: __ZN8nlohmann16json_abi_v3_11_210basic_jsonINSt3__13mapENS2_6vectorENS2_12basic_stringIcNS2_11char_traitsIcEENS2_9allocatorIcEEEEbxydS8_NS0_14adl_serializerENS4_IhNS8_IhEEEEE10json_valueC1Ex, symObjAddr: 0x222C8, symBinAddr: 0x100025254, symSize: 0x34 }
  - { offset: 0x46246, size: 0x8, addend: 0x0, symName: __ZN8nlohmann16json_abi_v3_11_210basic_jsonINSt3__13mapENS2_6vectorENS2_12basic_stringIcNS2_11char_traitsIcEENS2_9allocatorIcEEEEbxydS8_NS0_14adl_serializerENS4_IhNS8_IhEEEEE10json_valueC1Ey, symObjAddr: 0x222FC, symBinAddr: 0x100025288, symSize: 0x34 }
  - { offset: 0x4627F, size: 0x8, addend: 0x0, symName: __ZN8nlohmann16json_abi_v3_11_210basic_jsonINSt3__13mapENS2_6vectorENS2_12basic_stringIcNS2_11char_traitsIcEENS2_9allocatorIcEEEEbxydS8_NS0_14adl_serializerENS4_IhNS8_IhEEEEE10json_valueC1Ed, symObjAddr: 0x22330, symBinAddr: 0x1000252BC, symSize: 0x34 }
  - { offset: 0x462B8, size: 0x8, addend: 0x0, symName: __ZN8nlohmann16json_abi_v3_11_210basic_jsonINSt3__13mapENS2_6vectorENS2_12basic_stringIcNS2_11char_traitsIcEENS2_9allocatorIcEEEEbxydS8_NS0_14adl_serializerENS4_IhNS8_IhEEEEE10json_valueC1ERKNS0_27byte_container_with_subtypeISD_EE, symObjAddr: 0x22364, symBinAddr: 0x1000252F0, symSize: 0x34 }
  - { offset: 0x462F1, size: 0x8, addend: 0x0, symName: __ZN8nlohmann16json_abi_v3_11_210basic_jsonINSt3__13mapENS2_6vectorENS2_12basic_stringIcNS2_11char_traitsIcEENS2_9allocatorIcEEEEbxydS8_NS0_14adl_serializerENS4_IhNS8_IhEEEEE10json_valueC2ERKNS3_ISA_SE_NS2_4lessIvEENS8_INS2_4pairIKSA_SE_EEEEEE, symObjAddr: 0x22398, symBinAddr: 0x100025324, symSize: 0x3C }
  - { offset: 0x4632A, size: 0x8, addend: 0x0, symName: __ZN8nlohmann16json_abi_v3_11_210basic_jsonINSt3__13mapENS2_6vectorENS2_12basic_stringIcNS2_11char_traitsIcEENS2_9allocatorIcEEEEbxydS8_NS0_14adl_serializerENS4_IhNS8_IhEEEEE6createINS3_ISA_SE_NS2_4lessIvEENS8_INS2_4pairIKSA_SE_EEEEEEJRKSM_EEEPT_DpOT0_, symObjAddr: 0x223D4, symBinAddr: 0x100025360, symSize: 0xF4 }
  - { offset: 0x4642B, size: 0x8, addend: 0x0, symName: __ZNSt3__110unique_ptrINS_3mapINS_12basic_stringIcNS_11char_traitsIcEENS_9allocatorIcEEEEN8nlohmann16json_abi_v3_11_210basic_jsonIS1_NS_6vectorES7_bxydS5_NS9_14adl_serializerENSB_IhNS5_IhEEEEEENS_4lessIvEENS5_INS_4pairIKS7_SF_EEEEEEZNSF_6createISM_JRKSM_EEEPT_DpOT0_EUlPSM_E_EC1B8ne180100ILb1EvEESV_NS_16__dependent_typeINS_27__unique_ptr_deleter_sfinaeISW_EEXT_EE15__lval_ref_typeE, symObjAddr: 0x224C8, symBinAddr: 0x100025454, symSize: 0x3C }
  - { offset: 0x4647E, size: 0x8, addend: 0x0, symName: __ZNSt3__116allocator_traitsINS_9allocatorINS_3mapINS_12basic_stringIcNS_11char_traitsIcEENS1_IcEEEEN8nlohmann16json_abi_v3_11_210basic_jsonIS2_NS_6vectorES7_bxydS1_NS9_14adl_serializerENSB_IhNS1_IhEEEEEENS_4lessIvEENS1_INS_4pairIKS7_SF_EEEEEEEEE9constructB8ne180100ISM_JRKSM_EvEEvRSN_PT_DpOT0_, symObjAddr: 0x22504, symBinAddr: 0x100025490, symSize: 0x34 }
  - { offset: 0x464D5, size: 0x8, addend: 0x0, symName: __ZNKSt3__110unique_ptrINS_3mapINS_12basic_stringIcNS_11char_traitsIcEENS_9allocatorIcEEEEN8nlohmann16json_abi_v3_11_210basic_jsonIS1_NS_6vectorES7_bxydS5_NS9_14adl_serializerENSB_IhNS5_IhEEEEEENS_4lessIvEENS5_INS_4pairIKS7_SF_EEEEEEZNSF_6createISM_JRKSM_EEEPT_DpOT0_EUlPSM_E_E3getB8ne180100Ev, symObjAddr: 0x22538, symBinAddr: 0x1000254C4, symSize: 0x28 }
  - { offset: 0x464FB, size: 0x8, addend: 0x0, symName: __ZNSt3__110unique_ptrINS_3mapINS_12basic_stringIcNS_11char_traitsIcEENS_9allocatorIcEEEEN8nlohmann16json_abi_v3_11_210basic_jsonIS1_NS_6vectorES7_bxydS5_NS9_14adl_serializerENSB_IhNS5_IhEEEEEENS_4lessIvEENS5_INS_4pairIKS7_SF_EEEEEEZNSF_6createISM_JRKSM_EEEPT_DpOT0_EUlPSM_E_E7releaseB8ne180100Ev, symObjAddr: 0x2258C, symBinAddr: 0x100025518, symSize: 0x44 }
  - { offset: 0x46530, size: 0x8, addend: 0x0, symName: __ZNSt3__110unique_ptrINS_3mapINS_12basic_stringIcNS_11char_traitsIcEENS_9allocatorIcEEEEN8nlohmann16json_abi_v3_11_210basic_jsonIS1_NS_6vectorES7_bxydS5_NS9_14adl_serializerENSB_IhNS5_IhEEEEEENS_4lessIvEENS5_INS_4pairIKS7_SF_EEEEEEZNSF_6createISM_JRKSM_EEEPT_DpOT0_EUlPSM_E_ED1B8ne180100Ev, symObjAddr: 0x225D0, symBinAddr: 0x10002555C, symSize: 0x2C }
  - { offset: 0x4655A, size: 0x8, addend: 0x0, symName: __ZNSt3__110unique_ptrINS_3mapINS_12basic_stringIcNS_11char_traitsIcEENS_9allocatorIcEEEEN8nlohmann16json_abi_v3_11_210basic_jsonIS1_NS_6vectorES7_bxydS5_NS9_14adl_serializerENSB_IhNS5_IhEEEEEENS_4lessIvEENS5_INS_4pairIKS7_SF_EEEEEEZNSF_6createISM_JRKSM_EEEPT_DpOT0_EUlPSM_E_EC2B8ne180100ILb1EvEESV_NS_16__dependent_typeINS_27__unique_ptr_deleter_sfinaeISW_EEXT_EE15__lval_ref_typeE, symObjAddr: 0x225FC, symBinAddr: 0x100025588, symSize: 0x48 }
  - { offset: 0x465AD, size: 0x8, addend: 0x0, symName: __ZNSt3__117__compressed_pairIPNS_3mapINS_12basic_stringIcNS_11char_traitsIcEENS_9allocatorIcEEEEN8nlohmann16json_abi_v3_11_210basic_jsonIS1_NS_6vectorES7_bxydS5_NS9_14adl_serializerENSB_IhNS5_IhEEEEEENS_4lessIvEENS5_INS_4pairIKS7_SF_EEEEEEZNSF_6createISM_JRKSM_EEEPT_DpOT0_EUlSN_E_EC1B8ne180100IRSN_RKSW_EEOSR_OT0_, symObjAddr: 0x22644, symBinAddr: 0x1000255D0, symSize: 0x3C }
  - { offset: 0x46607, size: 0x8, addend: 0x0, symName: __ZNSt3__117__compressed_pairIPNS_3mapINS_12basic_stringIcNS_11char_traitsIcEENS_9allocatorIcEEEEN8nlohmann16json_abi_v3_11_210basic_jsonIS1_NS_6vectorES7_bxydS5_NS9_14adl_serializerENSB_IhNS5_IhEEEEEENS_4lessIvEENS5_INS_4pairIKS7_SF_EEEEEEZNSF_6createISM_JRKSM_EEEPT_DpOT0_EUlSN_E_EC2B8ne180100IRSN_RKSW_EEOSR_OT0_, symObjAddr: 0x22680, symBinAddr: 0x10002560C, symSize: 0x48 }
  - { offset: 0x46661, size: 0x8, addend: 0x0, symName: __ZNSt3__122__compressed_pair_elemIZN8nlohmann16json_abi_v3_11_210basic_jsonINS_3mapENS_6vectorENS_12basic_stringIcNS_11char_traitsIcEENS_9allocatorIcEEEEbxydS9_NS2_14adl_serializerENS5_IhNS9_IhEEEEE6createINS4_ISB_SF_NS_4lessIvEENS9_INS_4pairIKSB_SF_EEEEEEJRKSN_EEEPT_DpOT0_EUlPSN_E_Li1ELb0EEC2B8ne180100IRKSW_vEEOSQ_, symObjAddr: 0x226C8, symBinAddr: 0x100025654, symSize: 0x24 }
  - { offset: 0x466A4, size: 0x8, addend: 0x0, symName: __ZNSt3__19allocatorINS_3mapINS_12basic_stringIcNS_11char_traitsIcEENS0_IcEEEEN8nlohmann16json_abi_v3_11_210basic_jsonIS1_NS_6vectorES6_bxydS0_NS8_14adl_serializerENSA_IhNS0_IhEEEEEENS_4lessIvEENS0_INS_4pairIKS6_SE_EEEEEEE9constructB8ne180100ISL_JRKSL_EEEvPT_DpOT0_, symObjAddr: 0x226EC, symBinAddr: 0x100025678, symSize: 0x30 }
  - { offset: 0x466FC, size: 0x8, addend: 0x0, symName: __ZNSt3__13mapINS_12basic_stringIcNS_11char_traitsIcEENS_9allocatorIcEEEEN8nlohmann16json_abi_v3_11_210basic_jsonIS0_NS_6vectorES6_bxydS4_NS8_14adl_serializerENSA_IhNS4_IhEEEEEENS_4lessIvEENS4_INS_4pairIKS6_SE_EEEEEC1B8ne180100ERKSL_, symObjAddr: 0x2271C, symBinAddr: 0x1000256A8, symSize: 0x34 }
  - { offset: 0x46735, size: 0x8, addend: 0x0, symName: __ZNSt3__13mapINS_12basic_stringIcNS_11char_traitsIcEENS_9allocatorIcEEEEN8nlohmann16json_abi_v3_11_210basic_jsonIS0_NS_6vectorES6_bxydS4_NS8_14adl_serializerENSA_IhNS4_IhEEEEEENS_4lessIvEENS4_INS_4pairIKS6_SE_EEEEEC2B8ne180100ERKSL_, symObjAddr: 0x22750, symBinAddr: 0x1000256DC, symSize: 0x88 }
  - { offset: 0x4676E, size: 0x8, addend: 0x0, symName: __ZNSt3__16__treeINS_12__value_typeINS_12basic_stringIcNS_11char_traitsIcEENS_9allocatorIcEEEEN8nlohmann16json_abi_v3_11_210basic_jsonINS_3mapENS_6vectorES7_bxydS5_NS9_14adl_serializerENSC_IhNS5_IhEEEEEEEENS_19__map_value_compareIS7_SH_NS_4lessIvEELb1EEENS5_ISH_EEEC1ERKSN_, symObjAddr: 0x227D8, symBinAddr: 0x100025764, symSize: 0x34 }
  - { offset: 0x467A9, size: 0x8, addend: 0x0, symName: __ZNSt3__13mapINS_12basic_stringIcNS_11char_traitsIcEENS_9allocatorIcEEEEN8nlohmann16json_abi_v3_11_210basic_jsonIS0_NS_6vectorES6_bxydS4_NS8_14adl_serializerENSA_IhNS4_IhEEEEEENS_4lessIvEENS4_INS_4pairIKS6_SE_EEEEE6insertB8ne180100INS_20__map_const_iteratorINS_21__tree_const_iteratorINS_12__value_typeIS6_SE_EEPNS_11__tree_nodeISQ_PvEElEEEEEEvT_SX_, symObjAddr: 0x2280C, symBinAddr: 0x100025798, symSize: 0x8C }
  - { offset: 0x46814, size: 0x8, addend: 0x0, symName: __ZNKSt3__13mapINS_12basic_stringIcNS_11char_traitsIcEENS_9allocatorIcEEEEN8nlohmann16json_abi_v3_11_210basic_jsonIS0_NS_6vectorES6_bxydS4_NS8_14adl_serializerENSA_IhNS4_IhEEEEEENS_4lessIvEENS4_INS_4pairIKS6_SE_EEEEE5beginB8ne180100Ev, symObjAddr: 0x22898, symBinAddr: 0x100025824, symSize: 0x38 }
  - { offset: 0x4683A, size: 0x8, addend: 0x0, symName: __ZNKSt3__13mapINS_12basic_stringIcNS_11char_traitsIcEENS_9allocatorIcEEEEN8nlohmann16json_abi_v3_11_210basic_jsonIS0_NS_6vectorES6_bxydS4_NS8_14adl_serializerENSA_IhNS4_IhEEEEEENS_4lessIvEENS4_INS_4pairIKS6_SE_EEEEE3endB8ne180100Ev, symObjAddr: 0x228D0, symBinAddr: 0x10002585C, symSize: 0x38 }
  - { offset: 0x46860, size: 0x8, addend: 0x0, symName: __ZNSt3__16__treeINS_12__value_typeINS_12basic_stringIcNS_11char_traitsIcEENS_9allocatorIcEEEEN8nlohmann16json_abi_v3_11_210basic_jsonINS_3mapENS_6vectorES7_bxydS5_NS9_14adl_serializerENSC_IhNS5_IhEEEEEEEENS_19__map_value_compareIS7_SH_NS_4lessIvEELb1EEENS5_ISH_EEEC2ERKSN_, symObjAddr: 0x22908, symBinAddr: 0x100025894, symSize: 0x9C }
  - { offset: 0x4689B, size: 0x8, addend: 0x0, symName: __ZNSt3__116allocator_traitsINS_9allocatorINS_11__tree_nodeINS_12__value_typeINS_12basic_stringIcNS_11char_traitsIcEENS1_IcEEEEN8nlohmann16json_abi_v3_11_210basic_jsonINS_3mapENS_6vectorES8_bxydS1_NSA_14adl_serializerENSD_IhNS1_IhEEEEEEEEPvEEEEE37select_on_container_copy_constructionB8ne180100ISL_vvEESL_RKSL_, symObjAddr: 0x229A4, symBinAddr: 0x100025930, symSize: 0x10 }
  - { offset: 0x468D0, size: 0x8, addend: 0x0, symName: __ZNSt3__117__compressed_pairINS_15__tree_end_nodeIPNS_16__tree_node_baseIPvEEEENS_9allocatorINS_11__tree_nodeINS_12__value_typeINS_12basic_stringIcNS_11char_traitsIcEENS7_IcEEEEN8nlohmann16json_abi_v3_11_210basic_jsonINS_3mapENS_6vectorESE_bxydS7_NSG_14adl_serializerENSJ_IhNS7_IhEEEEEEEES3_EEEEEC1B8ne180100INS_18__default_init_tagESQ_EEOT_OT0_, symObjAddr: 0x229B4, symBinAddr: 0x100025940, symSize: 0x3C }
  - { offset: 0x4692A, size: 0x8, addend: 0x0, symName: __ZNKSt3__16__treeINS_12__value_typeINS_12basic_stringIcNS_11char_traitsIcEENS_9allocatorIcEEEEN8nlohmann16json_abi_v3_11_210basic_jsonINS_3mapENS_6vectorES7_bxydS5_NS9_14adl_serializerENSC_IhNS5_IhEEEEEEEENS_19__map_value_compareIS7_SH_NS_4lessIvEELb1EEENS5_ISH_EEE10value_compB8ne180100Ev, symObjAddr: 0x229F0, symBinAddr: 0x10002597C, symSize: 0x28 }
  - { offset: 0x46950, size: 0x8, addend: 0x0, symName: __ZNSt3__117__compressed_pairINS_15__tree_end_nodeIPNS_16__tree_node_baseIPvEEEENS_9allocatorINS_11__tree_nodeINS_12__value_typeINS_12basic_stringIcNS_11char_traitsIcEENS7_IcEEEEN8nlohmann16json_abi_v3_11_210basic_jsonINS_3mapENS_6vectorESE_bxydS7_NSG_14adl_serializerENSJ_IhNS7_IhEEEEEEEES3_EEEEEC2B8ne180100INS_18__default_init_tagESQ_EEOT_OT0_, symObjAddr: 0x22A18, symBinAddr: 0x1000259A4, symSize: 0x40 }
  - { offset: 0x469AA, size: 0x8, addend: 0x0, symName: __ZNSt3__122__compressed_pair_elemINS_15__tree_end_nodeIPNS_16__tree_node_baseIPvEEEELi0ELb0EEC2B8ne180100ENS_18__default_init_tagE, symObjAddr: 0x22A58, symBinAddr: 0x1000259E4, symSize: 0x2C }
  - { offset: 0x469DF, size: 0x8, addend: 0x0, symName: __ZNSt3__122__compressed_pair_elemINS_9allocatorINS_11__tree_nodeINS_12__value_typeINS_12basic_stringIcNS_11char_traitsIcEENS1_IcEEEEN8nlohmann16json_abi_v3_11_210basic_jsonINS_3mapENS_6vectorES8_bxydS1_NSA_14adl_serializerENSD_IhNS1_IhEEEEEEEEPvEEEELi1ELb1EEC2B8ne180100ISL_vEEOT_, symObjAddr: 0x22A84, symBinAddr: 0x100025A10, symSize: 0x18 }
  - { offset: 0x46A22, size: 0x8, addend: 0x0, symName: __ZNKSt3__117__compressed_pairImNS_19__map_value_compareINS_12basic_stringIcNS_11char_traitsIcEENS_9allocatorIcEEEENS_12__value_typeIS7_N8nlohmann16json_abi_v3_11_210basic_jsonINS_3mapENS_6vectorES7_bxydS5_NSA_14adl_serializerENSD_IhNS5_IhEEEEEEEENS_4lessIvEELb1EEEE6secondB8ne180100Ev, symObjAddr: 0x22A9C, symBinAddr: 0x100025A28, symSize: 0x24 }
  - { offset: 0x46A48, size: 0x8, addend: 0x0, symName: __ZNKSt3__122__compressed_pair_elemINS_19__map_value_compareINS_12basic_stringIcNS_11char_traitsIcEENS_9allocatorIcEEEENS_12__value_typeIS7_N8nlohmann16json_abi_v3_11_210basic_jsonINS_3mapENS_6vectorES7_bxydS5_NSA_14adl_serializerENSD_IhNS5_IhEEEEEEEENS_4lessIvEELb1EEELi1ELb1EE5__getB8ne180100Ev, symObjAddr: 0x22AC0, symBinAddr: 0x100025A4C, symSize: 0x14 }
  - { offset: 0x46A6E, size: 0x8, addend: 0x0, symName: __ZNKSt3__13mapINS_12basic_stringIcNS_11char_traitsIcEENS_9allocatorIcEEEEN8nlohmann16json_abi_v3_11_210basic_jsonIS0_NS_6vectorES6_bxydS4_NS8_14adl_serializerENSA_IhNS4_IhEEEEEENS_4lessIvEENS4_INS_4pairIKS6_SE_EEEEE4cendB8ne180100Ev, symObjAddr: 0x22AD4, symBinAddr: 0x100025A60, symSize: 0x2C }
  - { offset: 0x46A94, size: 0x8, addend: 0x0, symName: __ZNSt3__13mapINS_12basic_stringIcNS_11char_traitsIcEENS_9allocatorIcEEEEN8nlohmann16json_abi_v3_11_210basic_jsonIS0_NS_6vectorES6_bxydS4_NS8_14adl_serializerENSA_IhNS4_IhEEEEEENS_4lessIvEENS4_INS_4pairIKS6_SE_EEEEE6insertB8ne180100ENS_20__map_const_iteratorINS_21__tree_const_iteratorINS_12__value_typeIS6_SE_EEPNS_11__tree_nodeISP_PvEElEEEERKSJ_, symObjAddr: 0x22B30, symBinAddr: 0x100025ABC, symSize: 0x50 }
  - { offset: 0x46AD8, size: 0x8, addend: 0x0, symName: __ZNSt3__120__map_const_iteratorINS_21__tree_const_iteratorINS_12__value_typeINS_12basic_stringIcNS_11char_traitsIcEENS_9allocatorIcEEEEN8nlohmann16json_abi_v3_11_210basic_jsonINS_3mapENS_6vectorES8_bxydS6_NSA_14adl_serializerENSD_IhNS6_IhEEEEEEEEPNS_11__tree_nodeISI_PvEElEEEC1B8ne180100ESN_, symObjAddr: 0x22B80, symBinAddr: 0x100025B0C, symSize: 0x34 }
  - { offset: 0x46B11, size: 0x8, addend: 0x0, symName: __ZNKSt3__120__map_const_iteratorINS_21__tree_const_iteratorINS_12__value_typeINS_12basic_stringIcNS_11char_traitsIcEENS_9allocatorIcEEEEN8nlohmann16json_abi_v3_11_210basic_jsonINS_3mapENS_6vectorES8_bxydS6_NSA_14adl_serializerENSD_IhNS6_IhEEEEEEEEPNS_11__tree_nodeISI_PvEElEEEdeB8ne180100Ev, symObjAddr: 0x22BB4, symBinAddr: 0x100025B40, symSize: 0x28 }
  - { offset: 0x46B37, size: 0x8, addend: 0x0, symName: __ZNSt3__120__map_const_iteratorINS_21__tree_const_iteratorINS_12__value_typeINS_12basic_stringIcNS_11char_traitsIcEENS_9allocatorIcEEEEN8nlohmann16json_abi_v3_11_210basic_jsonINS_3mapENS_6vectorES8_bxydS6_NSA_14adl_serializerENSD_IhNS6_IhEEEEEEEEPNS_11__tree_nodeISI_PvEElEEEppB8ne180100Ev, symObjAddr: 0x22BDC, symBinAddr: 0x100025B68, symSize: 0x2C }
  - { offset: 0x46B5D, size: 0x8, addend: 0x0, symName: __ZNSt3__16__treeINS_12__value_typeINS_12basic_stringIcNS_11char_traitsIcEENS_9allocatorIcEEEEN8nlohmann16json_abi_v3_11_210basic_jsonINS_3mapENS_6vectorES7_bxydS5_NS9_14adl_serializerENSC_IhNS5_IhEEEEEEEENS_19__map_value_compareIS7_SH_NS_4lessIvEELb1EEENS5_ISH_EEE15__insert_uniqueB8ne180100ENS_21__tree_const_iteratorISH_PNS_11__tree_nodeISH_PvEElEERKNS_4pairIKS7_SG_EE, symObjAddr: 0x22C6C, symBinAddr: 0x100025BF8, symSize: 0x64 }
  - { offset: 0x46BA1, size: 0x8, addend: 0x0, symName: __ZNSt3__16__treeINS_12__value_typeINS_12basic_stringIcNS_11char_traitsIcEENS_9allocatorIcEEEEN8nlohmann16json_abi_v3_11_210basic_jsonINS_3mapENS_6vectorES7_bxydS5_NS9_14adl_serializerENSC_IhNS5_IhEEEEEEEENS_19__map_value_compareIS7_SH_NS_4lessIvEELb1EEENS5_ISH_EEE30__emplace_hint_unique_key_argsIS7_JRKNS_4pairIKS7_SG_EEEEENSP_INS_15__tree_iteratorISH_PNS_11__tree_nodeISH_PvEElEEbEENS_21__tree_const_iteratorISH_SY_lEERKT_DpOT0_, symObjAddr: 0x22CD0, symBinAddr: 0x100025C5C, symSize: 0x104 }
  - { offset: 0x46C6E, size: 0x8, addend: 0x0, symName: __ZNSt3__122__tree_key_value_typesINS_12__value_typeINS_12basic_stringIcNS_11char_traitsIcEENS_9allocatorIcEEEEN8nlohmann16json_abi_v3_11_210basic_jsonINS_3mapENS_6vectorES7_bxydS5_NS9_14adl_serializerENSC_IhNS5_IhEEEEEEEEE9__get_keyB8ne180100IKNS_4pairIKS7_SG_EELi0EEERSL_RT_, symObjAddr: 0x22DD4, symBinAddr: 0x100025D60, symSize: 0x14 }
  - { offset: 0x46CA1, size: 0x8, addend: 0x0, symName: __ZNSt3__16__treeINS_12__value_typeINS_12basic_stringIcNS_11char_traitsIcEENS_9allocatorIcEEEEN8nlohmann16json_abi_v3_11_210basic_jsonINS_3mapENS_6vectorES7_bxydS5_NS9_14adl_serializerENSC_IhNS5_IhEEEEEEEENS_19__map_value_compareIS7_SH_NS_4lessIvEELb1EEENS5_ISH_EEE12__find_equalIS7_EERPNS_16__tree_node_baseIPvEENS_21__tree_const_iteratorISH_PNS_11__tree_nodeISH_SQ_EElEERPNS_15__tree_end_nodeISS_EEST_RKT_, symObjAddr: 0x22DE8, symBinAddr: 0x100025D74, symSize: 0x304 }
  - { offset: 0x46D4C, size: 0x8, addend: 0x0, symName: __ZNSt3__16__treeINS_12__value_typeINS_12basic_stringIcNS_11char_traitsIcEENS_9allocatorIcEEEEN8nlohmann16json_abi_v3_11_210basic_jsonINS_3mapENS_6vectorES7_bxydS5_NS9_14adl_serializerENSC_IhNS5_IhEEEEEEEENS_19__map_value_compareIS7_SH_NS_4lessIvEELb1EEENS5_ISH_EEE16__construct_nodeIJRKNS_4pairIKS7_SG_EEEEENS_10unique_ptrINS_11__tree_nodeISH_PvEENS_22__tree_node_destructorINS5_ISX_EEEEEEDpOT_, symObjAddr: 0x230EC, symBinAddr: 0x100026078, symSize: 0x108 }
  - { offset: 0x46DAD, size: 0x8, addend: 0x0, symName: __ZNSt3__16__treeINS_12__value_typeINS_12basic_stringIcNS_11char_traitsIcEENS_9allocatorIcEEEEN8nlohmann16json_abi_v3_11_210basic_jsonINS_3mapENS_6vectorES7_bxydS5_NS9_14adl_serializerENSC_IhNS5_IhEEEEEEEENS_19__map_value_compareIS7_SH_NS_4lessIvEELb1EEENS5_ISH_EEE16__insert_node_atEPNS_15__tree_end_nodeIPNS_16__tree_node_baseIPvEEEERSS_SS_, symObjAddr: 0x231F4, symBinAddr: 0x100026180, symSize: 0xCC }
  - { offset: 0x46E02, size: 0x8, addend: 0x0, symName: __ZNKSt3__110unique_ptrINS_11__tree_nodeINS_12__value_typeINS_12basic_stringIcNS_11char_traitsIcEENS_9allocatorIcEEEEN8nlohmann16json_abi_v3_11_210basic_jsonINS_3mapENS_6vectorES8_bxydS6_NSA_14adl_serializerENSD_IhNS6_IhEEEEEEEEPvEENS_22__tree_node_destructorINS6_ISK_EEEEE3getB8ne180100Ev, symObjAddr: 0x232C0, symBinAddr: 0x10002624C, symSize: 0x28 }
  - { offset: 0x46E28, size: 0x8, addend: 0x0, symName: __ZNSt3__110unique_ptrINS_11__tree_nodeINS_12__value_typeINS_12basic_stringIcNS_11char_traitsIcEENS_9allocatorIcEEEEN8nlohmann16json_abi_v3_11_210basic_jsonINS_3mapENS_6vectorES8_bxydS6_NSA_14adl_serializerENSD_IhNS6_IhEEEEEEEEPvEENS_22__tree_node_destructorINS6_ISK_EEEEE7releaseB8ne180100Ev, symObjAddr: 0x232E8, symBinAddr: 0x100026274, symSize: 0x44 }
  - { offset: 0x46E5D, size: 0x8, addend: 0x0, symName: __ZNSt3__110unique_ptrINS_11__tree_nodeINS_12__value_typeINS_12basic_stringIcNS_11char_traitsIcEENS_9allocatorIcEEEEN8nlohmann16json_abi_v3_11_210basic_jsonINS_3mapENS_6vectorES8_bxydS6_NSA_14adl_serializerENSD_IhNS6_IhEEEEEEEEPvEENS_22__tree_node_destructorINS6_ISK_EEEEED1B8ne180100Ev, symObjAddr: 0x2332C, symBinAddr: 0x1000262B8, symSize: 0x2C }
  - { offset: 0x46E87, size: 0x8, addend: 0x0, symName: __ZNSt3__115__tree_iteratorINS_12__value_typeINS_12basic_stringIcNS_11char_traitsIcEENS_9allocatorIcEEEEN8nlohmann16json_abi_v3_11_210basic_jsonINS_3mapENS_6vectorES7_bxydS5_NS9_14adl_serializerENSC_IhNS5_IhEEEEEEEEPNS_11__tree_nodeISH_PvEElEC1B8ne180100ESL_, symObjAddr: 0x23358, symBinAddr: 0x1000262E4, symSize: 0x34 }
  - { offset: 0x46EC6, size: 0x8, addend: 0x0, symName: __ZNSt3__14pairINS_15__tree_iteratorINS_12__value_typeINS_12basic_stringIcNS_11char_traitsIcEENS_9allocatorIcEEEEN8nlohmann16json_abi_v3_11_210basic_jsonINS_3mapENS_6vectorES8_bxydS6_NSA_14adl_serializerENSD_IhNS6_IhEEEEEEEEPNS_11__tree_nodeISI_PvEElEEbEC1B8ne180100ISN_RbLi0EEEOT_OT0_, symObjAddr: 0x2338C, symBinAddr: 0x100026318, symSize: 0x3C }
  - { offset: 0x46F26, size: 0x8, addend: 0x0, symName: __ZNSt3__121__tree_const_iteratorINS_12__value_typeINS_12basic_stringIcNS_11char_traitsIcEENS_9allocatorIcEEEEN8nlohmann16json_abi_v3_11_210basic_jsonINS_3mapENS_6vectorES7_bxydS5_NS9_14adl_serializerENSC_IhNS5_IhEEEEEEEEPNS_11__tree_nodeISH_PvEElEC1B8ne180100ENS_15__tree_iteratorISH_SL_lEE, symObjAddr: 0x233C8, symBinAddr: 0x100026354, symSize: 0x34 }
  - { offset: 0x46F5F, size: 0x8, addend: 0x0, symName: __ZNSt3__16__treeINS_12__value_typeINS_12basic_stringIcNS_11char_traitsIcEENS_9allocatorIcEEEEN8nlohmann16json_abi_v3_11_210basic_jsonINS_3mapENS_6vectorES7_bxydS5_NS9_14adl_serializerENSC_IhNS5_IhEEEEEEEENS_19__map_value_compareIS7_SH_NS_4lessIvEELb1EEENS5_ISH_EEE10value_compB8ne180100Ev, symObjAddr: 0x233FC, symBinAddr: 0x100026388, symSize: 0x28 }
  - { offset: 0x46F85, size: 0x8, addend: 0x0, symName: __ZNKSt3__119__map_value_compareINS_12basic_stringIcNS_11char_traitsIcEENS_9allocatorIcEEEENS_12__value_typeIS6_N8nlohmann16json_abi_v3_11_210basic_jsonINS_3mapENS_6vectorES6_bxydS4_NS9_14adl_serializerENSC_IhNS4_IhEEEEEEEENS_4lessIvEELb1EEclB8ne180100ERKS6_RKSH_, symObjAddr: 0x23424, symBinAddr: 0x1000263B0, symSize: 0x50 }
  - { offset: 0x46FC9, size: 0x8, addend: 0x0, symName: __ZNKSt3__121__tree_const_iteratorINS_12__value_typeINS_12basic_stringIcNS_11char_traitsIcEENS_9allocatorIcEEEEN8nlohmann16json_abi_v3_11_210basic_jsonINS_3mapENS_6vectorES7_bxydS5_NS9_14adl_serializerENSC_IhNS5_IhEEEEEEEEPNS_11__tree_nodeISH_PvEElEdeB8ne180100Ev, symObjAddr: 0x23474, symBinAddr: 0x100026400, symSize: 0x28 }
  - { offset: 0x46FEF, size: 0x8, addend: 0x0, symName: __ZNKSt3__119__map_value_compareINS_12basic_stringIcNS_11char_traitsIcEENS_9allocatorIcEEEENS_12__value_typeIS6_N8nlohmann16json_abi_v3_11_210basic_jsonINS_3mapENS_6vectorES6_bxydS4_NS9_14adl_serializerENSC_IhNS4_IhEEEEEEEENS_4lessIvEELb1EEclB8ne180100ERKSH_RKS6_, symObjAddr: 0x2349C, symBinAddr: 0x100026428, symSize: 0x48 }
  - { offset: 0x47033, size: 0x8, addend: 0x0, symName: __ZNSt3__121__tree_const_iteratorINS_12__value_typeINS_12basic_stringIcNS_11char_traitsIcEENS_9allocatorIcEEEEN8nlohmann16json_abi_v3_11_210basic_jsonINS_3mapENS_6vectorES7_bxydS5_NS9_14adl_serializerENSC_IhNS5_IhEEEEEEEEPNS_11__tree_nodeISH_PvEElEmmB8ne180100Ev, symObjAddr: 0x234E4, symBinAddr: 0x100026470, symSize: 0x38 }
  - { offset: 0x47059, size: 0x8, addend: 0x0, symName: __ZNSt3__16__treeINS_12__value_typeINS_12basic_stringIcNS_11char_traitsIcEENS_9allocatorIcEEEEN8nlohmann16json_abi_v3_11_210basic_jsonINS_3mapENS_6vectorES7_bxydS5_NS9_14adl_serializerENSC_IhNS5_IhEEEEEEEENS_19__map_value_compareIS7_SH_NS_4lessIvEELb1EEENS5_ISH_EEE12__find_equalIS7_EERPNS_16__tree_node_baseIPvEERPNS_15__tree_end_nodeISS_EERKT_, symObjAddr: 0x2351C, symBinAddr: 0x1000264A8, symSize: 0x184 }
  - { offset: 0x470C6, size: 0x8, addend: 0x0, symName: __ZNKSt3__121__tree_const_iteratorINS_12__value_typeINS_12basic_stringIcNS_11char_traitsIcEENS_9allocatorIcEEEEN8nlohmann16json_abi_v3_11_210basic_jsonINS_3mapENS_6vectorES7_bxydS5_NS9_14adl_serializerENSC_IhNS5_IhEEEEEEEEPNS_11__tree_nodeISH_PvEElE8__get_npB8ne180100Ev, symObjAddr: 0x236DC, symBinAddr: 0x100026668, symSize: 0x18 }
  - { offset: 0x470EC, size: 0x8, addend: 0x0, symName: __ZNSt3__121__tree_const_iteratorINS_12__value_typeINS_12basic_stringIcNS_11char_traitsIcEENS_9allocatorIcEEEEN8nlohmann16json_abi_v3_11_210basic_jsonINS_3mapENS_6vectorES7_bxydS5_NS9_14adl_serializerENSC_IhNS5_IhEEEEEEEEPNS_11__tree_nodeISH_PvEElEC2B8ne180100ENS_15__tree_iteratorISH_SL_lEE, symObjAddr: 0x236F4, symBinAddr: 0x100026680, symSize: 0x20 }
  - { offset: 0x47125, size: 0x8, addend: 0x0, symName: __ZNSt3__117__compressed_pairImNS_19__map_value_compareINS_12basic_stringIcNS_11char_traitsIcEENS_9allocatorIcEEEENS_12__value_typeIS7_N8nlohmann16json_abi_v3_11_210basic_jsonINS_3mapENS_6vectorES7_bxydS5_NSA_14adl_serializerENSD_IhNS5_IhEEEEEEEENS_4lessIvEELb1EEEE6secondB8ne180100Ev, symObjAddr: 0x23714, symBinAddr: 0x1000266A0, symSize: 0x24 }
  - { offset: 0x4714B, size: 0x8, addend: 0x0, symName: __ZNSt3__122__compressed_pair_elemINS_19__map_value_compareINS_12basic_stringIcNS_11char_traitsIcEENS_9allocatorIcEEEENS_12__value_typeIS7_N8nlohmann16json_abi_v3_11_210basic_jsonINS_3mapENS_6vectorES7_bxydS5_NSA_14adl_serializerENSD_IhNS5_IhEEEEEEEENS_4lessIvEELb1EEELi1ELb1EE5__getB8ne180100Ev, symObjAddr: 0x23738, symBinAddr: 0x1000266C4, symSize: 0x14 }
  - { offset: 0x47177, size: 0x8, addend: 0x0, symName: __ZNKSt3__14lessIvEclB8ne180100IRKNS_12basic_stringIcNS_11char_traitsIcEENS_9allocatorIcEEEESA_EEDTltclsr3stdE7forwardIT_Efp_Eclsr3stdE7forwardIT0_Efp0_EEOSB_OSC_, symObjAddr: 0x2374C, symBinAddr: 0x1000266D8, symSize: 0x34 }
  - { offset: 0x471CD, size: 0x8, addend: 0x0, symName: __ZNKSt3__112__value_typeINS_12basic_stringIcNS_11char_traitsIcEENS_9allocatorIcEEEEN8nlohmann16json_abi_v3_11_210basic_jsonINS_3mapENS_6vectorES6_bxydS4_NS8_14adl_serializerENSB_IhNS4_IhEEEEEEE11__get_valueB8ne180100Ev, symObjAddr: 0x23780, symBinAddr: 0x10002670C, symSize: 0x24 }
  - { offset: 0x471F3, size: 0x8, addend: 0x0, symName: __ZNKSt3__112basic_stringIcNS_11char_traitsIcEENS_9allocatorIcEEE7compareB8ne180100ERKS5_, symObjAddr: 0x237DC, symBinAddr: 0x100026768, symSize: 0x4C }
  - { offset: 0x4722A, size: 0x8, addend: 0x0, symName: __ZNKSt3__112basic_stringIcNS_11char_traitsIcEENS_9allocatorIcEEE7compareINS_17basic_string_viewIcS2_EELi0EEEiRKT_, symObjAddr: 0x23828, symBinAddr: 0x1000267B4, symSize: 0x12C }
  - { offset: 0x472AD, size: 0x8, addend: 0x0, symName: __ZNKSt3__112basic_stringIcNS_11char_traitsIcEENS_9allocatorIcEEEcvNS_17basic_string_viewIcS2_EEB8ne180100Ev, symObjAddr: 0x23954, symBinAddr: 0x1000268E0, symSize: 0x50 }
  - { offset: 0x472D3, size: 0x8, addend: 0x0, symName: __ZNKSt3__117basic_string_viewIcNS_11char_traitsIcEEE4sizeB8ne180100Ev, symObjAddr: 0x239A4, symBinAddr: 0x100026930, symSize: 0x18 }
  - { offset: 0x472F9, size: 0x8, addend: 0x0, symName: __ZNSt3__111char_traitsIcE7compareB8ne180100EPKcS3_m, symObjAddr: 0x239BC, symBinAddr: 0x100026948, symSize: 0x34 }
  - { offset: 0x4733B, size: 0x8, addend: 0x0, symName: __ZNKSt3__117basic_string_viewIcNS_11char_traitsIcEEE4dataB8ne180100Ev, symObjAddr: 0x239F0, symBinAddr: 0x10002697C, symSize: 0x18 }
  - { offset: 0x47361, size: 0x8, addend: 0x0, symName: __ZNSt3__117basic_string_viewIcNS_11char_traitsIcEEEC1B8ne180100EPKcm, symObjAddr: 0x23A08, symBinAddr: 0x100026994, symSize: 0x3C }
  - { offset: 0x473A9, size: 0x8, addend: 0x0, symName: __ZNSt3__117basic_string_viewIcNS_11char_traitsIcEEEC2B8ne180100EPKcm, symObjAddr: 0x23A44, symBinAddr: 0x1000269D0, symSize: 0x2C }
  - { offset: 0x473F1, size: 0x8, addend: 0x0, symName: __ZNKSt3__16__treeINS_12__value_typeINS_12basic_stringIcNS_11char_traitsIcEENS_9allocatorIcEEEEN8nlohmann16json_abi_v3_11_210basic_jsonINS_3mapENS_6vectorES7_bxydS5_NS9_14adl_serializerENSC_IhNS5_IhEEEEEEEENS_19__map_value_compareIS7_SH_NS_4lessIvEELb1EEENS5_ISH_EEE10__root_ptrB8ne180100Ev, symObjAddr: 0x23AA8, symBinAddr: 0x100026A34, symSize: 0x24 }
  - { offset: 0x47417, size: 0x8, addend: 0x0, symName: __ZNSt3__121__tree_const_iteratorINS_12__value_typeINS_12basic_stringIcNS_11char_traitsIcEENS_9allocatorIcEEEEN8nlohmann16json_abi_v3_11_210basic_jsonINS_3mapENS_6vectorES7_bxydS5_NS9_14adl_serializerENSC_IhNS5_IhEEEEEEEEPNS_11__tree_nodeISH_PvEElEppB8ne180100Ev, symObjAddr: 0x23BBC, symBinAddr: 0x100026B48, symSize: 0x38 }
  - { offset: 0x4743D, size: 0x8, addend: 0x0, symName: __ZNSt3__116allocator_traitsINS_9allocatorINS_11__tree_nodeINS_12__value_typeINS_12basic_stringIcNS_11char_traitsIcEENS1_IcEEEEN8nlohmann16json_abi_v3_11_210basic_jsonINS_3mapENS_6vectorES8_bxydS1_NSA_14adl_serializerENSD_IhNS1_IhEEEEEEEEPvEEEEE8allocateB8ne180100ERSL_m, symObjAddr: 0x23BF4, symBinAddr: 0x100026B80, symSize: 0x2C }
  - { offset: 0x47470, size: 0x8, addend: 0x0, symName: __ZNSt3__122__tree_node_destructorINS_9allocatorINS_11__tree_nodeINS_12__value_typeINS_12basic_stringIcNS_11char_traitsIcEENS1_IcEEEEN8nlohmann16json_abi_v3_11_210basic_jsonINS_3mapENS_6vectorES8_bxydS1_NSA_14adl_serializerENSD_IhNS1_IhEEEEEEEEPvEEEEEC1B8ne180100ERSL_b, symObjAddr: 0x23C20, symBinAddr: 0x100026BAC, symSize: 0x48 }
  - { offset: 0x474BE, size: 0x8, addend: 0x0, symName: __ZNSt3__110unique_ptrINS_11__tree_nodeINS_12__value_typeINS_12basic_stringIcNS_11char_traitsIcEENS_9allocatorIcEEEEN8nlohmann16json_abi_v3_11_210basic_jsonINS_3mapENS_6vectorES8_bxydS6_NSA_14adl_serializerENSD_IhNS6_IhEEEEEEEEPvEENS_22__tree_node_destructorINS6_ISK_EEEEEC1B8ne180100ILb1EvEEPSK_NS_16__dependent_typeINS_27__unique_ptr_deleter_sfinaeISN_EEXT_EE20__good_rval_ref_typeE, symObjAddr: 0x23C68, symBinAddr: 0x100026BF4, symSize: 0x3C }
  - { offset: 0x47511, size: 0x8, addend: 0x0, symName: __ZNSt3__116allocator_traitsINS_9allocatorINS_11__tree_nodeINS_12__value_typeINS_12basic_stringIcNS_11char_traitsIcEENS1_IcEEEEN8nlohmann16json_abi_v3_11_210basic_jsonINS_3mapENS_6vectorES8_bxydS1_NSA_14adl_serializerENSD_IhNS1_IhEEEEEEEEPvEEEEE9constructB8ne180100INS_4pairIKS8_SH_EEJRKSQ_EvEEvRSL_PT_DpOT0_, symObjAddr: 0x23CA4, symBinAddr: 0x100026C30, symSize: 0x34 }
  - { offset: 0x47568, size: 0x8, addend: 0x0, symName: __ZNKSt3__110unique_ptrINS_11__tree_nodeINS_12__value_typeINS_12basic_stringIcNS_11char_traitsIcEENS_9allocatorIcEEEEN8nlohmann16json_abi_v3_11_210basic_jsonINS_3mapENS_6vectorES8_bxydS6_NSA_14adl_serializerENSD_IhNS6_IhEEEEEEEEPvEENS_22__tree_node_destructorINS6_ISK_EEEEEptB8ne180100Ev, symObjAddr: 0x23CD8, symBinAddr: 0x100026C64, symSize: 0x28 }
  - { offset: 0x4758E, size: 0x8, addend: 0x0, symName: __ZNSt3__110unique_ptrINS_11__tree_nodeINS_12__value_typeINS_12basic_stringIcNS_11char_traitsIcEENS_9allocatorIcEEEEN8nlohmann16json_abi_v3_11_210basic_jsonINS_3mapENS_6vectorES8_bxydS6_NSA_14adl_serializerENSD_IhNS6_IhEEEEEEEEPvEENS_22__tree_node_destructorINS6_ISK_EEEEE11get_deleterB8ne180100Ev, symObjAddr: 0x23D00, symBinAddr: 0x100026C8C, symSize: 0x24 }
  - { offset: 0x475B4, size: 0x8, addend: 0x0, symName: __ZNSt3__19allocatorINS_11__tree_nodeINS_12__value_typeINS_12basic_stringIcNS_11char_traitsIcEENS0_IcEEEEN8nlohmann16json_abi_v3_11_210basic_jsonINS_3mapENS_6vectorES7_bxydS0_NS9_14adl_serializerENSC_IhNS0_IhEEEEEEEEPvEEE8allocateB8ne180100Em, symObjAddr: 0x23D24, symBinAddr: 0x100026CB0, symSize: 0x5C }
  - { offset: 0x475E9, size: 0x8, addend: 0x0, symName: __ZNSt3__122__tree_node_destructorINS_9allocatorINS_11__tree_nodeINS_12__value_typeINS_12basic_stringIcNS_11char_traitsIcEENS1_IcEEEEN8nlohmann16json_abi_v3_11_210basic_jsonINS_3mapENS_6vectorES8_bxydS1_NSA_14adl_serializerENSD_IhNS1_IhEEEEEEEEPvEEEEEC2B8ne180100ERSL_b, symObjAddr: 0x23D80, symBinAddr: 0x100026D0C, symSize: 0x38 }
  - { offset: 0x47631, size: 0x8, addend: 0x0, symName: __ZNSt3__110unique_ptrINS_11__tree_nodeINS_12__value_typeINS_12basic_stringIcNS_11char_traitsIcEENS_9allocatorIcEEEEN8nlohmann16json_abi_v3_11_210basic_jsonINS_3mapENS_6vectorES8_bxydS6_NSA_14adl_serializerENSD_IhNS6_IhEEEEEEEEPvEENS_22__tree_node_destructorINS6_ISK_EEEEEC2B8ne180100ILb1EvEEPSK_NS_16__dependent_typeINS_27__unique_ptr_deleter_sfinaeISN_EEXT_EE20__good_rval_ref_typeE, symObjAddr: 0x23DB8, symBinAddr: 0x100026D44, symSize: 0x48 }
  - { offset: 0x47684, size: 0x8, addend: 0x0, symName: __ZNSt3__117__compressed_pairIPNS_11__tree_nodeINS_12__value_typeINS_12basic_stringIcNS_11char_traitsIcEENS_9allocatorIcEEEEN8nlohmann16json_abi_v3_11_210basic_jsonINS_3mapENS_6vectorES8_bxydS6_NSA_14adl_serializerENSD_IhNS6_IhEEEEEEEEPvEENS_22__tree_node_destructorINS6_ISK_EEEEEC1B8ne180100IRSL_SO_EEOT_OT0_, symObjAddr: 0x23E00, symBinAddr: 0x100026D8C, symSize: 0x3C }
  - { offset: 0x476DE, size: 0x8, addend: 0x0, symName: __ZNSt3__117__compressed_pairIPNS_11__tree_nodeINS_12__value_typeINS_12basic_stringIcNS_11char_traitsIcEENS_9allocatorIcEEEEN8nlohmann16json_abi_v3_11_210basic_jsonINS_3mapENS_6vectorES8_bxydS6_NSA_14adl_serializerENSD_IhNS6_IhEEEEEEEEPvEENS_22__tree_node_destructorINS6_ISK_EEEEEC2B8ne180100IRSL_SO_EEOT_OT0_, symObjAddr: 0x23E3C, symBinAddr: 0x100026DC8, symSize: 0x48 }
  - { offset: 0x47738, size: 0x8, addend: 0x0, symName: __ZNSt3__122__compressed_pair_elemIPNS_11__tree_nodeINS_12__value_typeINS_12basic_stringIcNS_11char_traitsIcEENS_9allocatorIcEEEEN8nlohmann16json_abi_v3_11_210basic_jsonINS_3mapENS_6vectorES8_bxydS6_NSA_14adl_serializerENSD_IhNS6_IhEEEEEEEEPvEELi0ELb0EEC2B8ne180100IRSL_vEEOT_, symObjAddr: 0x23E84, symBinAddr: 0x100026E10, symSize: 0x24 }
  - { offset: 0x4777B, size: 0x8, addend: 0x0, symName: __ZNSt3__122__compressed_pair_elemINS_22__tree_node_destructorINS_9allocatorINS_11__tree_nodeINS_12__value_typeINS_12basic_stringIcNS_11char_traitsIcEENS2_IcEEEEN8nlohmann16json_abi_v3_11_210basic_jsonINS_3mapENS_6vectorES9_bxydS2_NSB_14adl_serializerENSE_IhNS2_IhEEEEEEEEPvEEEEEELi1ELb0EEC2B8ne180100ISN_vEEOT_, symObjAddr: 0x23EA8, symBinAddr: 0x100026E34, symSize: 0x24 }
  - { offset: 0x477BE, size: 0x8, addend: 0x0, symName: __ZNSt3__19allocatorINS_11__tree_nodeINS_12__value_typeINS_12basic_stringIcNS_11char_traitsIcEENS0_IcEEEEN8nlohmann16json_abi_v3_11_210basic_jsonINS_3mapENS_6vectorES7_bxydS0_NS9_14adl_serializerENSC_IhNS0_IhEEEEEEEEPvEEE9constructB8ne180100INS_4pairIKS7_SG_EEJRKSO_EEEvPT_DpOT0_, symObjAddr: 0x23ECC, symBinAddr: 0x100026E58, symSize: 0x30 }
  - { offset: 0x47816, size: 0x8, addend: 0x0, symName: __ZNSt3__14pairIKNS_12basic_stringIcNS_11char_traitsIcEENS_9allocatorIcEEEEN8nlohmann16json_abi_v3_11_210basic_jsonINS_3mapENS_6vectorES6_bxydS4_NS9_14adl_serializerENSC_IhNS4_IhEEEEEEEC1B8ne180100ERKSH_, symObjAddr: 0x23EFC, symBinAddr: 0x100026E88, symSize: 0x34 }
  - { offset: 0x4784B, size: 0x8, addend: 0x0, symName: __ZNSt3__14pairIKNS_12basic_stringIcNS_11char_traitsIcEENS_9allocatorIcEEEEN8nlohmann16json_abi_v3_11_210basic_jsonINS_3mapENS_6vectorES6_bxydS4_NS9_14adl_serializerENSC_IhNS4_IhEEEEEEEC2B8ne180100ERKSH_, symObjAddr: 0x23F30, symBinAddr: 0x100026EBC, symSize: 0x70 }
  - { offset: 0x47880, size: 0x8, addend: 0x0, symName: __ZNKSt3__117__compressed_pairIPNS_11__tree_nodeINS_12__value_typeINS_12basic_stringIcNS_11char_traitsIcEENS_9allocatorIcEEEEN8nlohmann16json_abi_v3_11_210basic_jsonINS_3mapENS_6vectorES8_bxydS6_NSA_14adl_serializerENSD_IhNS6_IhEEEEEEEEPvEENS_22__tree_node_destructorINS6_ISK_EEEEE5firstB8ne180100Ev, symObjAddr: 0x23FA0, symBinAddr: 0x100026F2C, symSize: 0x24 }
  - { offset: 0x478A6, size: 0x8, addend: 0x0, symName: __ZNKSt3__122__compressed_pair_elemIPNS_11__tree_nodeINS_12__value_typeINS_12basic_stringIcNS_11char_traitsIcEENS_9allocatorIcEEEEN8nlohmann16json_abi_v3_11_210basic_jsonINS_3mapENS_6vectorES8_bxydS6_NSA_14adl_serializerENSD_IhNS6_IhEEEEEEEEPvEELi0ELb0EE5__getB8ne180100Ev, symObjAddr: 0x23FC4, symBinAddr: 0x100026F50, symSize: 0x14 }
